ccollections
defaultdict
p1
(c__builtin__
list
p2
tRp3
V.joe.ie
p4
(lp5
V__cfduid
p6
asVwww.visitdelaware.com
p7
(lp8
VCFTOKEN
p9
asV.flite.com
p10
(lp11
V__uuc2
p12
asV.adjust-net.jp
p13
(lp14
VADJUST-GUID
p15
asV.expedia.co.jp
p16
(lp17
VMC1
p18
aVMC1#GUID
p19
asV.smallanimalchannel.com
p20
(lp21
VOAX
p22
asV.www.infoseek.co.jp
p23
(lp24
VInfoseekUserId
p25
asVaffiliates.mgmresorts.com
p26
(lp27
VMasterKey1
p28
asVatlantichealthsystems.org
p29
(lp30
Vclid
p31
asVwww.webstaurantstore.com
p32
(lp33
VSESSION_ID
p34
aVCFTOKEN
p35
asVcitygridmedia.com
p36
(lp37
Vusrid
p38
asV.saymedia.com
p39
(lp40
Vadnxs_uid
p41
asV.uniteagainstmalware.com
p42
(lp43
V__cfduid
p44
asVtelemetryverification.net
p45
(lp46
VTRK
p47
asV.adswizz.com
p48
(lp49
VOAID
p50
asVwww.discas.net
p51
(lp52
VdummyId
p53
asVembed.spotify.com
p54
(lp55
Vspu
p56
asV.prfct.co
p57
(lp58
Vpa_uid
p59
asV.ibm.com
p60
(lp61
VPrefID
p62
asVcnnmoney.trc.taboola.com
p63
(lp64
Vtaboola_user_id
p65
asV.bing.com
p66
(lp67
VOrigMUID
p68
aVMUID
p69
asVphysioworks.com.au
p70
(lp71
VANONID7049
p72
asV.imiclk.com
p73
(lp74
Vuuid
p75
asVwww.monotaro.com
p76
(lp77
Vsid
p78
asV.proxykat.eu
p79
(lp80
V__cfduid
p81
asV.coolsport.tv
p82
(lp83
V__cfduid
p84
asVp.d41.co
p85
(lp86
Vtuuid
p87
asV.w55c.net
p88
(lp89
Vwfivefivec
p90
asVwww.kinston.com
p91
(lp92
VtmpPersistentuserId
p93
asVcdrlabs.com
p94
(lp95
Vphpbb3_fqhdg_sid
p96
asV.rackspace.com
p97
(lp98
VIS_UASrackuid
p99
asVads.supportfx.net
p100
(lp101
VOAID
p102
asV.musicnotes.com
p103
(lp104
VMusicnotes%2F
p105
aVMusicnotes%2F#uid
p106
asVaspen.turner.com
p107
(lp108
Vaspen_uuid_392aspenUID392
p109
asVntent.com
p110
(lp111
VERA_C1
p112
asVwww.dropbox.com
p113
(lp114
Vgvc
p115
asV.jotform.com
p116
(lp117
V__cfduid
p118
asVmotherless.com
p119
(lp120
Vkkk
p121
asV.clubamerica.com.mx
p122
(lp123
V__cfduid
p124
asVadserv2.suumo.jp
p125
(lp126
VOAID
p127
asV.wwv4ez0n.com
p128
(lp129
V__cfduid
p130
asV.go.affec.tv
p131
(lp132
Vck
p133
asV.dpm.demdex.net
p134
(lp135
Vdpm
p136
asV.adlegend.com
p137
(lp138
VPrefID
p139
asV.cpro.baidu.com
p140
(lp141
VCPROID
p142
asVwww.menuism.com
p143
(lp144
Vuguid
p145
asV.meritbadge.org
p146
(lp147
V__cfduid
p148
asVads.p161.net
p149
(lp150
Vtuuid
p151
asV.freewalkers.org
p152
(lp153
Vxn_visitor
p154
asV.omtrdc.net
p155
(lp156
Vv1st
p157
asVpipl.com
p158
(lp159
Vsessionid
p160
aVpiplv2#H
p161
asV.tested.com
p162
(lp163
VUNAUTHID
p164
asV.uservoice.com
p165
(lp166
Vuvts
p167
asVshareaholic.com
p168
(lp169
Vc_id
p170
asV.miarroba.es
p171
(lp172
V__muid
p173
asV.simplereach.com
p174
(lp175
V__srui
p176
asVitv.com
p177
(lp178
Vmid
p179
asVwww.trulia.com
p180
(lp181
Vtlftmusr
p182
asV.fmpub.net
p183
(lp184
Vltuid
p185
asVwww.peoplefinders.com
p186
(lp187
VSearchVals
p188
asVb.aol.com
p189
(lp190
VMUNAUTHID
p191
asVcountrycode.org
p192
(lp193
VCFTOKEN
p194
asVtec.advertserve.com
p195
(lp196
VAVPUID
p197
asVus.match.com
p198
(lp199
VMatchSession#UMID
p200
asVkeisu02.eproof.com
p201
(lp202
VadGardenerV
p203
asV.dell.com
p204
(lp205
VGAAnon
p206
asV.cnzz.mmstat.com
p207
(lp208
Vatpsida
p209
asV.ancestry.com
p210
(lp211
VANCUUID
p212
aVPrefID
p213
asV.fiverr.com
p214
(lp215
V__cfduid
p216
aVu_guid
p217
asV.thisav.com
p218
(lp219
V__cfduid
p220
asV.yintai.com
p221
(lp222
Vyt_cps_t#gd
p223
aVyt_cps_t#sn
p224
asVcc.simplereach.com
p225
(lp226
V__srui
p227
asV.greatschools.demdex.net
p228
(lp229
Vgreatschools
p230
asV.viviun.com
p231
(lp232
VCFTOKEN
p233
asV.mycalendar.org
p234
(lp235
V__cfduid
p236
asV.honduras.com
p237
(lp238
V__cfduid
p239
asV.moviefone.com
p240
(lp241
VUNAUTHID
p242
asVwww.floridata.com
p243
(lp244
VCFTOKEN
p245
asVa.srpx.net
p246
(lp247
Vsrvid
p248
asV.homestoriesatoz.com
p249
(lp250
V__cfduid
p251
asVdata.bancvue.com
p252
(lp253
VCoreID6
p254
asV.godaddy.com
p255
(lp256
Vvisitor
p257
aVvisitor#vid
p258
asVwww.duesd.org
p259
(lp260
VCFTOKEN
p261
asVwww.chesterfield.gov
p262
(lp263
VEktGUID
p264
asV.adobe.demdex.net
p265
(lp266
Vadobe
p267
asVwww.ginnys.com
p268
(lp269
VPIPELINE_SESSION_ID
p270
asVcastanet.kiban.paperboy.co.jp
p271
(lp272
Vcastanet
p273
asV.fout.jp
p274
(lp275
Vuid
p276
asV.netshelter.net
p277
(lp278
Vzdbb
p279
asV.panaviz.com
p280
(lp281
V__cfduid
p282
asVengine.multiview.com
p283
(lp284
Vazk
p285
asV.proboards.com
p286
(lp287
V__cfduid
p288
asV.adjuggler.net
p289
(lp290
Vaj_fp
p291
asV.google.es
p292
(lp293
VPREF#U
p294
aVPREF#ID
p295
asV.watchfreemovies.ch
p296
(lp297
V__cfduid
p298
asV.motherhoodonadime.com
p299
(lp300
V__cfduid
p301
asVwww.oanda.com
p302
(lp303
Vopc_id
p304
asV.gravity.com
p305
(lp306
Vvaguid
p307
asVapp.phonalytics.com
p308
(lp309
V__ph_aqua-gulf_com
p310
asVwww.midnightvelvet.com
p311
(lp312
VPIPELINE_SESSION_ID
p313
asV.sprint.com
p314
(lp315
VDYN_USER_CONFIRM
p316
asVwww.msn.com
p317
(lp318
VSRCHUID
p319
aVSRCHUID#GUID
p320
asV.analizatar.com
p321
(lp322
V__cfduid
p323
asV.timesfreepress.com
p324
(lp325
VOAX
p326
asV.engadget.com
p327
(lp328
VUNAUTHID
p329
asV.zompmedia.com
p330
(lp331
V__cfduid
p332
asV.citysearch.com
p333
(lp334
Vusrid
p335
asV.propertytax101.org
p336
(lp337
V__cfduid
p338
asVcollector-149.tvsquared.com
p339
(lp340
V_pk_uid
p341
asV.ask.com
p342
(lp343
Vuc#"u
p344
aVuc#u
p345
asV.travelocity.demdex.net
p346
(lp347
Vtravelocity
p348
asV.fidelity.com
p349
(lp350
Vv1st
p351
asV.tickld.com
p352
(lp353
V__cfduid
p354
asV.thecelebritypix.com
p355
(lp356
V__cfduid
p357
asVwww.buildinggreen.com
p358
(lp359
VCFTOKEN
p360
asV.iconarchive.com
p361
(lp362
V__cfduid
p363
asV.aliexpress.com
p364
(lp365
Vcna
p366
asV.philly.demdex.net
p367
(lp368
Vphilly
p369
asVwww.adsurve.com
p370
(lp371
VOAID
p372
asV.www.audible.com
p373
(lp374
Vsession-id
p375
asVbookit.com
p376
(lp377
VTLTUID
p378
asV.feedgrabbr.com
p379
(lp380
V__cfduid
p381
asV.photobucket.com
p382
(lp383
V__utmmobile
p384
aVpb_features
p385
asVplanethollywoodresort.com
p386
(lp387
VTLTUID
p388
asV.linkedin.com
p389
(lp390
Vbcookie
p391
asVawe.sm
p392
(lp393
Vsnowball
p394
asVwww.graduate.ucf.edu
p395
(lp396
VEktGUID
p397
asV.foxnews.demdex.net
p398
(lp399
Vfoxnews
p400
asV.pulsemgr.com
p401
(lp402
Vp
asV.zdnet.com
p403
(lp404
VXCLGFbrowser
p405
asVads.garden.org
p406
(lp407
VOAID
p408
asVflux.com
p409
(lp410
Vvmn_uuid
p411
aVFTUID
p412
asV.extratorrent.cc
p413
(lp414
V__cfduid
p415
asV.cafemom.com
p416
(lp417
Vcafemomis
p418
asVrecs.atgsvcs.com
p419
(lp420
VatgRecVisitorId
p421
asVwww.princetonmini.com
p422
(lp423
VvisitorId
p424
asV.eyeviewads.com
p425
(lp426
V__ev_uid
p427
asV.webmd.com
p428
(lp429
VVisitorId
p430
asV.ladsp.com
p431
(lp432
Vsmn_uid
p433
asVwww.asrm.org
p434
(lp435
VEktGUID
p436
asVwww.rheumatology.org
p437
(lp438
VEktGUID
p439
asVaqua-gulf.com
p440
(lp441
VCFTOKEN
p442
asVwww.zedge.net
p443
(lp444
Vzid
p445
asV.funorb.com
p446
(lp447
VJXWEBUID
p448
asVibeu2.mookie1.com
p449
(lp450
Vibkukiuno#s
p451
asV.capitalone360.com
p452
(lp453
VTLTUID
p454
asV.her.ie
p455
(lp456
V__cfduid
p457
asVtravel.rakuten.co.jp
p458
(lp459
Vashiato-travel-id
p460
asV.postrelease.com
p461
(lp462
Vvisitor
p463
asVwww.bose.com
p464
(lp465
Vbose_id
p466
asV.fiatspider.com
p467
(lp468
Vphpbb3_n8tbm_sid
p469
asVt.brand-server.com
p470
(lp471
Vtuuid
p472
asVwww.djuhsd.org
p473
(lp474
VCFID
p475
aVCFTOKEN
p476
asVrules.atgsvcs.com
p477
(lp478
VatgRecVisitorId
p479
asV.dmlimg.com
p480
(lp481
V__cfduid
p482
asV.lulu.com
p483
(lp484
VcustomerSessionGuid
p485
asV.meteorsolutions.com
p486
(lp487
Vuid
p488
asV.chase.com
p489
(lp490
Vv1st
p491
asVaffiliateprogram.keywordspy.com
p492
(lp493
Vroia_c
p494
asV.creoads.com
p495
(lp496
V_creo
p497
asVwww.hotelscombined.com
p498
(lp499
Vvisitor#id
p500
asVwebstats.talcore.com
p501
(lp502
Vcluid
p503
asVtentaculos.net
p504
(lp505
V_PM_UNIQID
p506
asVwww.fredericks.com
p507
(lp508
Vdwanonymous_bb888d1a17ff1ddb89f5138ed182eb26
p509
asV.cbn.com
p510
(lp511
VOAX
p512
asV.visiblemeasures.com
p513
(lp514
Vuid
p515
asVwww.usa-people-search.com
p516
(lp517
VSession
p518
asVitmedia.co.jp
p519
(lp520
Vs_vid
p521
asVadserve.postrelease.com
p522
(lp523
Vprx_visitor
p524
asVa.b3.ie
p525
(lp526
VOAID
p527
asVwebspectator.com
p528
(lp529
Vwebspectracking
p530
asVmcafee.com
p531
(lp532
VHPrst#gu
p533
asV.gamespot.com
p534
(lp535
VXCLGFbrowser
p536
asV.travelocity.ca
p537
(lp538
VMC1#GUID
p539
aVMC1
p540
asVspotlight.trulia.com
p541
(lp542
Vtlftmusr
p543
asV.thepointsguy.com
p544
(lp545
V__cfduid
p546
asV.unrealanalizatar.com
p547
(lp548
V__cfduid
p549
asVwww.simplyhired.com
p550
(lp551
Vcsrftoken
p552
asV.ic-live.com
p553
(lp554
Vicsid1567
p555
aVicsid4
p556
aVicpid
p557
aVicsid1349
p558
aVicsid10013
p559
aVicsid1636
p560
aVicsid9
p561
aVicsid10070
p562
aVicsid1055
p563
aVicsid5
p564
aVicsid6
p565
aVicsid1506
p566
aVicsid1839
p567
aVicsid10065
p568
aVicsid10049
p569
aVicsid10050
p570
aVicsid7
p571
aVicsid10060
p572
aVicsid10048
p573
aVicsid1920
p574
asV.ensighten.com
p575
(lp576
Vuuid
p577
asVwww.ireland.com
p578
(lp579
VSC_ANALYTICS_GLOBAL_COOKIE
p580
asVt.qservz.com
p581
(lp582
Vquisma_t_uk
p583
asVwww.joann.com
p584
(lp585
Vdwanonymous_8b96780e73e6d6750039da7bd7fa9419
p586
asVadserver.racingone.com
p587
(lp588
VAVPUID
p589
asV.mmstat.com
p590
(lp591
Vcna
p592
asVtracker.azet.sk
p593
(lp594
Vuid
p595
asV.elance.com
p596
(lp597
V__cfduid
p598
asVwww.flir.com
p599
(lp600
VEktGUID
p601
asV.weatherforecastmap.com
p602
(lp603
V__cfduid
p604
asVwww.privacyguard.com
p605
(lp606
VVisitor
p607
asV.bankrate.com
p608
(lp609
VOAX
p610
asV.sigalert.com
p611
(lp612
VGU
p613
asV.mozeo.com
p614
(lp615
V__cfduid
p616
asV.vip.com
p617
(lp618
VPAPVisitorId
p619
asVads.cannaclicks.com
p620
(lp621
VOAID
p622
asV.megashare.info
p623
(lp624
V__cfduid
p625
asV.sfwa.org
p626
(lp627
V__cfduid
p628
asVlodgemfg.com
p629
(lp630
VANONID151182
p631
asV.united.com
p632
(lp633
Vv1st
p634
asVvube.com
p635
(lp636
VSESSID
p637
asVwww.hamsterific.com
p638
(lp639
VCFTOKEN
p640
asVwww.akc.org
p641
(lp642
VCFID
p643
aVCFTOKEN
p644
asVd-suite.jp
p645
(lp646
Vuid
p647
asVinnity.com
p648
(lp649
ViUUID
p650
asVafy11.net
p651
(lp652
Va
asVd.genealogyaffiliates.com
p653
(lp654
VOAID
p655
asV.nytimes.com
p656
(lp657
Vnyt-a
p658
aVuuid
p659
asV.rockettube.com
p660
(lp661
V__cfduid
p662
asV.sp1.convertro.com
p663
(lp664
Vcvo_vtc
p665
asVengine.phn.doublepimp.com
p666
(lp667
VIUID
p668
asVwww.rent.ie
p669
(lp670
Vunique
p671
asVprincetonkids.com
p672
(lp673
Vcfid
p674
asVin.getclicky.com
p675
(lp676
Vcluid
p677
asVdelivery.switchadhub.com
p678
(lp679
VAPP
p680
aVSWID
p681
aVOAID
p682
asV.popmog.com
p683
(lp684
Vuser_token
p685
asVwww.msgapp.com
p686
(lp687
Vbid
p688
asV.netmng.com
p689
(lp690
Vu
asV.adingo.jp.eimg.jp
p691
(lp692
VID
p693
asVwww.valueline.com
p694
(lp695
VEktGUID
p696
asVdc.rackspace.com
p697
(lp698
VCoreID6
p699
asV.google.de
p700
(lp701
VPREF#ID
p702
aVPREF#U
p703
asV.ero-advertising.com
p704
(lp705
Vuniqid
p706
asVas.ebz.io
p707
(lp708
Vsp
p709
asV.madmimi.com
p710
(lp711
V__cfduid
p712
asVtracking.servebom.com
p713
(lp714
Vservebom_uuid
p715
asVidtargeting.com
p716
(lp717
Vrtt
p718
asV.totelfootball.com
p719
(lp720
V__cfduid
p721
asV.metrigo.com
p722
(lp723
Vid
p724
asV.begun.ru
p725
(lp726
Vuuid
p727
aVembryo
p728
asVdl.vntg.jp
p729
(lp730
VINID
p731
asV.adf.ly
p732
(lp733
V__cfduid
p734
asV.expedia.ie
p735
(lp736
VMC1#GUID
p737
aVMC1
p738
asV.lenovo.demdex.net
p739
(lp740
Vlenovo
p741
asV.mindsaw.com
p742
(lp743
V__cfduid
p744
asV.charter.net
p745
(lp746
Vsession
p747
asV.free-tv-video-online.me
p748
(lp749
V__cfduid
p750
asV.tdbank.com
p751
(lp752
VOAX
p753
asV.expedia.it
p754
(lp755
VMC1#GUID
p756
aVMC1
p757
asV.sensic.net
p758
(lp759
Vdmisrvy_respondent
p760
asV.clickbooth.com
p761
(lp762
V__ID
p763
asV.holidayinn.com
p764
(lp765
VTLTUID
p766
asVwww.spycheats.com
p767
(lp768
Vclid
p769
asVdelivery.racingpostads.com
p770
(lp771
VAPP
p772
asV.jcwhitney.com
p773
(lp774
V__cfduid
p775
asV.timesunioncenter-albany.com
p776
(lp777
VTIMESUNI
p778
asVdirectory.wfaa.com
p779
(lp780
VmojopagesCookie#"VisitorUID
p781
asV.awe.sm
p782
(lp783
Vsnowball
p784
asV.everydayhealth.demdex.net
p785
(lp786
Veverydayhealth
p787
asV.brilig.com
p788
(lp789
Vhph
p790
asVwww.directbuy.com
p791
(lp792
VEktGUID
p793
asV.toysrus.com
p794
(lp795
VPrefID
p796
aVOAX
p797
asVwww.moodyradioindiana.fm
p798
(lp799
VEktGUID
p800
asVairfarewatchdog.com
p801
(lp802
Vuu_persist
p803
asVapi.unthem.com
p804
(lp805
Vvisitor
p806
asVwww.chaparral-racing.com
p807
(lp808
VCommerceUser_Identity_Persistent
p809
aVCMX_CART_ID
p810
asVwwd.com
p811
(lp812
Vbrowser_guid
p813
asV.samsclub.com
p814
(lp815
VsamsVisitor
p816
asVjust-eat.ie
p817
(lp818
Vje_t
p819
aVje_t#i
p820
asV.btrll.com
p821
(lp822
VBR_APS
p823
asV.ebay.co.uk
p824
(lp825
Vlucky9
p826
asVsnowplow-collector.sugarops.com
p827
(lp828
Vsp
p829
asVsecde.trivago.com
p830
(lp831
Vtid
p832
asV.cbsi.com
p833
(lp834
VXCLGFbrowser
p835
asV.ebags.com
p836
(lp837
V__VisitorId
p838
asVsacone.com
p839
(lp840
Vtu
p841
asV.adelement.com
p842
(lp843
VOAID
p844
asVwww.kenware.net
p845
(lp846
VvisitorId
p847
asVwww.healthtap.com
p848
(lp849
Vhtuid
p850
asVlogs.jobs.com
p851
(lp852
V_uctxP#u
p853
asV.comcast.demdex.net
p854
(lp855
Vcomcast
p856
asV.ameblo.jp
p857
(lp858
VP
asV.outletlocation.com
p859
(lp860
V__cfduid
p861
asVwww.thumbtack.com
p862
(lp863
Vp
asV.kau.li
p864
(lp865
Vunique_id
p866
aVi
asV.hypebot.com
p867
(lp868
V__cfduid
p869
asVwww.yummly.com
p870
(lp871
Vyv
p872
asV.djmag.com
p873
(lp874
V__cfduid
p875
asVads.bahamasnet.com
p876
(lp877
VAVPUID
p878
asV.dm.demdex.net
p879
(lp880
Vdm
p881
asVssdc.ups.com
p882
(lp883
VUPS_ID
p884
asV.visitgolden.com
p885
(lp886
V__cfduid
p887
asVcrow.herald-dispatch.com
p888
(lp889
VOAID
p890
asVads.capecod.travel
p891
(lp892
VOAID
p893
asV.bpdnews.com
p894
(lp895
Vss_cid
p896
aVSS_MID
p897
asV.deqwas.net
p898
(lp899
Vstamp
p900
asVadxpose.com
p901
(lp902
Vevlu
p903
asV.autotraderclassics.com
p904
(lp905
Vv1st
p906
asV.nbcnews.com
p907
(lp908
Vvid
p909
asVseal.buysafe.com
p910
(lp911
VbuySAFE#UniqueID
p912
aVbuySAFE
p913
asVbpdnews.com
p914
(lp915
Vss_cid
p916
asVad.propellerads.com
p917
(lp918
VGOAID
p919
aVOAID
p920
asVengine.streamate.doublepimp.com
p921
(lp922
VIUID
p923
asV.dpmsrv.com
p924
(lp925
Vdpm_pxl
p926
asV.oxfordjournals.org
p927
(lp928
VOAX
p929
asVcoupons.com
p930
(lp931
VB#s
p932
asV.pswec.com
p933
(lp934
Vtuuid
p935
aVpsrw
p936
asVadvfn.com
p937
(lp938
VADVFNUID
p939
asV.yelp.ie
p940
(lp941
Vyuv
p942
asV.thesearchagency.net
p943
(lp944
Vtsav905
p945
aVtsav817
p946
aVtsav883
p947
aVtsav715
p948
asVblogos.com
p949
(lp950
Vblogos_session
p951
asV.pollster.pl
p952
(lp953
Vad-time
p954
asV.aug.me
p955
(lp956
VAUGMEID
p957
asV.bestpolishrecipes.com
p958
(lp959
V__cfduid
p960
asV.molecular-cooking.com
p961
(lp962
V__cfduid
p963
asV.qservz.com
p964
(lp965
Vuuidm
p966
asVimrk.net
p967
(lp968
Vuid
p969
asVwww.lakemap.com
p970
(lp971
VEktGUID
p972
asV.yelp.com
p973
(lp974
V__cfduid
p975
asVwww.realliving.com
p976
(lp977
VBrokerOffice_Session#SessionCookie
p978
asV.interclick.com
p979
(lp980
Vuid#u
p981
aVuid
p982
asV.eharmony.com
p983
(lp984
V__cfduid
p985
asVs.thebrighttag.com
p986
(lp987
Vbtpdb.4DPyaxM.YnJpZ2h0dGFnIHVzZXIgaWQ
p988
aVbtpdb.5oQcujX.dGllciBpaWkgdXNlciBpZA
p989
asVssl.bing.com
p990
(lp991
VMUIDB
p992
aVSRCHUID#GUID
p993
asV.swa.demdex.net
p994
(lp995
Vswa
p996
asVsnagajob.com
p997
(lp998
VsajWTM
p999
asV.shmoop.com
p1000
(lp1001
V__cfduid
p1002
asV.myvisualiq.net
p1003
(lp1004
Vadsuu
p1005
asVbbc.co.uk
p1006
(lp1007
VBGUID
p1008
asVwww.usfca.edu
p1009
(lp1010
VEktGUID
p1011
asV.monster.demdex.net
p1012
(lp1013
Vmonster
p1014
asVsync.richmetrics.com
p1015
(lp1016
Vid
p1017
asV.adingo.jp
p1018
(lp1019
Vneoc
p1020
aVID
p1021
asVnews.msn.com
p1022
(lp1023
VSRCHUID#GUID
p1024
asVgamestop.com
p1025
(lp1026
VRES_TRACKINGID
p1027
asV.coolsavings.com
p1028
(lp1029
Vcid
p1030
asV.faithtap.com
p1031
(lp1032
V__cfduid
p1033
asV.whisk.co.uk
p1034
(lp1035
V__cfduid
p1036
asVwww.avongov.org
p1037
(lp1038
Vegu
p1039
asVumm.edu
p1040
(lp1041
VSC_ANALYTICS_GLOBAL_COOKIE
p1042
asV.sfgamworld.com
p1043
(lp1044
Vsfgamworld_sid
p1045
asVdelivery.enigmaadserver.com
p1046
(lp1047
VOAID
p1048
asV.bakfliptonneaucover.com
p1049
(lp1050
Vezstida
p1051
asVu.mdotlabs.com
p1052
(lp1053
VuserID
p1054
asV.sbg.intuit.com
p1055
(lp1056
Vcvo_vtc
p1057
asV.proflowers.com
p1058
(lp1059
VPFC_ShoppingCartContentID
p1060
aVPFC_BrowserId
p1061
asV.moz.com
p1062
(lp1063
Vvisid_incap_133232
p1064
asVhqq.tv
p1065
(lp1066
Vvisid_incap_146471
p1067
asV1800flowers.com
p1068
(lp1069
VShopperManagerEnterprise
p1070
asV.eco-tag.jp
p1071
(lp1072
VUID
p1073
asV.expedia.de
p1074
(lp1075
VMC1
p1076
aVMC1#GUID
p1077
asVjustanswer.com
p1078
(lp1079
VJAAnonymousGUID
p1080
aVJA#guid
p1081
asV.ladybehindthecurtain.com
p1082
(lp1083
V__cfduid
p1084
asVengine.bang.doublepimp.com
p1085
(lp1086
VIUID
p1087
asV.wcspeakers.com
p1088
(lp1089
V__cfduid
p1090
asV.gamefaqs.com
p1091
(lp1092
VXCLGFbrowser
p1093
asVads.mediatwo.com
p1094
(lp1095
VOAID
p1096
asV.ratemds.com
p1097
(lp1098
V__cfduid
p1099
asVwww.i.matheranalytics.com
p1100
(lp1101
Vsp
p1102
asVwww.courtesybuickgmc.com
p1103
(lp1104
VvisitorId
p1105
asVwww.visitestespark.com
p1106
(lp1107
VCFTOKEN
p1108
asV.wikia-beacon.com
p1109
(lp1110
Vbeacon
p1111
asV.unrulymedia.com
p1112
(lp1113
Vuid
p1114
asV.tmall.com
p1115
(lp1116
Vcna
p1117
asVaffiliates.mgmmirage.com
p1118
(lp1119
VMasterKey1
p1120
asVciti.bridgetrack.com
p1121
(lp1122
VCitiBT%5F1
p1123
aVCitiBT
p1124
aVCitiBT#GUID
p1125
aVCitiBT%5F1#GUID
p1126
asVads.ibtracking.com
p1127
(lp1128
VAVPUID
p1129
asVwww.goodyspowder.com
p1130
(lp1131
VSC_ANALYTICS_GLOBAL_COOKIE
p1132
asVwww.hao24.cn
p1133
(lp1134
VWMONID
p1135
asV.travelocity.com
p1136
(lp1137
VMC1#GUID
p1138
aVMC1
p1139
aVtyrg1st
p1140
aVTLTUID
p1141
asV.choice.demdex.net
p1142
(lp1143
Vchoice
p1144
asVwww.teacup.com
p1145
(lp1146
Vteacup-guid_access
p1147
asVservesharp.net
p1148
(lp1149
VUUID
p1150
asV.iogous.com
p1151
(lp1152
VIID
p1153
asVwww.hancockfabrics.com
p1154
(lp1155
Vdwanonymous_8ebc58b673408dd0362f626355b01823
p1156
asV.cheaptickets.com
p1157
(lp1158
Vanon
p1159
asV.washington.org
p1160
(lp1161
V__cfduid
p1162
asV.chainreactioncycles.com
p1163
(lp1164
V__cfduid
p1165
asV.taboola.com
p1166
(lp1167
Vtaboola_nr_td_user_id
p1168
aVt_gid
p1169
asV.westonschools.org
p1170
(lp1171
VCFTOKEN
p1172
asVwww.jstor.org
p1173
(lp1174
VMAID
p1175
asV.choicestream.com
p1176
(lp1177
VCSAnywhere
p1178
asVwww.funtrivia.com
p1179
(lp1180
VCFTOKEN
p1181
asV.ancestry.co.uk
p1182
(lp1183
VANCUUID
p1184
asVmp.link-smart.com
p1185
(lp1186
V_lsx0
p1187
asVevents.charlotteobserver.com
p1188
(lp1189
Vwelcome
p1190
asVads.meredithads.com
p1191
(lp1192
VOAID
p1193
asV.projekt95.net
p1194
(lp1195
V__cfduid
p1196
asVwww0.svcdn.lasvegas.com
p1197
(lp1198
VCFTOKEN
p1199
asV.zhubajie.com
p1200
(lp1201
V_uq
p1202
asV.wp.pl
p1203
(lp1204
Vgusid
p1205
asVadtech.de
p1206
(lp1207
VJEB2
p1208
asVsingleturks.com
p1209
(lp1210
Vcfid
p1211
asVmad2.brandreachsys.com
p1212
(lp1213
VOAID
p1214
asVwww.jabong.com
p1215
(lp1216
Vbid
p1217
aVprudsys-uid
p1218
asVtracker.leadsius.com
p1219
(lp1220
V_ls_id_50387f9d16f39d37023c4880245b001f928605ab_71ef
p1221
asVbike.whistlerblackcomb.com
p1222
(lp1223
VSC_ANALYTICS_GLOBAL_COOKIE
p1224
asVdelivery.platform.switchads.com
p1225
(lp1226
VAPP
p1227
aVSWID
p1228
asVwww.skassets.com
p1229
(lp1230
VOAID
p1231
asV.privatehomeclips.com
p1232
(lp1233
V__cfduid
p1234
asVapi.instagram.com
p1235
(lp1236
Vcsrftoken
p1237
asVwww.microsofttranslator.com
p1238
(lp1239
VcsId
p1240
asV.tagged.com
p1241
(lp1242
VB#b
p1243
aVB
asVwww.moviesunlimited.com
p1244
(lp1245
VShopperManager%2Fmusite#ShopperManager%2Fmusite
p1246
asVwww.flightstats.com
p1247
(lp1248
VFS_tokenIQL
p1249
asVwww.kabackmodelmanagement.com
p1250
(lp1251
VCFTOKEN
p1252
asVwww.pages05.net
p1253
(lp1254
VVIEW
p1255
asV.acint.net
p1256
(lp1257
Vaid
p1258
asVannunci.ebay.it
p1259
(lp1260
Vsshh
p1261
asV.boncom.demdex.net
p1262
(lp1263
Vboncom
p1264
asVkayfeldmar.koenigrubloff.com
p1265
(lp1266
VBrokerOffice_Session#SessionCookie
p1267
asV.bookit.com
p1268
(lp1269
VTLTUID
p1270
asVsupport.na.square-enix.com
p1271
(lp1272
VvId
p1273
asVgraphics.arkivmusic.com
p1274
(lp1275
VOAID
p1276
asV.condenast.demdex.net
p1277
(lp1278
Vcondenast
p1279
asVwww.kayak.com
p1280
(lp1281
Vkayak
p1282
asVmrskin.com
p1283
(lp1284
Vskticket
p1285
asVr.migch.com
p1286
(lp1287
VOAID
p1288
asV.lijit.com
p1289
(lp1290
V_ljtrtb_27
p1291
aV_ljtrtb_23
p1292
aV_ljtrtb_29
p1293
aV_ljtrtb_5
p1294
aV_ljtrtb_12
p1295
aV_ljtrtb_16
p1296
aV_ljtrtb_26
p1297
aV_ljtrtb_36
p1298
aVljt_reader
p1299
aV_ljtrtb_2
p1300
aV_ljtrtb_13
p1301
aV_ljtrtb_15
p1302
aV_ljtrtb_33
p1303
aV_ljtrtb_18
p1304
aV_ljtrtb_3
p1305
aV_ljtrtb_28
p1306
aV_ljtrtb_10
p1307
asVgirlsgonewild.com
p1308
(lp1309
Vnats_sess
p1310
asV.kingofpeace.org
p1311
(lp1312
Vvisid_incap_120387
p1313
asVetoyota.net
p1314
(lp1315
Vtkey
p1316
asV.ticotimes.net
p1317
(lp1318
V__cfduid
p1319
asV.tnol.com
p1320
(lp1321
VCFID
p1322
asVbanners.yatrainc.com
p1323
(lp1324
VOAID
p1325
asVstore.purefishing.com
p1326
(lp1327
Vdwanonymous_981a7f1a36d67a6e9669acbbc60bc120
p1328
asV.did-it.com
p1329
(lp1330
Vx_didit_sid
p1331
asV.firerescue1.com
p1332
(lp1333
Vvisid_incap_143022
p1334
asVwww.picmonkey.com
p1335
(lp1336
Vcsrftoken
p1337
asVp.liadm.com
p1338
(lp1339
Vrid_1
p1340
aVrid_5298
p1341
aVrid_2813
p1342
aVtuuid
p1343
asVwww.gavialliance.org
p1344
(lp1345
VEktGUID
p1346
asV.ca-mpr.jp
p1347
(lp1348
Vsbr
p1349
asVevents.jsonline.com
p1350
(lp1351
Vwelcome
p1352
asV.ad6media.fr
p1353
(lp1354
Vi
asVc.bing.com
p1355
(lp1356
VSRM_M
p1357
aVSRM_B
p1358
asVwhaleserver.com
p1359
(lp1360
VOAID
p1361
asV.scanscout.com
p1362
(lp1363
VUIGL
p1364
aVuid
p1365
aVUIRF
p1366
asVmarinsm.com
p1367
(lp1368
V_msuuid
p1369
asVtracking.okwave.com
p1370
(lp1371
Vntk
p1372
asVadserv1.mannixmarketing.com
p1373
(lp1374
VOAID
p1375
asVwww.ebscomags.com
p1376
(lp1377
VTLTUID
p1378
asVwww2.nationalgrid.com
p1379
(lp1380
VEktGUID
p1381
asV.nationalcar.com
p1382
(lp1383
VTLTUID
p1384
asV.rightmove.co.uk
p1385
(lp1386
Vpermuserid
p1387
asVcrwdcntrl.net
p1388
(lp1389
V_cc_id
p1390
asV.esm1.net
p1391
(lp1392
Vabc
p1393
asV.ijreview.com
p1394
(lp1395
V__cfduid
p1396
asVwww.budgetblinds.com
p1397
(lp1398
VEktGUID
p1399
asVwww.iconfinder.com
p1400
(lp1401
Vcsrftoken
p1402
asVwww.phillipsseafood.com
p1403
(lp1404
VCFTOKEN
p1405
asV.163.com
p1406
(lp1407
V_ntes_nuid
p1408
asVdiscas.net
p1409
(lp1410
VdummyId
p1411
aVCRF
p1412
asV.hardsextube.com
p1413
(lp1414
Vhstgr
p1415
aVPHPSESSID
p1416
asVwww.irishjobs.ie
p1417
(lp1418
Vijaav
p1419
asVgo.na.sage.com
p1420
(lp1421
VELOQUA
p1422
aVELOQUA#GUID
p1423
asV.google.fr
p1424
(lp1425
VPREF#ID
p1426
aVPREF#U
p1427
asV.vitacost.com
p1428
(lp1429
Vvitaguid
p1430
asV.dailymotion.com
p1431
(lp1432
Vv1st
p1433
aVts
p1434
asVwww.victoriassecret.com
p1435
(lp1436
VUID
p1437
asV.de.demdex.net
p1438
(lp1439
Vde
p1440
asV.tnvacation.com
p1441
(lp1442
VPHPSESSID
p1443
asVshopsocially.com
p1444
(lp1445
Vss_visitor_id
p1446
asVsocial.technet.microsoft.com
p1447
(lp1448
V.ASPXANONYMOUS
p1449
asV.marinedepot.com
p1450
(lp1451
V__cfduid
p1452
asVwww.perrinecars.com
p1453
(lp1454
VvisitorId
p1455
asVwww.conversionruler.com
p1456
(lp1457
Vsettings2000
p1458
asVvip.adstatic.com
p1459
(lp1460
Vas_uuid
p1461
asVwww.mountainkhakis.com
p1462
(lp1463
VCFTOKEN
p1464
asV.parsely.com
p1465
(lp1466
Vparsely_network_uuid
p1467
asV.sheraton-waikiki.com
p1468
(lp1469
V__cfduid
p1470
asV.edmunds.com
p1471
(lp1472
Vedmunds
p1473
asVssl-hints.netflame.cc
p1474
(lp1475
VfcP.d3d6c7efa741b455#U
p1476
asVstore.steampowered.com
p1477
(lp1478
Vbrowserid
p1479
asV.tanx.com
p1480
(lp1481
Vcna
p1482
asVwww.courtesybirmingham.com
p1483
(lp1484
VvisitorId
p1485
asV.convertro.com
p1486
(lp1487
Vcvo_sid1
p1488
asVwww.haleybuickgmcmidlo.com
p1489
(lp1490
VvisitorId
p1491
asV.ppbsa.org
p1492
(lp1493
V__cfduid
p1494
asV.google.pl
p1495
(lp1496
VPREF#ID
p1497
aVPREF#U
p1498
asV.indiepublic.com
p1499
(lp1500
Vxn_visitor
p1501
asV.ebz.io
p1502
(lp1503
Vsp
p1504
asVmts.mansion.com
p1505
(lp1506
Vuguid
p1507
asVnews4.thomasnet.com
p1508
(lp1509
VOAID
p1510
asV.surveymonkey.com
p1511
(lp1512
Vep202
p1513
asVwww.swfa.org.au
p1514
(lp1515
VCFTOKEN
p1516
asV.business.comcast.com
p1517
(lp1518
VPrefID
p1519
asV.glassdoor.com
p1520
(lp1521
V__cfduid
p1522
asVads.ibibo.com
p1523
(lp1524
VOAID
p1525
asV.zillow.com
p1526
(lp1527
Vabtest
p1528
asVengine.adzerk.net
p1529
(lp1530
Vazk
p1531
asV.eyeota.net
p1532
(lp1533
Vtuuid
p1534
asVact.ameba.jp
p1535
(lp1536
VA
asV.vistaprint.com
p1537
(lp1538
VPSC#VID
p1539
asV.equine.com
p1540
(lp1541
Vuser
p1542
aVuser#uid
p1543
asVtraffic.buyservices.com
p1544
(lp1545
VVisitorId
p1546
asVengine.4dsply.com
p1547
(lp1548
VIUID
p1549
asV.rutarget.ru
p1550
(lp1551
VuserId
p1552
asVpubmatic.com
p1553
(lp1554
VKRTBCOOKIE_588
p1555
aVKRTBCOOKIE_188
p1556
aVKRTBCOOKIE_350
p1557
aVKRTBCOOKIE_153
p1558
asV.trovigo.com
p1559
(lp1560
VUserId
p1561
asV.www.linkedin.com
p1562
(lp1563
Vbscookie
p1564
asVdelivery.ad.newsnow.net
p1565
(lp1566
VAPP
p1567
aVSWID
p1568
asVdash.37signals.com
p1569
(lp1570
V_beanstalk_uuid
p1571
asV.forbes.com
p1572
(lp1573
Vfps
p1574
asVc3.findology.com
p1575
(lp1576
Vf_p
p1577
asV.telstra.demdex.net
p1578
(lp1579
Vtelstra
p1580
asVyashi.com
p1581
(lp1582
Vyshi
p1583
asVcart.upgpet.com
p1584
(lp1585
VecfUser#id
p1586
aVecfUser
p1587
asV.wral.com
p1588
(lp1589
Vsc
p1590
asV.company-target.com
p1591
(lp1592
Vtuuid
p1593
asVcalendar.boston.com
p1594
(lp1595
Vwelcome
p1596
asV.aexp.demdex.net
p1597
(lp1598
Vaexp
p1599
asV.mmtro.com
p1600
(lp1601
VRUID
p1602
aVMRUID
p1603
aVFUID
p1604
asVwww.travelnerd.com
p1605
(lp1606
Vnwid
p1607
asVwidget.storystack.com
p1608
(lp1609
Vtoken-783
p1610
asVadm.shinobi.jp
p1611
(lp1612
Vninja_adm_uid
p1613
aVninja_adm_po_uid
p1614
aVninja_adm_iw_uid
p1615
aVninja_adm_sp_uid
p1616
asVsp.gmossp-sp.jp
p1617
(lp1618
VdeviceIdentifier
p1619
asV.simpli.fi
p1620
(lp1621
Vuid
p1622
asVwww.urologyhealth.org
p1623
(lp1624
VCFTOKEN
p1625
asV.bookcdn.com
p1626
(lp1627
V__cfduid
p1628
asV.realtruck.com
p1629
(lp1630
VPermID
p1631
asV.neobux.com
p1632
(lp1633
VCFTOKEN
p1634
aVvisid_incap_144998
p1635
asVwww.jerseygardens.com
p1636
(lp1637
VCFTOKEN
p1638
asV.streetball.com
p1639
(lp1640
Vxn_visitor
p1641
asVtags.qservz.com
p1642
(lp1643
Vtuuid
p1644
asVadsystem4.gazeta.ie
p1645
(lp1646
VOAID
p1647
asV.ereleases.com
p1648
(lp1649
V__cfduid
p1650
asV.short-fiction.co.uk
p1651
(lp1652
V__cfduid
p1653
asV.gannett.demdex.net
p1654
(lp1655
Vgannett
p1656
asV.adsymptotic.com
p1657
(lp1658
VU
asVwebstats.oanda.com
p1659
(lp1660
Vopc_id
p1661
asVww2.nsnbc.com
p1662
(lp1663
VpID
p1664
asV.progressive.com
p1665
(lp1666
VTLTUID
p1667
asVwww.thelimited.com
p1668
(lp1669
Vdwanonymous_b1d609a2a52ab5a1e52ce64b99e123df
p1670
asVrsz.sk
p1671
(lp1672
VOAID
p1673
asVwww.indeed.com
p1674
(lp1675
VPREF#"ID
p1676
asVoutbrain.com
p1677
(lp1678
Vobuid
p1679
asV.stackexchange.com
p1680
(lp1681
Vprov
p1682
asV.classmates.com
p1683
(lp1684
VML_VISITOR
p1685
asVwww.hugedomains.com
p1686
(lp1687
VCFTOKEN
p1688
aVHD
p1689
asVad-m.asia
p1690
(lp1691
Vuid
p1692
asVbestwesternnorthcarolina.com
p1693
(lp1694
VCFID
p1695
asV.gameslist.com
p1696
(lp1697
V__cfduid
p1698
asV.theladbible.com
p1699
(lp1700
V__cfduid
p1701
asV.sears.demdex.net
p1702
(lp1703
Vsears
p1704
asV.missiontour.org
p1705
(lp1706
V__cfduid
p1707
asVf.blogads.com
p1708
(lp1709
VOAID
p1710
asVwww.diyupholsterysupply.com
p1711
(lp1712
Vmm5-DIY-basket-id
p1713
asV.ashleymadison.com
p1714
(lp1715
Vamvid
p1716
asV.streema.com
p1717
(lp1718
Vsessionid
p1719
asVklove.com
p1720
(lp1721
VVisitorId
p1722
asV.expedia.fr
p1723
(lp1724
VMC1#GUID
p1725
aVMC1
p1726
asV.mayoclinic.org
p1727
(lp1728
VOAX
p1729
asVnrelate.com
p1730
(lp1731
VnrelateID
p1732
asV.candlewoodsuites.com
p1733
(lp1734
VTLTUID
p1735
asVdevelopers.google.com
p1736
(lp1737
Vcsrftoken
p1738
asVwww.samplelist.com
p1739
(lp1740
VSWFA.ID
p1741
asVwww.worldvitalrecords.com
p1742
(lp1743
Vwvrbid
p1744
asV.placehold.it
p1745
(lp1746
V__cfduid
p1747
asVwww.amigo-us.com
p1748
(lp1749
VCFTOKEN
p1750
asV.flipacars.com
p1751
(lp1752
V__cfduid
p1753
asV.comodo.com
p1754
(lp1755
Vn_sha
p1756
asV.aionarmory.com
p1757
(lp1758
V__cfduid
p1759
asV.prudential.com
p1760
(lp1761
VVIGN_trail
p1762
asVtrck.dlpo.jp
p1763
(lp1764
VDLPOGUser434
p1765
asVads.bridgetrack.com
p1766
(lp1767
VBTA#GUID
p1768
aVBTA
p1769
asVbestwestern.com
p1770
(lp1771
VTLASPID
p1772
asV.ruralking.com
p1773
(lp1774
Vvisid_incap_141661
p1775
asVads2.zeusclicks.com
p1776
(lp1777
VAVPUID
p1778
asVads.verticalscope.com
p1779
(lp1780
VOAID
p1781
asVwww.gamesradar.com
p1782
(lp1783
Vcsrftoken
p1784
asV.wmconnect.com
p1785
(lp1786
VUNAUTHID
p1787
asV.organiccolorsystems.com
p1788
(lp1789
V__cfduid
p1790
asV.interscope.com
p1791
(lp1792
Vvisid_incap_111973
p1793
asVwww.match.com
p1794
(lp1795
VMatchSession#UMID
p1796
asVwww.psoriasis.org
p1797
(lp1798
VVisitorGuid
p1799
asV.binpilot.net
p1800
(lp1801
V__cfduid
p1802
asV.solvemedia.com
p1803
(lp1804
V_sscn_a
p1805
asV.nationalreview.com
p1806
(lp1807
V__cfduid
p1808
asV.ebay.com.au
p1809
(lp1810
Vlucky9
p1811
asVhancockfabrics.com
p1812
(lp1813
Vdwanonymous_8ebc58b673408dd0362f626355b01823
p1814
asV.send.microad.jp
p1815
(lp1816
VTR
p1817
asV.precisionrepro.net
p1818
(lp1819
V__cfduid
p1820
asV.bostonglobe.demdex.net
p1821
(lp1822
Vbostonglobe
p1823
asV.norton.com
p1824
(lp1825
VTLID
p1826
asV.dialcode.org
p1827
(lp1828
V__cfduid
p1829
asVwww.fixya.com
p1830
(lp1831
VUniquGuid
p1832
asV.reson8.com
p1833
(lp1834
VRCID
p1835
asVwww.marksandspencer.ie
p1836
(lp1837
Vdwanonymous_9526df160628c864e929eb2d7b633463
p1838
asVwww.coleman.com
p1839
(lp1840
V_AnonymousUserId
p1841
aVEktGUID
p1842
asV.uline.com
p1843
(lp1844
VTLTUID
p1845
asV.sundayworld.com
p1846
(lp1847
V__cfduid
p1848
asV.google.co.uk
p1849
(lp1850
VPREF#U
p1851
aVPREF#ID
p1852
asV.deqwas-dsp.net
p1853
(lp1854
Vstamp
p1855
asV.neighborfoodblog.com
p1856
(lp1857
V__cfduid
p1858
asV.dmtracker.com
p1859
(lp1860
Vv1st
p1861
asV.trulia.com
p1862
(lp1863
Vlts
p1864
asV.cbs.com
p1865
(lp1866
VXCLGFbrowser
p1867
asV.4chan.org
p1868
(lp1869
V__cfduid
p1870
asVbleacherreport.com
p1871
(lp1872
V_unqid
p1873
asV.bluekai.com
p1874
(lp1875
Vbku
p1876
asV.localtimes.info
p1877
(lp1878
V__cfduid
p1879
asVlivedoor.com
p1880
(lp1881
Vucd
p1882
asV.huffingtonpost.com
p1883
(lp1884
VUNAUTHID
p1885
asV.ecs.demdex.net
p1886
(lp1887
Vecs
p1888
asV.huffingtonpost.jp
p1889
(lp1890
VUNAUTHID
p1891
asVwww.accuweather.com
p1892
(lp1893
VAID
p1894
asVwww.networksolutions.com
p1895
(lp1896
Vvrsnsf
p1897
asVevents.stamfordadvocate.com
p1898
(lp1899
Vwelcome
p1900
asVzvents.com
p1901
(lp1902
Vwelcome
p1903
asV.gfycat.com
p1904
(lp1905
V__cfduid
p1906
asVads.adk2.com
p1907
(lp1908
Vtuuid
p1909
asV.errorception.com
p1910
(lp1911
V__cfduid
p1912
asV.spineuniverse.com
p1913
(lp1914
VOAX
p1915
asVshesgonnasquirt.com
p1916
(lp1917
Vnats_sess
p1918
asV.trovi.com
p1919
(lp1920
VUserId
p1921
asV.prezi.com
p1922
(lp1923
Vcsrftoken
p1924
asVimrworldwide.com
p1925
(lp1926
VIMRID
p1927
asVrtrgt2.com
p1928
(lp1929
VOAID
p1930
asVwww.realtor.com
p1931
(lp1932
VPPIDForGptAds
p1933
asVsourceforge.net
p1934
(lp1935
VVISITOR
p1936
asV.civicscience.com
p1937
(lp1938
Vballotbox/respondent_id
p1939
asV.bettingpartners.com
p1940
(lp1941
VZBan
p1942
asV.localstore.net
p1943
(lp1944
V__cfduid
p1945
asV.yahoo-mbga.jp
p1946
(lp1947
VF
asVforums.somethingawful.com
p1948
(lp1949
Vsessionhash
p1950
asVcaesarspalace.com
p1951
(lp1952
VTLTUID
p1953
asVmembership.square-enix.com
p1954
(lp1955
Vsemclientid
p1956
asVowldata.com
p1957
(lp1958
Vuid
p1959
asVneimanmarcus.com
p1960
(lp1961
VABTEST_COOKIE_CONFIRM
p1962
asVwww.marriott.com
p1963
(lp1964
VMI_Visitor
p1965
asVadfp.send.microad.jp
p1966
(lp1967
VOAID
p1968
asVbook.aavacations.com
p1969
(lp1970
VEZ_LIFETIME_TRACK
p1971
aVEZ_ABTK_LIFETIME
p1972
asV.healthline.com
p1973
(lp1974
Vhln-viz
p1975
asV.footsolutions.com
p1976
(lp1977
V__cfduid
p1978
asVwww.adp.com
p1979
(lp1980
VADPLeadCookie
p1981
asV.chiff.com
p1982
(lp1983
V__cfduid
p1984
asV.myflashstore.net
p1985
(lp1986
V__cfduid
p1987
asV.visa.com
p1988
(lp1989
VvisaAnonCookie
p1990
asVads.creative-serving.com
p1991
(lp1992
Vtuuid
p1993
asV.bloggapedia.com
p1994
(lp1995
V__cfduid
p1996
asV.match.com
p1997
(lp1998
VPrefID
p1999
asV.blogher.org
p2000
(lp2001
VOAX
p2002
asV.localpha.com
p2003
(lp2004
V__cfduid
p2005
asV.impervacloud.com
p2006
(lp2007
Vvisid_incap_76864
p2008
asVfirestorage.jp
p2009
(lp2010
Vfid
p2011
asV.tower.com
p2012
(lp2013
VCFTOKEN
p2014
asV.videohub.tv
p2015
(lp2016
VUIGL
p2017
aVuid
p2018
aVUIRF
p2019
asV.allrecipes.com
p2020
(lp2021
VARSiteUser
p2022
asVwww.cozumel.travel
p2023
(lp2024
VCFTOKEN
p2025
asVwww.itt-tech.edu
p2026
(lp2027
VCFTOKEN
p2028
asVtorcache.net
p2029
(lp2030
Vtorcache_session
p2031
asV.mediaforge.com
p2032
(lp2033
VuID
p2034
asV.taobao.com
p2035
(lp2036
Vt
aVcna
p2037
asV.mail.ru
p2038
(lp2039
VVID
p2040
asVdelivery.ads.gdimg.net
p2041
(lp2042
VOAID
p2043
asV.juicyads.com
p2044
(lp2045
Vvisid_incap_150123
p2046
aVvisid_incap_165243
p2047
asVwww.terminatorlures.com
p2048
(lp2049
Vdwanonymous_c289076000678006b7b10a0fa6826bdc
p2050
asV.gree.jp
p2051
(lp2052
Vgcid#B
p2053
aVgcid#S
p2054
aVgcid
p2055
asV.google.ru
p2056
(lp2057
VPREF#U
p2058
aVPREF#ID
p2059
asVwww.gillettestadium.com
p2060
(lp2061
VCFTOKEN
p2062
asVwww.briggsandstratton.com
p2063
(lp2064
VSC_ANALYTICS_GLOBAL_COOKIE
p2065
asVads.ad4game.com
p2066
(lp2067
VOAID
p2068
asVadrta.com
p2069
(lp2070
V__aavi
p2071
asV.tinyurl.com
p2072
(lp2073
VtinyUUID
p2074
asV.clicksor.com
p2075
(lp2076
VTRUID
p2077
asV.adsrvr.org
p2078
(lp2079
VTDID
p2080
asVwww.tpnicdn.net
p2081
(lp2082
Vtpnid
p2083
asV.pawnation.com
p2084
(lp2085
VUNAUTHID
p2086
asVdelivery.myswitchads.com
p2087
(lp2088
VAPP
p2089
aVOAID
p2090
aVSWID
p2091
asVwww.faulknerbuickgmctrevose.com
p2092
(lp2093
VvisitorId
p2094
asVdownload.cnet.com
p2095
(lp2096
Vbwp2
p2097
asV.gumgum.com
p2098
(lp2099
Vvst
p2100
asVpo.st
p2101
(lp2102
Vpost_uuid
p2103
asVhollandregional.com
p2104
(lp2105
V_klbdi
p2106
asVdiz.smoothjazz.com
p2107
(lp2108
VOAID
p2109
asV.nfpa.org
p2110
(lp2111
VOAX
p2112
asVworthyadvertising.com
p2113
(lp2114
VOAID
p2115
asV.clickfuse.com
p2116
(lp2117
VCF_ID
p2118
asVjobtalk.jp
p2119
(lp2120
Vuid
p2121
asVshufoo.net
p2122
(lp2123
V__SUID
p2124
asV.10y5gehv.com
p2125
(lp2126
V__cfduid
p2127
asVtrace.enet.com.cn
p2128
(lp2129
Vdmuid
p2130
asV.my.jobs
p2131
(lp2132
Vaguid
p2133
asV.menuism.com
p2134
(lp2135
V__cfduid
p2136
asV.kavanga.ru
p2137
(lp2138
Vkui1v
p2139
asVwww.googlecommerce.com
p2140
(lp2141
VPREF#ID
p2142
aVPREF#S
p2143
asVwww.memorialmiramar.com
p2144
(lp2145
VCFTOKEN
p2146
asV.trw12.com
p2147
(lp2148
V__cfduid
p2149
asVwww.myscenicdrives.com
p2150
(lp2151
Vc
asVwww.newbalance.com
p2152
(lp2153
Vdwanonymous_f1a54ce182c498831467dac7f12df0bb
p2154
asVaudienceinsights.net
p2155
(lp2156
Vpus-idv
p2157
asVbeta.myxer.fm
p2158
(lp2159
Vdev_id
p2160
asV.hexagram.com
p2161
(lp2162
VfAdv
p2163
asVfranklinbuildingsupply.com
p2164
(lp2165
VANONID325420
p2166
asV.autoanything.com
p2167
(lp2168
Vvisitor_id
p2169
asVcafepress.com
p2170
(lp2171
Vcpvr
p2172
aVcp-v
p2173
aVpid.guid
p2174
asVxiti.com
p2175
(lp2176
Vidrxvr
p2177
asV.capella.demdex.net
p2178
(lp2179
Vcapella
p2180
asV.sonet.demdex.net
p2181
(lp2182
Vsonet
p2183
asVanswersingenesis.org
p2184
(lp2185
Vcsrftoken
p2186
asV.zazzle.com
p2187
(lp2188
Vus
p2189
asV.microsoft.com
p2190
(lp2191
VMC1#GUID
p2192
aVA#I
p2193
aVv1st
p2194
asVwww.thevintagelofts.com
p2195
(lp2196
VEktGUID
p2197
asVdsply.com
p2198
(lp2199
Vub_uuid
p2200
asV.google.ca
p2201
(lp2202
VPREF#ID
p2203
aVPREF#U
p2204
asV.fashionfindblog.com
p2205
(lp2206
V__cfduid
p2207
asV.triggit.com
p2208
(lp2209
Vtrgu
p2210
asVsync.shinobi.jp
p2211
(lp2212
Vninja_dsp_uid
p2213
asVharvester.eu.square-enix.com
p2214
(lp2215
V_harv_uid
p2216
asVwww.blogger.com
p2217
(lp2218
VPREF#U
p2219
asV.dispatch.com
p2220
(lp2221
Vdispatchuid
p2222
asV.medhelp.org
p2223
(lp2224
Vguid
p2225
asV.nordstrom.com
p2226
(lp2227
Vnordstrom#shopperid
p2228
asV.gbiz.org
p2229
(lp2230
V__cfduid
p2231
asVwww.lumberliquidators.com
p2232
(lp2233
VPIPELINE_SESSION_ID
p2234
asVkropka.onet.pl
p2235
(lp2236
Vonet_sgn
p2237
asV.ungrounded.net
p2238
(lp2239
V__cfduid
p2240
asV.kixer.com
p2241
(lp2242
V__cfduid
p2243
asV.careerbuilder.com
p2244
(lp2245
VBID
p2246
asV.apxlv.com
p2247
(lp2248
Vdc_id
p2249
asV.lsxtv.com
p2250
(lp2251
V__cfduid
p2252
asVwww.nautica.com
p2253
(lp2254
Vdwanonymous_8c5371fabd8b48c7375db8a2da05dde4
p2255
asVbookit.advertserve.com
p2256
(lp2257
VAVPUID
p2258
asV.waterfordwhispersnews.com
p2259
(lp2260
V__cfduid
p2261
asV.nairaland.com
p2262
(lp2263
V__cfduid
p2264
asV.adbrn.com
p2265
(lp2266
Vtuuid
p2267
asVfindicons.com
p2268
(lp2269
Vcsrftoken
p2270
aVsessionid
p2271
asVstreema.com
p2272
(lp2273
Vcsrftoken
p2274
asV.dailyfinance.com
p2275
(lp2276
VUNAUTHID
p2277
asVwww.modcloth.com
p2278
(lp2279
Vmc_id
p2280
asV.gsimedia.net
p2281
(lp2282
VPrefID
p2283
asVads.traffichunt.com
p2284
(lp2285
Vadx_profile_guid
p2286
asVevents.ctpost.com
p2287
(lp2288
Vwelcome
p2289
asV.wufoo.com
p2290
(lp2291
Vep202
p2292
asV.groupon.ie
p2293
(lp2294
Vb
asV.cosmi.io
p2295
(lp2296
Vcid_tokutokushop
p2297
asVwww.cigna.com
p2298
(lp2299
VTLTUID
p2300
asVlingospot.com
p2301
(lp2302
VLUI
p2303
asV.slickdeals.net
p2304
(lp2305
Vabt_uuid
p2306
aVauuid
p2307
asV.jibjab.com
p2308
(lp2309
Vjj_t
p2310
asV.maps-streetview.com
p2311
(lp2312
V__cfduid
p2313
asV.industrybrains.com
p2314
(lp2315
V__tuid
p2316
asV.ourtime.com
p2317
(lp2318
VUMID
p2319
asVwww.dnainfo.com
p2320
(lp2321
VOAID
p2322
asV.pch.com
p2323
(lp2324
Vpci
p2325
asV.christianity.com
p2326
(lp2327
V__cfduid
p2328
asV.box.com
p2329
(lp2330
Vbox_visitor_id
p2331
asVapi.taps.io
p2332
(lp2333
V__tsid
p2334
asV.recruitireland.com
p2335
(lp2336
V__cfduid
p2337
asV.serviceguidance.com
p2338
(lp2339
V__cfduid
p2340
asVstore.yahoo.net
p2341
(lp2342
Vysco_key_session_cookie#value
p2343
asV.distrify.com
p2344
(lp2345
V__cfduid
p2346
asVpixel.redditmedia.com
p2347
(lp2348
Vazk
p2349
asV.us.playstation.com
p2350
(lp2351
VVISITORID
p2352
asV.angieslist.com
p2353
(lp2354
VPrefID
p2355
asVads.urbanrealm.com
p2356
(lp2357
VOAID
p2358
asV.cosme.net
p2359
(lp2360
V@COSME_VISITOR#VISITOR_ID
p2361
aV@COSME_VISITOR
p2362
asV.ewsite.gr
p2363
(lp2364
Vvisid_incap_121534
p2365
asVwww.hud.gov
p2366
(lp2367
VCFTOKEN
p2368
asV.sharexy.com
p2369
(lp2370
V__cfduid
p2371
asV.123greetings.com
p2372
(lp2373
VOAX
p2374
asV.mediafire.com
p2375
(lp2376
Vukey
p2377
asV.broadsheet.ie
p2378
(lp2379
V__cfduid
p2380
asV.binarypilot.co
p2381
(lp2382
V__cfduid
p2383
asVgirlsnextdoor.com
p2384
(lp2385
Vtu
p2386
asVwww.uline.com
p2387
(lp2388
VUlineCom#SessionID
p2389
asV.logmein.com
p2390
(lp2391
VLMIorigin#guid
p2392
asVwww.apta.org
p2393
(lp2394
VEktGUID
p2395
asVwww.ffslaw.com
p2396
(lp2397
VCFTOKEN
p2398
aVORIGINALURLTOKEN
p2399
asV.tellapart.com
p2400
(lp2401
V__cmbGU
p2402
asVwwwprd.doa.louisiana.gov
p2403
(lp2404
VCFTOKEN
p2405
asV.nuggad.net
p2406
(lp2407
Vdp
p2408
aVci
p2409
asVads.wineenthusiast.com
p2410
(lp2411
VOAID
p2412
asVsleeptrain.com
p2413
(lp2414
VCBCookie#__uh
p2415
aV_klbdi
p2416
asVwww.marineland.com
p2417
(lp2418
VecfUser
p2419
aVecfUser#id
p2420
asV.infusionsoft.com
p2421
(lp2422
V__cfduid
p2423
asV.toyota.demdex.net
p2424
(lp2425
Vtoyota
p2426
asV.theguardian.com
p2427
(lp2428
Vbwid
p2429
asVapi.taboola.com
p2430
(lp2431
Vtaboola_user_id
p2432
asVchappel.videogamer.com
p2433
(lp2434
VOAID
p2435
asVwww.morrisathome.com
p2436
(lp2437
VCookieId
p2438
asVcxense.com
p2439
(lp2440
Vgckp
p2441
asVonclickads.net
p2442
(lp2443
VOAID
p2444
aVGOAID
p2445
asVgdt.qq.com
p2446
(lp2447
Vsnsuid
p2448
asV.superpages.com
p2449
(lp2450
VOAX
p2451
asV.vegas.com
p2452
(lp2453
VTLTUID
p2454
asVdw.wmt.co
p2455
(lp2456
Vdwtc
p2457
asVkitcarmag.com
p2458
(lp2459
VUserPuid
p2460
asV.sharkiesinc.com
p2461
(lp2462
Vss_cid
p2463
aVSS_MID
p2464
asVadserving.jp
p2465
(lp2466
Vuid
p2467
asVwww.womenonweb.org
p2468
(lp2469
Vz_pid
p2470
asV.shareasimage.com
p2471
(lp2472
V__cfduid
p2473
asV.xg4ken.com
p2474
(lp2475
Vkenshoo_id
p2476
asV.ford.demdex.net
p2477
(lp2478
Vford
p2479
asV.csnews.com
p2480
(lp2481
V__cfduid
p2482
asVtracking.waterfrontmedia.com
p2483
(lp2484
VGWFM#G
p2485
aVGWFM#U
p2486
asV.rocketlawyer.com
p2487
(lp2488
Vrl-shared-browser-id
p2489
asV.mtvnservices.com
p2490
(lp2491
Vvmn_uuid
p2492
asVprogressive.com
p2493
(lp2494
VSITESERVER
p2495
aVSITESERVER#ID
p2496
asVdelivery.razoradserver.com
p2497
(lp2498
VOAID
p2499
asVretailmenot.com
p2500
(lp2501
Vvisitor
p2502
aVuserQualifier
p2503
aVuserFlashVersion
p2504
aVdeviceFingerprint
p2505
asV.openstat.net
p2506
(lp2507
VVISID
p2508
asVaskville.amazon.com
p2509
(lp2510
Va009_askville
p2511
asVbeeg.com
p2512
(lp2513
Vuniqid
p2514
asV.thesun.pw
p2515
(lp2516
V__cfduid
p2517
asVlivingdirect.mkt6182.com
p2518
(lp2519
VVIEW
p2520
asV.cam.demdex.net
p2521
(lp2522
Vcam
p2523
asVshop.panasonic.com
p2524
(lp2525
Vdmid
p2526
asVtivo.com
p2527
(lp2528
V_klbdi
p2529
aVtivo_kn_is_prospect#__uh
p2530
asV.us.wa.ui-portal.com
p2531
(lp2532
Vwa
p2533
asVhf.enctoday.com
p2534
(lp2535
VCFTOKEN
p2536
asVwww.mccoyblossomfh.com
p2537
(lp2538
VCFTOKEN
p2539
aVCFID
p2540
asV.tenakerpetcare.com
p2541
(lp2542
Vuser_cart
p2543
asV.ph.affinity.com
p2544
(lp2545
VPHUU
p2546
asVads.agorafinancial.com
p2547
(lp2548
VOAID
p2549
asVtest.wiredminds.de
p2550
(lp2551
VCTCNTNM_2cd6063d5ee13df2
p2552
asV.eloqua.com
p2553
(lp2554
VELOQUA#GUID
p2555
aVELOQUA
p2556
asV.arccorp.com
p2557
(lp2558
VTLTUID
p2559
asVautopartswarehouse.com
p2560
(lp2561
VuserID
p2562
asV.cincinnatibell.net
p2563
(lp2564
Vsession
p2565
asVwww.rightmove.co.uk
p2566
(lp2567
Vrmmvpspo_138
p2568
aVrmmvpspo_988
p2569
asV.airbnb.ie
p2570
(lp2571
Vbev
p2572
asV.logly.co.jp
p2573
(lp2574
Vuid
p2575
asVwww.eteamz.com
p2576
(lp2577
VCFTOKEN
p2578
aVCFID
p2579
asV.sage.com
p2580
(lp2581
V__cfduid
p2582
asV.sitescout.com
p2583
(lp2584
Vssi
p2585
asVwww.waterworkspub.com
p2586
(lp2587
VCFTOKEN
p2588
asV.techtarget.com
p2589
(lp2590
Vbk
p2591
asVwww.property.ie
p2592
(lp2593
Vunique
p2594
asVgc.com
p2595
(lp2596
Vcsrftoken
p2597
asV.ipredictive.com
p2598
(lp2599
Vcu
p2600
asVbeacon.samsclub.com
p2601
(lp2602
Vbtc
p2603
asVcustomwerks.net
p2604
(lp2605
Vasi
p2606
asVpzd.rakuten.co.jp
p2607
(lp2608
VWMONID
p2609
asV.adready.com
p2610
(lp2611
Vcuid
p2612
asV.ftd.com
p2613
(lp2614
Vtrack_id
p2615
asV.stackoverflow.com
p2616
(lp2617
Vprov
p2618
asV.divasroom.com
p2619
(lp2620
V__cfduid
p2621
asVyellowpages.ny1.com
p2622
(lp2623
VmojopagesCookie#"VisitorUID
p2624
asV.sms-mmm.com
p2625
(lp2626
V__cfduid
p2627
asVads.undertone.com
p2628
(lp2629
VUTID
p2630
asV.msnbc.com
p2631
(lp2632
Vvid
p2633
asV.247realmedia.com
p2634
(lp2635
VOAX
p2636
asV.impact-ad.jp
p2637
(lp2638
Vtuuid
p2639
asV.statmoz.com
p2640
(lp2641
V__cfduid
p2642
asVcx.msn.com
p2643
(lp2644
VSRCHUID#GUID
p2645
aVSRCHUID
p2646
asVads.oddschecker.com
p2647
(lp2648
VOAID
p2649
asV.yahoo.net
p2650
(lp2651
Vtyrg1st
p2652
asV.barnesandnoble.com
p2653
(lp2654
Vuserid
p2655
asV.bigboysgonebananas.com
p2656
(lp2657
V__cfduid
p2658
asVtotalrewards.com
p2659
(lp2660
VTLTUID
p2661
asVl.qq.com
p2662
(lp2663
Vcm_cookie
p2664
aVappuser
p2665
aV_cm_id
p2666
asV.zulily.com
p2667
(lp2668
Vfrontend
p2669
asVad.mundialsportsnetworks.com
p2670
(lp2671
VAVPUID
p2672
asVwww.purplemath.com
p2673
(lp2674
VOAID
p2675
asVwww.shopsbt.com
p2676
(lp2677
Vmm5-s-basket-id
p2678
asV.coastergallery.com
p2679
(lp2680
Vvisid_incap_127936
p2681
asVwww.homes.co.jp
p2682
(lp2683
Veuid
p2684
asVcaesarsac.com
p2685
(lp2686
VTLTUID
p2687
asVdnpdmp.jp
p2688
(lp2689
Vuid
p2690
asV.moviebat.com
p2691
(lp2692
V__cfduid
p2693
asV.google.lt
p2694
(lp2695
VPREF#ID
p2696
aVPREF#U
p2697
asV.snapwidget.com
p2698
(lp2699
V__cfduid
p2700
asV.bullard.com
p2701
(lp2702
V__cfduid
p2703
asV.google.com.hk
p2704
(lp2705
VPREF#U
p2706
aVPREF#ID
p2707
asVturkishpersonals.com
p2708
(lp2709
Vcfid
p2710
asVwww.hughesnet.com
p2711
(lp2712
VCFTOKEN
p2713
asV.adnxs.com
p2714
(lp2715
Vanj#9
p2716
asVsensing.honeywell.com
p2717
(lp2718
VTEMP_MEM_UUID
p2719
asVezakus.net
p2720
(lp2721
VaisakosId
p2722
asVads.pointroll.com
p2723
(lp2724
VPRID
p2725
asVtownwork.net
p2726
(lp2727
Vvisitor_id2
p2728
asVwww.shopouaf.com
p2729
(lp2730
Vhtscallerid
p2731
asV.audienceiq.com
p2732
(lp2733
Vuid
p2734
asV.foolcdn.com
p2735
(lp2736
Vvisid_incap_148411
p2737
asVas2.autoforums.com
p2738
(lp2739
VOAID
p2740
asV.chatidcdn.com
p2741
(lp2742
V__cfduid
p2743
asVad.parachat.com
p2744
(lp2745
VOAID
p2746
asVwww.fishtanksdirect.com
p2747
(lp2748
VanonymousID
p2749
aVchkvalues
p2750
asVads.clrsrv.com
p2751
(lp2752
Vtuuid
p2753
asVmapquest.com
p2754
(lp2755
Vpsession
p2756
asVadult.similarsites.com
p2757
(lp2758
VUTGv2
p2759
asVtracking-lr.adsafety.net
p2760
(lp2761
Vtid
p2762
asVwww.necconnect.org
p2763
(lp2764
Vtpnid
p2765
asV.live.streamtheworld.com
p2766
(lp2767
Vuuid
p2768
asV.sundaysky.com
p2769
(lp2770
Vsskyu
p2771
asV.mythings.com
p2772
(lp2773
Vckid
p2774
asVgo.mobtrks.com
p2775
(lp2776
VOAID
p2777
asV.gridsumdissector.com
p2778
(lp2779
VGRIDSUMID
p2780
asV.411.com
p2781
(lp2782
Vwp_pid
p2783
asVevents.mysanantonio.com
p2784
(lp2785
Vwelcome
p2786
asVtunein.com
p2787
(lp2788
Vrtid
p2789
asVp.univide.com
p2790
(lp2791
Vuid
p2792
asV.predicta.net
p2793
(lp2794
Vpuid
p2795
asVdocstoc.com
p2796
(lp2797
Vmemguid.docstoc
p2798
asV.luckyorange.com
p2799
(lp2800
V__cfduid
p2801
asV.wearenotfoodies.com
p2802
(lp2803
V__cfduid
p2804
asVwww.seethisinaction.com
p2805
(lp2806
VAVPUID
p2807
asVvindicogroup.advertserve.com
p2808
(lp2809
VAVPUID
p2810
asV.tv.com
p2811
(lp2812
VXCLGFbrowser
p2813
asV.revsci.net
p2814
(lp2815
VNETID01
p2816
asV.fabswingers.com
p2817
(lp2818
Vvisid_incap_136910
p2819
asVbadges.instagram.com
p2820
(lp2821
Vmid
p2822
aVcsrftoken
p2823
asV.ticketmaster.com
p2824
(lp2825
VBID
p2826
asV.cheathappens.com
p2827
(lp2828
Vvisid_incap_60043
p2829
asV.valaffiliates.com
p2830
(lp2831
V__cfduid
p2832
asV.browardpalmbeach.com
p2833
(lp2834
VOAX
p2835
asV.merchenta.com
p2836
(lp2837
Vmerchenta
p2838
asVlonelyplanet.com
p2839
(lp2840
VlpUid
p2841
asVwww.berkley-fishing.com
p2842
(lp2843
Vdwanonymous_981a7f1a36d67a6e9669acbbc60bc120
p2844
asVwurfl.io
p2845
(lp2846
V_wiou
p2847
asVwww.dogpile.com
p2848
(lp2849
Vws_qt#uid
p2850
asV.corvetteonline.com
p2851
(lp2852
V__cfduid
p2853
asV.loopnet.com
p2854
(lp2855
VLNUniqueVisitor
p2856
asV.bgm.tv
p2857
(lp2858
V__cfduid
p2859
asV.optorb.com
p2860
(lp2861
Vxa#"u
p2862
aVxa
p2863
asVwww.nbts.edu
p2864
(lp2865
VCFTOKEN
p2866
asVwww.landsofamerica.com
p2867
(lp2868
VCFTOKEN
p2869
aVCFID
p2870
asV.adlux.com
p2871
(lp2872
VAdLuxUID
p2873
asVwww.bigotires.com
p2874
(lp2875
Vbigotires.comUQ2
p2876
asVhelp.netflix.com
p2877
(lp2878
VhcVisitorId
p2879
asV.mail.com
p2880
(lp2881
VcookieUUID
p2882
asV.emeraldcitygowns.com
p2883
(lp2884
Vss_cid
p2885
aVSS_MID
p2886
asV.speedtest.net
p2887
(lp2888
Vstnetsid
p2889
asVwww.sage.com
p2890
(lp2891
VSC_ANALYTICS_GLOBAL_COOKIE
p2892
asVwww.ncbcg.com
p2893
(lp2894
VvisitorId
p2895
asVprinceton-nj-2604.theupsstorelocal.com
p2896
(lp2897
VFWUniqueVisitor#FWUniqueVisitor
p2898
asV.msn.com
p2899
(lp2900
VMC1#GUID
p2901
aVMC1
p2902
aVOrigMUID
p2903
asV.cjairport-gy.com
p2904
(lp2905
VUUID
p2906
asV.furniturerow.com
p2907
(lp2908
V__cfduid
p2909
asV.mapquest.com
p2910
(lp2911
VUNAUTHID
p2912
asV.tbo.com
p2913
(lp2914
VOAX
p2915
asVwww.quill.com
p2916
(lp2917
VAnonID
p2918
aVb_fw#WebID
p2919
asVopenx.grantracing.com
p2920
(lp2921
VOAID
p2922
asV.gm.demdex.net
p2923
(lp2924
Vgm
p2925
asV.pcmag.com
p2926
(lp2927
Vzdbb
p2928
asV.autotrader.com
p2929
(lp2930
Vv1st
p2931
asVwww.lafayettecourtesy.com
p2932
(lp2933
VvisitorId
p2934
asV.videomega.tv
p2935
(lp2936
V__cfduid
p2937
asV.estara.com
p2938
(lp2939
Vfs_nocache_guid
p2940
asVengine.4chan-ads.org
p2941
(lp2942
Vazk
p2943
asVwww.hondapartsnow.com
p2944
(lp2945
VGuidCookie
p2946
aVGuidCookie#guid
p2947
asVrecs.richrelevance.com
p2948
(lp2949
Vuc
p2950
asV.crowneplaza.com
p2951
(lp2952
VTLTUID
p2953
asVwww.trivago.ie
p2954
(lp2955
Vtid
p2956
asV.hotels.com
p2957
(lp2958
Vguid
p2959
asVwww.columbiacvb.com
p2960
(lp2961
VCFTOKEN
p2962
asV.s2d6.com
p2963
(lp2964
Vdgm
p2965
asVget.it
p2966
(lp2967
Vbid
p2968
asVsecure.skyscanner.net
p2969
(lp2970
Vpreferences
p2971
asV.thisis50.com
p2972
(lp2973
Vxn_visitor
p2974
asV.7eer.net
p2975
(lp2976
Vbrwsr
p2977
asV.youtube.com
p2978
(lp2979
VVISITOR_INFO1_LIVE
p2980
asVwww.onebalharbourresort.com
p2981
(lp2982
VCFTOKEN
p2983
asV.facebook.com
p2984
(lp2985
Vdatr
p2986
asVwav.tv
p2987
(lp2988
VWAV_ID
p2989
asV.cnzz.com
p2990
(lp2991
Vcna
p2992
asV.brainyquote.com
p2993
(lp2994
V__cfduid
p2995
asV.foxnet.demdex.net
p2996
(lp2997
Vfoxnet
p2998
asV.gamezebo.com
p2999
(lp3000
V__cfduid
p3001
asV.collegedegree.com
p3002
(lp3003
V__cfduid
p3004
asV.cloudflare.com
p3005
(lp3006
V__cfduid
p3007
asV.ebay.com
p3008
(lp3009
Vlucky9
p3010
asVwww.mccoyblossomfunerals.com
p3011
(lp3012
VCFID
p3013
aVCFTOKEN
p3014
asV.mixi.jp
p3015
(lp3016
V_auid
p3017
asV.nationbuilder.com
p3018
(lp3019
V__cfduid
p3020
asV.charter.com
p3021
(lp3022
VPrefID
p3023
asVa.thoughtleadr.com
p3024
(lp3025
Vu
asV.handstogether.org
p3026
(lp3027
Vss_cid
p3028
aVSS_MID
p3029
asV.expedia.com.au
p3030
(lp3031
VMC1
p3032
aVMC1#GUID
p3033
asVinbox.com
p3034
(lp3035
V_SRCHU
p3036
asV.suzukikenichi.com
p3037
(lp3038
V__cfduid
p3039
asVwww.betfred.com
p3040
(lp3041
VSC_ANALYTICS_GLOBAL_COOKIE
p3042
asVwww.sebago.com
p3043
(lp3044
VRecommendations#CurrentID
p3045
asV.anitube.se
p3046
(lp3047
V__cfduid
p3048
asV.whoisentry.com
p3049
(lp3050
V__cfduid
p3051
asV.blogtalkradio.com
p3052
(lp3053
VBTRListenGUID
p3054
asV.yieldlab.net
p3055
(lp3056
Vid
p3057
asV.ents24.com
p3058
(lp3059
Vmediaid
p3060
asV.cafemom.demdex.net
p3061
(lp3062
Vcafemom
p3063
asV.okcupid.com
p3064
(lp3065
V__cfduid
p3066
asV.p-td.com
p3067
(lp3068
Vuid
p3069
asVmy.nanorep.com
p3070
(lp3071
Vu
asV.scripps.demdex.net
p3072
(lp3073
Vscripps
p3074
asVwww.niagara-usa.com
p3075
(lp3076
VCFTOKEN
p3077
asVashiato.travel.rakuten.co.jp
p3078
(lp3079
VWMONID
p3080
asVwww.travelrepublic.ie
p3081
(lp3082
VanonUserId
p3083
asVwww.jllproperty.com.cn
p3084
(lp3085
VJLL.PropertyV30FSIS
p3086
asV.casino.com
p3087
(lp3088
Vmts_guid
p3089
asVhelium.adextent.com
p3090
(lp3091
VUserID
p3092
asVprecisionrepro.net
p3093
(lp3094
VANONID832344
p3095
asV.reference.com
p3096
(lp3097
Vflyout
p3098
asVads.webvet.com
p3099
(lp3100
VOAID
p3101
asV.autopartswarehouse.com
p3102
(lp3103
V__cfduid
p3104
asVugrish.com
p3105
(lp3106
Vclid
p3107
asVesws.ebsco.com
p3108
(lp3109
VTLTUID
p3110
asVwww.goodreads.com
p3111
(lp3112
Vcsid
p3113
asV.r7ls.net
p3114
(lp3115
Vbrwsr
p3116
asV.fetchback.com
p3117
(lp3118
Vfbid
p3119
asV.big5sportinggoods.com
p3120
(lp3121
V__cfduid
p3122
asV.tagular.com
p3123
(lp3124
Vtgd
p3125
asV.affiliate.dmm.com
p3126
(lp3127
VAff_B
p3128
asVen-us.fluke.com
p3129
(lp3130
VvmSessionId
p3131
asV.kizu.org
p3132
(lp3133
V__cfduid
p3134
asV.vermontteddybear.com
p3135
(lp3136
V__cfduid
p3137
asVseatgeek.com
p3138
(lp3139
Vsg_uuid
p3140
aVsixpack_client_id
p3141
asVmyextremeresearch.com
p3142
(lp3143
Vtu
p3144
asVcomcast-spectacor.com
p3145
(lp3146
Vuuid230
p3147
asVe-planning.net
p3148
(lp3149
VE
asV.hqq.tv
p3150
(lp3151
V__cfduid
p3152
asV.nationwide.com
p3153
(lp3154
VTLTUID
p3155
asV.bidswitch.net
p3156
(lp3157
Vtuuid
p3158
asVadview.pl
p3159
(lp3160
VAdViewPlBann
p3161
asV.traditional-building.com
p3162
(lp3163
VOAX
p3164
asV.bizographics.com
p3165
(lp3166
VBizoID
p3167
asV.adscale.de
p3168
(lp3169
Vuu
p3170
asVcaesars.com
p3171
(lp3172
VTLTUID
p3173
asV.art.com
p3174
(lp3175
VPID
p3176
aVap#authtoken
p3177
asV.orbitz.com
p3178
(lp3179
Vanon
p3180
asVcostumesupercenter.com
p3181
(lp3182
VCPID
p3183
asV.expedia.ca
p3184
(lp3185
VMC1#GUID
p3186
asV.pinterest.com
p3187
(lp3188
Vcsrftoken
p3189
asV.thetoptens.com
p3190
(lp3191
V__cfduid
p3192
asVapi.adsnative.com
p3193
(lp3194
V_uuid
p3195
asVgo.padsdel.com
p3196
(lp3197
VGOAID
p3198
aVOAID
p3199
asVwww.tracking.callmeasurement.com
p3200
(lp3201
VCFID
p3202
asVwww.zimbio.com
p3203
(lp3204
Vpzs
p3205
asV.msft.demdex.net
p3206
(lp3207
Vmsft
p3208
asV.hotelindigo.com
p3209
(lp3210
VTLTUID
p3211
asV.target.com
p3212
(lp3213
VTealeafAkaUID
p3214
asVwww.ecommercebytes.com
p3215
(lp3216
VOAID
p3217
asVwww.houzz.com
p3218
(lp3219
Vv
asV.btttag.com
p3220
(lp3221
V__cfduid
p3222
asV.livejasmin.com
p3223
(lp3224
VtppId
p3225
asVwww.ecklerscorvette.com
p3226
(lp3227
Vfrontend
p3228
asV.twc.demdex.net
p3229
(lp3230
Vtwc
p3231
asVwww.fabswingers.com
p3232
(lp3233
Vtc#g
p3234
asVwww.igfn.com
p3235
(lp3236
Vpoll_uuid
p3237
asV.wwwpromoter.com
p3238
(lp3239
V__cfduid
p3240
asV.distilled.ie
p3241
(lp3242
V__cfduid
p3243
asV.prcm.jp
p3244
(lp3245
Vguid
p3246
asVrockyou.com
p3247
(lp3248
V_ryb
p3249
asVgiancario.biz
p3250
(lp3251
Vtu
p3252
asV.ycombinator.com
p3253
(lp3254
V__cfduid
p3255
asV.medibaad.com
p3256
(lp3257
VMNS_u
p3258
aVDQUID
p3259
asVmirror.co.uk
p3260
(lp3261
VanonId
p3262
asV.cityofboston.gov
p3263
(lp3264
Vvisid_incap_14029
p3265
asV.hlserve.com
p3266
(lp3267
VhmGUID
p3268
asV.pipl.com
p3269
(lp3270
Vcsrftoken
p3271
asVwww.udr.com
p3272
(lp3273
VEktGUID
p3274
asVwww.southeasternhonda.com
p3275
(lp3276
VvisitorId
p3277
asV.veromi.com
p3278
(lp3279
V__cfduid
p3280
asV.bandpage.com
p3281
(lp3282
Vbp_f
p3283
asVwesleymc.com
p3284
(lp3285
Vdmid
p3286
asV.eventful.com
p3287
(lp3288
Vpuid
p3289
asVwww.pier1.com
p3290
(lp3291
Vdwanonymous_2d5ea9ecc35c69389a2b8033960c4fd0
p3292
asV.eqads.com
p3293
(lp3294
VEQUser#UID
p3295
aVEQUser
p3296
asV.google.nl
p3297
(lp3298
VPREF#ID
p3299
aVPREF#S
p3300
asVseethisinaction.com
p3301
(lp3302
VAVPUID
p3303
asVmotortrend.com
p3304
(lp3305
VUserPuid
p3306
asVprezi.com
p3307
(lp3308
Vcsrftoken
p3309
asVwww.50states.com
p3310
(lp3311
Vuuid
p3312
asVbooks.wwnorton.com
p3313
(lp3314
VEktGUID
p3315
asV.ad.auditude.com
p3316
(lp3317
VUID
p3318
asV.adbuyer.com
p3319
(lp3320
VRTBGoogleID#CookieId
p3321
aVUID#CookieId
p3322
aVRTBGoogleID
p3323
aVRTBAppNexusID#CookieId
p3324
aVUID
p3325
aVRTBAppNexusID
p3326
asV.discovercard.com
p3327
(lp3328
Vv1st
p3329
asV.google.co.jp
p3330
(lp3331
VPREF#U
p3332
aVPREF#ID
p3333
asV.ahtrk.com
p3334
(lp3335
Vtrk
p3336
asV.pointroll.com
p3337
(lp3338
VPRbu
p3339
asVdewalt.com
p3340
(lp3341
VanonId
p3342
asVshop.wwe.com
p3343
(lp3344
Vdwanonymous_9c6b8d0e3fdb5fbf94b735ef79e6d9e4
p3345
asVd.peoplesearchads.com
p3346
(lp3347
VOAID
p3348
asV.lanebryant.com
p3349
(lp3350
VPIPELINE_SESSION_ID
p3351
asVtimeinc.trc.taboola.com
p3352
(lp3353
Vtaboola_user_id
p3354
asVwww.buyma.com
p3355
(lp3356
V_bom4g50s_7
p3357
asVhomes.com
p3358
(lp3359
VHCUSER
p3360
asVask.frynge.com
p3361
(lp3362
Vid
p3363
asVfarfetch.com
p3364
(lp3365
VInstanceId
p3366
aVSessionID
p3367
aVBIcookieID
p3368
asV.autoblog.com
p3369
(lp3370
VUNAUTHID
p3371
asV.monster.com
p3372
(lp3373
Vv1st
p3374
aVPrefID
p3375
asV.streetlegaltv.com
p3376
(lp3377
V__cfduid
p3378
asVmatch.rundsp.com
p3379
(lp3380
VRUN_ID
p3381
asV.musicthinktank.com
p3382
(lp3383
Vss_cid
p3384
asVtrczr.widengle.com
p3385
(lp3386
V_wl
p3387
asVwww.vrbo.com
p3388
(lp3389
VVrboVisitorId
p3390
aVVrboVisitorId#vid
p3391
asV.wikiwiki.jp
p3392
(lp3393
V__cfduid
p3394
asV.crowdscience.com
p3395
(lp3396
V__csmv
p3397
aV__csv
p3398
asV.webcindario.com
p3399
(lp3400
V__muid
p3401
asVmookie.listenernetwork.com
p3402
(lp3403
Vsmc
p3404
aVmc
p3405
asV.c3tag.com
p3406
(lp3407
VC3UID-614
p3408
asVeventful.com
p3409
(lp3410
Vstsess
p3411
asV.aol.com
p3412
(lp3413
VUNAUTHID
p3414
asV.avis.com
p3415
(lp3416
VPrefID
p3417
asVwurfljs.com
p3418
(lp3419
V_wiou
p3420
asVbrewsterschools.org
p3421
(lp3422
VANONID293002
p3423
asV.marthastewart.demdex.net
p3424
(lp3425
Vmarthastewart
p3426
asVlistrakbi.com
p3427
(lp3428
Vscasid-100021
p3429
aVscasid-358948
p3430
aVscasid-156395
p3431
aVscasid-834349
p3432
aVscasid-100005
p3433
aVscasid-969649
p3434
asV.tinypass.com
p3435
(lp3436
V__cfduid
p3437
asV.allposters.com
p3438
(lp3439
VCID
p3440
aVPID
p3441
asV.chevyhardcore.com
p3442
(lp3443
V__cfduid
p3444
asV.verticalscope.com
p3445
(lp3446
Vhalid
p3447
asV.criteo.com
p3448
(lp3449
Vuid
p3450
asV.ojrq.net
p3451
(lp3452
Vbrwsr
p3453
asV.wix.com
p3454
(lp3455
Vvisid_incap_133961
p3456
aV_wixCIDX
p3457
asV.uhs-hints.com
p3458
(lp3459
VOAID
p3460
asV.amxdt.com
p3461
(lp3462
Vamid
p3463
asVwww2.music-tags.com
p3464
(lp3465
VOAID
p3466
asVshop.avon.com
p3467
(lp3468
Vshoppermanager#shopperid
p3469
asV.odesk.com
p3470
(lp3471
V__cfduid
p3472
asVimpact-ad.jp
p3473
(lp3474
Vtuuid
p3475
asV.irishcentral.com
p3476
(lp3477
VOAX
p3478
asV.policeone.com
p3479
(lp3480
Vvisid_incap_98754
p3481
asV.rantlifestyle.com
p3482
(lp3483
Vvisid_incap_104771
p3484
asV.ticketmaster.ie
p3485
(lp3486
VBID
p3487
asV.mandatory.com
p3488
(lp3489
VUNAUTHID
p3490
asV.vizu.com
p3491
(lp3492
VVZ_anonID
p3493
asVr1.literotica.com
p3494
(lp3495
VOAID
p3496
asV.akc.org
p3497
(lp3498
VOAX
p3499
asV.inbox.lv
p3500
(lp3501
VbxID
p3502
asV.inboxdollars.com
p3503
(lp3504
Vvisid_incap_76642
p3505
asVcount.rbc.ru
p3506
(lp3507
VUID
p3508
asVwww.travelalaska.com
p3509
(lp3510
VSC_ANALYTICS_GLOBAL_COOKIE
p3511
asVwww.mmacreative.com
p3512
(lp3513
VOAID
p3514
asV.bestbuy.com
p3515
(lp3516
VUID
p3517
asV.mookie1.com
p3518
(lp3519
VOAX
p3520
asVads.optimise.net
p3521
(lp3522
VOAID
p3523
asV.ctnsnet.com
p3524
(lp3525
Vcid
p3526
asVfreewheelbike.com
p3527
(lp3528
VCUSTINFO
p3529
asVanalytics.spongecell.com
p3530
(lp3531
Vspongekey
p3532
asV.2-spyware.com
p3533
(lp3534
V__cfduid
p3535
asV.google.com.br
p3536
(lp3537
VPREF#ID
p3538
aVPREF#U
p3539
asVevents.webflowmetrics.com
p3540
(lp3541
Vuserid
p3542
asV.jtb.co.jp
p3543
(lp3544
VANALYS#AnalysisNo
p3545
asVfp.tellapart.com
p3546
(lp3547
V__fpid
p3548
asV.google.it
p3549
(lp3550
VPREF#ID
p3551
aVPREF#U
p3552
asV.google.ie
p3553
(lp3554
VPREF#U
p3555
aVPREF#ID
p3556
asVstore.usgs.gov
p3557
(lp3558
VTLTUID
p3559
asVwww.southshorehospital.org
p3560
(lp3561
VCFID
p3562
asV.s.thebrighttag.com
p3563
(lp3564
Vbtv3.qw8KooS
p3565
aVbt3
p3566
aVbtv3.bs
p3567
asVwww.revolveclothing.com
p3568
(lp3569
Valttesting
p3570
asVwww.sleeptrain.com
p3571
(lp3572
Vdwanonymous_117557774ea57332679d745b963fb2da
p3573
asV.houseoftatouage.com
p3574
(lp3575
Vezstida
p3576
asV.bandcamp.com
p3577
(lp3578
Vclient_id
p3579
asV.expedia.co.uk
p3580
(lp3581
VMC1#GUID
p3582
aVMC1
p3583
asV.chicos.com
p3584
(lp3585
VPrefID
p3586
asV.palms.com
p3587
(lp3588
V__cfduid
p3589
asV.local.yahoo.com
p3590
(lp3591
VYLDetails#lcscb
p3592
asV.ias.rakuten.co.jp
p3593
(lp3594
Vdispcid
p3595
asV.recruitics.com
p3596
(lp3597
V_RCRTX02_SESSION
p3598
asV.yourjavascript.com
p3599
(lp3600
V__cfduid
p3601
asVwww.batsunlimited.com
p3602
(lp3603
VanonymousID
p3604
aVchkvalues
p3605
asVwww.suckmydick.com
p3606
(lp3607
VpID
p3608
asV.kulfoto.com
p3609
(lp3610
V__cfduid
p3611
asV.amazon.co.uk
p3612
(lp3613
Vx-wl-uid
p3614
aVsession-id
p3615
aVubid-acbuk
p3616
asV.colombiainternational.co
p3617
(lp3618
V__cfduid
p3619
asVwww.fly.com
p3620
(lp3621
VosVisitor
p3622
asV.nifty.com
p3623
(lp3624
VPUSER
p3625
asV.universalmusic.com
p3626
(lp3627
Vvisid_incap_112006
p3628
asV.renatabenj.in
p3629
(lp3630
V__cfduid
p3631
asVwww.outwatercatalogs.com
p3632
(lp3633
VCFTOKEN
p3634
asV.harveynorman.ie
p3635
(lp3636
Vvisid_incap_39855
p3637
asVwww.ninewest.com
p3638
(lp3639
Vdwanonymous_f4bc0dad60ecc7437100d3c4fa0a2f38
p3640
asV.flyfrontier.com
p3641
(lp3642
VTLTUID
p3643
asVwww.comodo.com
p3644
(lp3645
Vsha
p3646
asV.5min.com
p3647
(lp3648
Vstorage_uuid
p3649
asVthecovemovie.com
p3650
(lp3651
VANONID40333
p3652
asVtrack.hubrus.com
p3653
(lp3654
Vtuuid
p3655
asV.x.oanda.com
p3656
(lp3657
Vopc_id
p3658
aVopc
p3659
asV.mycountdown.org
p3660
(lp3661
V__cfduid
p3662
asV.mtvn.demdex.net
p3663
(lp3664
Vmtvn
p3665
asV.cbsi.demdex.net
p3666
(lp3667
Vcbsi
p3668
asV.diaryofahollywoodstreetking.com
p3669
(lp3670
V__cfduid
p3671
asV.reserveamerica.com
p3672
(lp3673
V_rauv_
p3674
asVgumtree.com
p3675
(lp3676
Vgt_p
p3677
asVwww.buybuybaby.com
p3678
(lp3679
VTLTUID
p3680
asV.kidsafeseal.com
p3681
(lp3682
V__cfduid
p3683
asV.wellsfargo.com
p3684
(lp3685
Vv1st
p3686
asVdollartree.com
p3687
(lp3688
VPIPELINE_SESSION_ID
p3689
asVsportsmangement.com
p3690
(lp3691
Vclid
p3692
asV.intentiq.com
p3693
(lp3694
VintentIQ
p3695
asV.genealogy.com
p3696
(lp3697
VSessionID
p3698
asV.usairways.com
p3699
(lp3700
VTLTUID
p3701
asV.bet.demdex.net
p3702
(lp3703
Vbet
p3704
asVretire.massmutual.com
p3705
(lp3706
VSC_ANALYTICS_GLOBAL_COOKIE
p3707
asV.winefolly.com
p3708
(lp3709
V__cfduid
p3710
asV.mbusa.com
p3711
(lp3712
VMBUSA_UUID
p3713
asV.sacbeelabs.com
p3714
(lp3715
Vsbapi-cid
p3716
asV.skooprsites.com
p3717
(lp3718
V__cfduid
p3719
asV.google.co.in
p3720
(lp3721
VPREF#U
p3722
aVPREF#ID
p3723
asV.ning.com
p3724
(lp3725
Vxn_visitor
p3726
asV.vimeo.com
p3727
(lp3728
Vvuid
p3729
asV.securedvisit.com
p3730
(lp3731
Vsv_sid
p3732
asV.rakuten.co.jp
p3733
(lp3734
VRp
p3735
aVRt
p3736
asVx.fidelity-media.com
p3737
(lp3738
VOAID
p3739
asVwww.lasvegas.com
p3740
(lp3741
VCFTOKEN
p3742
asV.hoobly.com
p3743
(lp3744
Vm
asVw.ahalogy.com
p3745
(lp3746
Va
asV.mathtag.com
p3747
(lp3748
Vuuid
p3749
asV.rubiconproject.com
p3750
(lp3751
Vput_1430
p3752
aVput_2238
p3753
aVput_2132
p3754
aVput_2025
p3755
aVput_2260
p3756
asV.ihg.com
p3757
(lp3758
VTLTUID
p3759
asVpd0.imp.revsci.net
p3760
(lp3761
Vperma_cookie
p3762
asV.aa.com
p3763
(lp3764
Vv1st
p3765
asV.cdxcf.info
p3766
(lp3767
V__cfduid
p3768
asV.sulekha.com
p3769
(lp3770
Vsulypbuck
p3771
aVsulusrtrack
p3772
asVia.nspmotion.com
p3773
(lp3774
Vadscol#uid
p3775
asVwww.hopkinsmedicine.org
p3776
(lp3777
VCFTOKEN
p3778
asVinstagram.com
p3779
(lp3780
Vcsrftoken
p3781
aVmid
p3782
asV.ebengregory.com
p3783
(lp3784
V__cfduid
p3785
asVwww.nadaguides.com
p3786
(lp3787
Vuserid
p3788
asV.lavasoft.com
p3789
(lp3790
V1587#clientID
p3791
aV1587#umID
p3792
asV.gs-cdn.net
p3793
(lp3794
V__cfduid
p3795
asVmygpuid.com
p3796
(lp3797
VOAID
p3798
aVd_rtrgt2_com
p3799
aVd_go_padsdel_com
p3800
aVd_rtbpop_com
p3801
aVd_ad_propellerads_com
p3802
aVd_onclickads_net
p3803
asV.broadwayworld.com
p3804
(lp3805
V__cfduid
p3806
asV.yatra.com
p3807
(lp3808
Vyt_tracking
p3809
asVsokmil.com
p3810
(lp3811
VAFURO1
p3812
aVCASL2
p3813
asVwww.lifeisgood.com
p3814
(lp3815
Vdwanonymous_b75e31ed1c9b60b9e7f6fa83d478455b
p3816
asV.marca.com
p3817
(lp3818
VMARCA_idusr
p3819
asVwww.store-mix.com
p3820
(lp3821
Vstore-mix_Cookie
p3822
asVwww.princetonkids.com
p3823
(lp3824
Vcfid
p3825
asVagency.thesinglesnetwork.com
p3826
(lp3827
VOAID
p3828
asVcomcast.com
p3829
(lp3830
VPSC#UCID
p3831
asVwww.retirenet.com
p3832
(lp3833
Vsid
p3834
asV.steelhousemedia.com
p3835
(lp3836
Vguid
p3837
asVbeacon.stage.walmart.com
p3838
(lp3839
Vbtc
p3840
asV.onet.pl
p3841
(lp3842
Vonet_cid
p3843
asV.likes.com
p3844
(lp3845
V__cfduid
p3846
asVgwallet.com
p3847
(lp3848
Vra1_uid
p3849
asV.staybridge.com
p3850
(lp3851
VTLTUID
p3852
asV.alibaba.com
p3853
(lp3854
Vcna
p3855
asV.multiarray.com
p3856
(lp3857
V__cfduid
p3858
asV.sonicgames.cc
p3859
(lp3860
V__cfduid
p3861
asVwww.klove.com
p3862
(lp3863
VEktGUID
p3864
asVwww.hoursmap.com
p3865
(lp3866
VMT_SESS
p3867
asVupclick.com
p3868
(lp3869
VumID#clientID
p3870
aVumID
p3871
asV.rienzie.com
p3872
(lp3873
V__cfduid
p3874
asV.zdbb.net
p3875
(lp3876
Vzdbb
p3877
asV.sierraclub.org
p3878
(lp3879
Vvisid_incap_44601
p3880
asV.jacuadpu1403.demdex.net
p3881
(lp3882
Vjacuadpu1403
p3883
asVspeedshiftmedia.com
p3884
(lp3885
VSSM_PM5K
p3886
asV.im.altervista.org
p3887
(lp3888
V__cfduid
p3889
asVwww.panynj.gov
p3890
(lp3891
VCFTOKEN
p3892
asV.oodle.com
p3893
(lp3894
Votu
p3895
aVosid
p3896
asVwww.movies.com
p3897
(lp3898
VEndecaSessionId
p3899
asV.statcounter.com
p3900
(lp3901
V__cfduid
p3902
asVi-mobile.co.jp
p3903
(lp3904
Vxid
p3905
asVwww.thompsonvw.net
p3906
(lp3907
VvisitorId
p3908
asVwww.hccc.edu
p3909
(lp3910
VEktGUID
p3911
asVwww.glassdoor.com
p3912
(lp3913
VgdId
p3914
asVwww.cashbackforex.com
p3915
(lp3916
V.ASPXANONYMOUS
p3917
asV.geekstogo.com
p3918
(lp3919
V__cfduid
p3920
asV.autotrader.co.uk
p3921
(lp3922
Vuser#ID
p3923
aVuserid
p3924
aVuser
p3925
aVuser#HASH
p3926
aVuserid#ID
p3927
asVnsg.symantec.com
p3928
(lp3929
VbuySAFE#UniqueID
p3930
aVbuySAFE
p3931
asVwww.publix.com
p3932
(lp3933
VGROCERY_LIST_ID
p3934
asVwww.visitmyrtlebeach.com
p3935
(lp3936
VCFTOKEN
p3937
aVCFID
p3938
asV.docstoc.com
p3939
(lp3940
Vuser_guid
p3941
asVwww.hbdirect.com
p3942
(lp3943
Vsession
p3944
asVgmodmp.jp
p3945
(lp3946
Vuid
p3947
asV.contextweb.com
p3948
(lp3949
VV
asV.btr.demdex.net
p3950
(lp3951
Vbtr
p3952
asV.www.iconarchive.com
p3953
(lp3954
Vpid
p3955
asVwww.asiandating.com
p3956
(lp3957
VCFID
p3958
asV.capecodonline.com
p3959
(lp3960
VOAX
p3961
asVib.mookie1.com
p3962
(lp3963
Vibkukiuno#s
p3964
asVchaturbate.com
p3965
(lp3966
Vcsrftoken
p3967
asV.922510376.log.optimizely.com
p3968
(lp3969
Vend_user_id
p3970
asVjsrdn.com
p3971
(lp3972
Vu
asV.nfl.demdex.net
p3973
(lp3974
Vnfl
p3975
asVtrack.nextuser.com
p3976
(lp3977
V_nutm_mc
p3978
asV.justonecookbook.com
p3979
(lp3980
V__cfduid
p3981
asV.intencysrv.com
p3982
(lp3983
Vtuuid
p3984
asVwww.flora2000.com
p3985
(lp3986
Vns_visitor
p3987
asVfreshplum.com
p3988
(lp3989
V__fpid
p3990
asVwww.coldwatercreek.com
p3991
(lp3992
VCWCState#cartUid
p3993
aVCWCState#customerUid
p3994
aVCWCState#machineUid
p3995
asVwww.evite.com
p3996
(lp3997
Vcsrftoken
p3998
asVwww.niagarafallsusa.org
p3999
(lp4000
VCFTOKEN
p4001
asV.bankofamerica.com
p4002
(lp4003
VBOA_0020
p4004
aVTLTUID
p4005
asV.singleparentmeet.com
p4006
(lp4007
VUMID
p4008
asVc.getsmartcontent.com
p4009
(lp4010
Vgsci
p4011
asV7search.com
p4012
(lp4013
VSurferID
p4014
asVinfolinks.com
p4015
(lp4016
Vcuid
p4017
asVwww.livingdirect.com
p4018
(lp4019
Vdwanonymous_3eaff55cc4c4a1dc8ac98888b5e927f3
p4020
asV.bakedbree.com
p4021
(lp4022
V__cfduid
p4023
asV.wtp101.com
p4024
(lp4025
Vtuuid
p4026
asV.verizon.com
p4027
(lp4028
Vsession
p4029
asV.txu.demdex.net
p4030
(lp4031
Vtxu
p4032
asV.www.jstor.org
p4033
(lp4034
VMAID
p4035
asV.lorealusa.com
p4036
(lp4037
VUserAuthentication#user_id
p4038
asV.amazon.co.jp
p4039
(lp4040
Vsession-id
p4041
aVx-wl-uid
p4042
asV.keywordspy.com
p4043
(lp4044
VPREF#CS
p4045
asV.statefarm.com
p4046
(lp4047
Vsfuid
p4048
asV.last.fm
p4049
(lp4050
VAnonSession
p4051
aVAnonTrack
p4052
asV.quicken.demdex.net
p4053
(lp4054
Vquicken
p4055
asV.server.cpmstar.com
p4056
(lp4057
VUSER_ID
p4058
asVwww.tv.com
p4059
(lp4060
Vcsrftoken
p4061
asV.whisk.com
p4062
(lp4063
V__cfduid
p4064
asVblackboard.westerntc.edu
p4065
(lp4066
Vs_session_id
p4067
aVsession_id
p4068
asVsocial.microsoft.com
p4069
(lp4070
V.ASPXANONYMOUS
p4071
asV.zedo.com
p4072
(lp4073
VFFIDA
p4074
asV.stagram.com
p4075
(lp4076
V__cfduid
p4077
asVrtbpop.com
p4078
(lp4079
VOAID
p4080
aVGOAID
p4081
asVt23.intelliad.de
p4082
(lp4083
Viact
p4084
asV.toutapp.com
p4085
(lp4086
Vlinker_guid
p4087
asV.estore.jp
p4088
(lp4089
VuniqID
p4090
asV.anandtech.com
p4091
(lp4092
Vatusessionw
p4093
asV.cookiesandcups.com
p4094
(lp4095
V__cfduid
p4096
asV.games.com
p4097
(lp4098
VUNAUTHID
p4099
asV.marketwatch.com
p4100
(lp4101
Vkayla
p4102
aVkayla#g
p4103
asV.webstat.com
p4104
(lp4105
VwebStat_53445_mv
p4106
aVwebStat_53445
p4107
aVwebStat_60926_mv
p4108
aVwebStat_60926
p4109
asVs.m2pub.com
p4110
(lp4111
Vtuuid
p4112
asV.7544042.log.optimizely.com
p4113
(lp4114
Vbucket_map
p4115
asV.ancestry.ca
p4116
(lp4117
VANCUUID
p4118
asVgigazine.asia
p4119
(lp4120
VOAID
p4121
asV.viziofanzone.com
p4122
(lp4123
Vcttg
p4124
asVurbanext.illinois.edu
p4125
(lp4126
Vcfid
p4127
asVwww.hotwire.com
p4128
(lp4129
VSaneID
p4130
asV.globo.demdex.net
p4131
(lp4132
Vglobo
p4133
asV.internet.org
p4134
(lp4135
Vdatr
p4136
asVwww.manta.com
p4137
(lp4138
Vcust_id
p4139
asVca-as-1.agilone.com
p4140
(lp4141
VOAID
p4142
asV.elicitapp.com
p4143
(lp4144
Vuser_id
p4145
asV.squarespace.com
p4146
(lp4147
Vss_cid
p4148
aVSS_MID
p4149
asV.neopets.com
p4150
(lp4151
Vnp_randseed
p4152
asVwww.verizon.com
p4153
(lp4154
VPDSS
p4155
aVPDSS#PflowId
p4156
asVinnovid.com
p4157
(lp4158
Vuuid
p4159
asV.fool.com
p4160
(lp4161
Vv1st
p4162
aVVisitor#visitor
p4163
aVTookie#T
p4164
aVvisid_incap_92453
p4165
asVwww.forexrazor.com
p4166
(lp4167
V.ASPXANONYMOUS
p4168
asV.tremorhub.com
p4169
(lp4170
Vtv_UIGL
p4171
aVtvid
p4172
aVtv_UIRF
p4173
asV.croscill.com
p4174
(lp4175
V__cfduid
p4176
asV.agkn.com
p4177
(lp4178
Vuuid
p4179
asV.walmart.com
p4180
(lp4181
Vcom.wm.anoncart
p4182
asV.lorealparisusa.com
p4183
(lp4184
VUserAuthentication#user_id
p4185
asV.google.com
p4186
(lp4187
VPREF#ID
p4188
aVPREF#U
p4189
asVstrikead.com
p4190
(lp4191
Vtrack-user
p4192
asV.postmedia.demdex.net
p4193
(lp4194
Vpostmedia
p4195
asV.collserve.com
p4196
(lp4197
VcollserveMD
p4198
asVanalyzer.dtiblog.com
p4199
(lp4200
Vvid
p4201
asVhere.com
p4202
(lp4203
VNLP.PP
p4204
asV.mingle2.com
p4205
(lp4206
V__cfduid
p4207
asVwww.lyst.com
p4208
(lp4209
Vanalytics
p4210
aVcsrftoken
p4211
asV.bleepingcomputer.com
p4212
(lp4213
V__cfduid
p4214
asVfastapi.net
p4215
(lp4216
Vdsp
p4217
aVcid
p4218
asV.watch32.com
p4219
(lp4220
V__cfduid
p4221
asV.adsbro.com
p4222
(lp4223
Vuskt
p4224
asV.legolas-media.com
p4225
(lp4226
Vui
p4227
asV.betfair.com
p4228
(lp4229
Vvid
p4230
asV.farecompare.com
p4231
(lp4232
VOAX
p4233
asV.genius.com
p4234
(lp4235
V__cfduid
p4236
asVlifeway.com
p4237
(lp4238
Vguid2
p4239
asV.pingdom.net
p4240
(lp4241
V__cfduid
p4242
asV.agardenforthehouse.com
p4243
(lp4244
V__cfduid
p4245
asV.pnc.com
p4246
(lp4247
VPrefID
p4248
asVox-d.blogtalkradio.com
p4249
(lp4250
VOX_u
p4251
asV.imdb.com
p4252
(lp4253
Vsession-id
p4254
asV.chow.com
p4255
(lp4256
VXCLGFbrowser
p4257
asVwww.gardeners.com
p4258
(lp4259
Vdwanonymous_bb9b4d219452d60e712f0b903cecd46e
p4260
asV.rushcard.com
p4261
(lp4262
VDeviceBrowserId
p4263
asVwsc1.webspectator.com
p4264
(lp4265
V___ws_gid
p4266
asV.waplog.net
p4267
(lp4268
Vwaplog
p4269
asVwww.catsrule.com
p4270
(lp4271
Vchkvalues
p4272
aVanonymousID
p4273
asV.capitalone.com
p4274
(lp4275
Vv1st
p4276
aVTLTUID
p4277
asV.adventureaquarium.com
p4278
(lp4279
Vvisid_incap_27315
p4280
asVwww.collectionsetc.com
p4281
(lp4282
VUserSegmentationIdID
p4283
asVwww.gameofficials.net
p4284
(lp4285
VCFTOKEN
p4286
asV.qvc.com
p4287
(lp4288
VPrefID
p4289
asVtvguide.com
p4290
(lp4291
VTVGID
p4292
asV.amazon.com
p4293
(lp4294
Vx-wl-uid
p4295
asV.whowhere.com
p4296
(lp4297
VwwReal
p4298
aVdiktfc
p4299
asV.food52.com
p4300
(lp4301
V__cfduid
p4302
asVa.intentmedia.net
p4303
(lp4304
Vintentmedia_user_id
p4305
asV.janefonda.com
p4306
(lp4307
V__cfduid
p4308
asVadserver2.exgfnetwork.com
p4309
(lp4310
VOAID
p4311
asVnetwork.bazaarvoice.com
p4312
(lp4313
VBVID
p4314
asVgigya.com
p4315
(lp4316
Vucid
p4317
asV.cheezburger.com
p4318
(lp4319
VCheezySplits#SplitTestingPID
p4320
asVc.ic.com.au
p4321
(lp4322
VOAID
p4323
asV.rfihub.com
p4324
(lp4325
Va2
p4326
aVa5
p4327
aVa1
p4328
aVo
aVa8
p4329
aVa11
p4330
aVa7
p4331
aVa
asV.world-airport-codes.com
p4332
(lp4333
V__cfduid
p4334
asV.katproxy.com
p4335
(lp4336
V__cfduid
p4337
asV.health.harvard.edu
p4338
(lp4339
Vvi
p4340
asV.plumdistrict.com
p4341
(lp4342
Vbrwsr
p4343
asV.carmax.com
p4344
(lp4345
VKmxVisitor_0#VisitorID
p4346
aVPrefID
p4347
asVspiceworks.com
p4348
(lp4349
V_swnid
p4350
asV.armyprt.com
p4351
(lp4352
V__cfduid
p4353
asV.websudoku.com
p4354
(lp4355
Vseed
p4356
asVad.360yield.com
p4357
(lp4358
Vtuuid
p4359
asVproduct.reflektion.com
p4360
(lp4361
Vanonymous_uid
p4362
asV.mybuys.com
p4363
(lp4364
Vmbd
p4365
aVmbc
p4366
asVadtechus.com
p4367
(lp4368
VccID
p4369
asV.openx.net
p4370
(lp4371
Vi
asVjobs.ie
p4372
(lp4373
Vavid
p4374
asV.typepad.com
p4375
(lp4376
V__cfduid
p4377
asVhm.baidu.com
p4378
(lp4379
VHMACCOUNT
p4380
asVwww.njcu.edu
p4381
(lp4382
VEktGUID
p4383
asV.canadaalltax.com
p4384
(lp4385
V__cfduid
p4386
asVwww.no5.com.cn
p4387
(lp4388
Vguest#sign
p4389
asVashleyrnadison.com
p4390
(lp4391
Vamvid
p4392
asV.newgrounds.com
p4393
(lp4394
V__cfduid
p4395
asV.cnet.com
p4396
(lp4397
VXCLGFbrowser
p4398
asVww.spycheats.com
p4399
(lp4400
Vclid
p4401
asVwww.lifedynamics.com
p4402
(lp4403
VCFTOKEN
p4404
asVdynamic1.anandtech.com
p4405
(lp4406
VOAID
p4407
asVdemandmedia.trc.taboola.com
p4408
(lp4409
Vtaboola_user_id
p4410
asVmedia.wayfair.com
p4411
(lp4412
VOAID
p4413
asV.adpredictive.com
p4414
(lp4415
Vaml_uid
p4416
asVpool.adizio.com
p4417
(lp4418
Vtuuid
p4419
asVwww.boxtops4education.com
p4420
(lp4421
VSC_ANALYTICS_GLOBAL_COOKIE
p4422
asVengine.fl-ads.com
p4423
(lp4424
Vazk
p4425
asV.hsn.com
p4426
(lp4427
V.P
p4428
aVTLTUID
p4429
asV.ranker.com
p4430
(lp4431
VRS
p4432
asVswfa.com
p4433
(lp4434
VSWFA.ID
p4435
asV.answersingenesis.org
p4436
(lp4437
V__cfduid
p4438
asV.cheatcodes.com
p4439
(lp4440
V__cfduid
p4441
asV.naturalhealth365.com
p4442
(lp4443
V__cfduid
p4444
asVadapf.com
p4445
(lp4446
Vuid
p4447
asVmodels.com
p4448
(lp4449
Vcfid
p4450
asVwww.skyscanner.com
p4451
(lp4452
Vssinitacq
p4453
aVsstrack
p4454
aVacq
p4455
aVpreferences
p4456
asVact.pbs.org
p4457
(lp4458
VELOQUA#GUID
p4459
aVELOQUA
p4460
asV.daysinn.com
p4461
(lp4462
VTLTUID
p4463
asVads.parkingpath.com
p4464
(lp4465
VOAID
p4466
asV.hespress.com
p4467
(lp4468
V__cfduid
p4469
asV.patch.com
p4470
(lp4471
VUNAUTHID
p4472
aVPAUTH
p4473
asV.burstnet.com
p4474
(lp4475
VBI80058
p4476
aVBI76131
p4477
aVBI77335
p4478
aVBI80059
p4479
aVBI80654
p4480
aVBI79962
p4481
aVBI80319
p4482
aVBI77912
p4483
aVBI79281
p4484
aVBI77161
p4485
aVBI75565
p4486
asV.tripadvisor.co.uk
p4487
(lp4488
VTAUnique
p4489
asV.as.com
p4490
(lp4491
Vuid
p4492
asVnethugs.com
p4493
(lp4494
Vphpbb3_5745n_sid
p4495
asVwww.bing.com
p4496
(lp4497
VMUIDB
p4498
aVSRCHUID
p4499
aVSRCHUID#GUID
p4500
asVtr.webantenna.info
p4501
(lp4502
Vwa
p4503
asVwww.roblox.com
p4504
(lp4505
VGuestData#UserID
p4506
asVcustomercare.myhughesnet.com
p4507
(lp4508
VCFTOKEN
p4509
asVcharter.com
p4510
(lp4511
VCHSG#__uh
p4512
as.