ccollections
defaultdict
p1
(c__builtin__
list
p2
tRp3
S'3076384'
p4
(lp5
S'http://www.nyc.gov/html/dcas/html/work/examschedule.shtml'
p6
aS'http://www.jobs.la.gov/'
p7
aS'http://www.state.nj.us/csc/seekers/jobs/announcements/'
p8
aS'http://www.civilservice.louisiana.gov/'
p9
aS'http://wwwprd.doa.louisiana.gov/laservices/publicpages/ServiceDetail.cfm?service_id=2108'
p10
aS'http://my.yahoo.com/'
p11
aS'http://finance.yahoo.com/blogs/daily-ticker/u-totally-broke-federal-govt-fiscal-gap-222-135416602.html'
p12
aS'http://news.yahoo.com/photos/222-golden-retreivers-frolic-in-a-field-in-scotland-slideshow/'
p13
aS'http://mail.yahoo.com/?.intl=ca'
p14
aS'http://answers.yahoo.com/question/index?qid=20130403021425AAoQSoH'
p15
aS'http://www.ocregister.com/'
p16
aS'http://www.ocregister.com/sections/login/'
p17
aS'http://www.ocregister.com/sections/life/'
p18
aS'http://www.ocregister.com/sections/news/'
p19
aS'http://www.ocregister.com/sections/entertainment/'
p20
aS'http://www.dscs.state.la.us/'
p21
aS'http://www.jobs.la.gov/'
p22
aS'http://www.civilservice.louisiana.gov/Divisions/Staffing/JobSeekers.aspx'
p23
aS'http://www.civilservice.louisiana.gov/CSRules/Index.aspx'
p24
aS'http://www.xmarks.com/site/www.dscs.state.la.us/asp/csJobSearch/Search/jobs.htm'
p25
aS'http://www.wikihow.com/Pass-a-Math-Test'
p26
aS'http://www.wikihow.com/Pass-the-Bar-Exam'
p27
aS'http://www.youtube.com/watch?v=Zm3Jq4JYTEI'
p28
aS'http://www.howcast.com/videos/248077-How-to-Ace-Multiple-Choice-Tests'
p29
aS'http://www.uwec.edu/geography/ivogeler/multiple.htm'
p30
aS'http://www.civilservice.louisiana.gov/'
p31
aS'http://www.state.nj.us/csc/seekers/jobs/announcements/'
p32
aS'http://www.jobs.la.gov/'
p33
aS'http://www.scsc.state.pa.us/'
p34
aS'http://www.nj.gov/csc/'
p35
aS'http://www.google.com/'
p36
aS'https://www.google.com/history'
p37
aS'http://www.google.com/fonts'
p38
aS'http://www.google.com/imghp'
p39
aS'http://www.google.com/reader'
p40
aS'http://www.test.com/'
p41
aS'http://www.tests.com/'
p42
aS'http://www.tested.com/'
p43
aS'http://www.test.com.sg/'
p44
aS'http://www.speedtest.net/'
p45
aS'http://everquest.allakhazam.com/db/quest.html?quest=316'
p46
aS'http://www.youtube.com/watch?v=AEe0YlV4dAo'
p47
aS'http://www.youtube.com/watch?v=ckHLc1QKoac'
p48
aS'http://wiki.project1999.com/Cleric_Plane_of_Sky_Tests'
p49
aS'https://github.com/flambard/CLERIC/blob/master/test/handshake-tests.lisp'
p50
aS'http://www.spellingcity.com/'
p51
aS'http://www.spellingcity.com/General/link-to-spellingcitycom.html'
p52
aS'https://www.spellingcity.com/Log-yourself-in.html'
p53
aS'http://www.spellingbee.com/sample-test'
p54
aS'http://www.spellingbee.com/wordclub'
p55
aS'http://www.google.com/'
p56
aS'https://www.google.com/history'
p57
aS'http://www.google.com/fonts'
p58
aS'http://www.google.com/imghp'
p59
aS'http://www.google.com/reader'
p60
aS'http://www.prenet.com/'
p61
aS'http://www.prenet.com/contact-us.html'
p62
aS'http://www.prenetsales.com/contact-us.asp'
p63
aS'https://www.cetc-net.com/'
p64
aS'http://www.prelatinoamerica.net/'
p65
aS'http://amby.com/tests/'
p66
aS'http://amby.com/tests/math/'
p67
aS'http://amby.com/tests/clerical/test_a.html'
p68
aS'http://amby.com/tests/clerical/'
p69
aS'http://amby.com/tests/clerical/spelling_a.html'
p70
aS'http://www.google.com/'
p71
aS'http://www.google.com/analytics/'
p72
aS'https://www.google.com/history'
p73
aS'http://www.google.com/trends/'
p74
aS'http://www.google.com/virgle/'
p75
aS'http://www.youtube.com/user/BlackWomenHair'
p76
aS'http://www.youtube.com/user/hairstylings101'
p77
aS'http://www.sophisticatesblackhairstyles.com/'
p78
aS'http://www.blackhairscience.com/'
p79
aS'http://www.howtoblackhair.com/'
p80
aS'http://www.yahoo.com/'
p81
aS'http://us.mail.yahoo.com/'
p82
aS'http://search.yahoo.com/'
p83
aS'https://login.yahoo.com/'
p84
aS'http://news.yahoo.com/'
p85
aS'http://www.bet.com/'
p86
aS'http://www.bet.com/shows.html'
p87
aS'http://www.bet.com/music.html'
p88
aS'http://www.bet.com/shows/bet-awards.html'
p89
aS'http://www.bet.com/schedule.html'
p90
aS'http://www.health.state.mn.us/'
p91
aS'http://www.health.com/'
p92
aS'/search?q=www.health&biw=975&bih=440&source=univ&tbm=nws&tbo=u&sa=X&ei=xSHPUvHmL5XQsATno4G4DQ&ved=0CEkQqAI'
p93
aS'http://health.nih.gov/'
p94
aS'http://health.yahoo.net/'
p95
aS'http://minus.com/'
p96
aS'http://en.wikipedia.org/wiki/Hyphen'
p97
aS'http://www.kiwisbybeat.com/minus.html'
p98
aS'http://www.m-nus.com/'
p99
aS'http://www.hyphenmagazine.com/'
p100
aS'http://www.health.state.mn.us/'
p101
aS'http://www.health.com/'
p102
aS'http://en.wikipedia.org/wiki/Health'
p103
aS'http://www.webmd.com/'
p104
aS'/search?q=health&biw=975&bih=440&source=univ&tbm=nws&tbo=u&sa=X&ei=0SHPUvuEMcrSsASgpYDgDA&ved=0CFAQqAI'
p105
aS'http://www.bet.com/'
p106
aS'http://www.bet.com/shows.html'
p107
aS'http://www.bet.com/music.html'
p108
aS'http://www.bet.com/shows/bet-awards.html'
p109
aS'http://www.bet.com/shows/sunday-best.html'
p110
aS'http://www.americanidol.com/'
p111
aS'http://www.americanidol.com/videos'
p112
aS'http://www.americanidol.com/app'
p113
aS'http://www.americanidol.com/news'
p114
aS'http://www.americanidol.com/about'
p115
aS'http://www.meganslaw.ca.gov/'
p116
aS'http://www.pameganslaw.state.pa.us/'
p117
aS'http://www.pameganslaw.state.pa.us/SearchResults.aspx'
p118
aS'http://www.pameganslaw.state.pa.us/History.aspx?dt'
p119
aS'http://en.wikipedia.org/wiki/Megan%27s_Law'
p120
aS'http://www.familywatchdog.us/'
p121
aS'http://sex-offender.vsp.virginia.gov/'
p122
aS'http://www.fbi.gov/scams-safety/registry'
p123
aS'http://www.city-data.com/so/sexoffenders.html'
p124
aS'http://www.nsopr.gov/'
p125
aS'http://www.ocregister.com/'
p126
aS'http://www.ocregister.com/sections/login/'
p127
aS'http://www.ocregister.com/sections/life/'
p128
aS'http://www.ocregister.com/sections/news/'
p129
aS'http://www.ocregister.com/sections/entertainment/'
p130
aS'http://www.health.com/'
p131
aS'http://www.health.com/health/diseases-conditions/'
p132
aS'http://www.health.com/health/lose-weight'
p133
aS'http://www.health.com/health/service/magazine'
p134
aS'http://www.health.com/health/food-recipes/'
p135
aS'http://www.webmd.com/urinary-incontinence-oab/repair-of-the-bladder-or-urethra'
p136
aS'http://women.webmd.com/guide/prolapsed-bladder'
p137
aS'http://www.urologyhealth.org/urology/index.cfm?article=118'
p138
aS'http://www.medicinenet.com/cystocele_fallen_bladder/article.htm'
p139
aS'http://www.health.harvard.edu/fhg/updates/update0805c.shtml'
p140
aS'http://www.webmd.com/urinary-incontinence-oab/bladder-suspension'
p141
aS'http://www.webmd.com/urinary-incontinence-oab/womens-guide/urinary-incontinence-in-women-surgery'
p142
aS'http://www.mayoclinic.com/health/urinary-incontinence-surgery/WO00126'
p143
aS'http://www.cancer.org/cancer/bladdercancer/detailedguide/bladder-cancer-treating-surgery'
p144
aS'http://www.memorialmiramar.com/services/bladder-health/treatments-surgeries.cfm'
p145
aS'http://www.cwtv.com/shows/americas-next-top-model'
p146
aS'http://www.cwtv.com/shows/americas-next-top-model/photos/'
p147
aS'http://www.cwtv.com/shows/americas-next-top-model14'
p148
aS'http://www.buddytv.com/americas-next-top-model.aspx'
p149
aS'https://www.facebook.com/ANTM'
p150
aS'http://www.shirleyhair.com/'
p151
aS'http://www.shirleyhair.com/services.html'
p152
aS'http://www.shirleyhair.com/contact.html'
p153
aS'http://www.shirleyhair.com/products.html'
p154
aS'http://urlm.co/www.shirleyhair.com'
p155
aS'http://www.rootshairbreck.com/'
p156
aS'http://rootshairsalonnv.com/'
p157
aS'http://www.earthlyrootshairstudio.com/'
p158
aS'https://www.facebook.com/RootsHairSalon45331'
p159
aS'https://www.facebook.com/harmoniousrootshairsalon'
p160
aS'http://www.ocregister.com/'
p161
aS'http://www.ocregister.com/sections/login/'
p162
aS'http://www.ocregister.com/sections/help/'
p163
aS'http://www.ocregister.com/sections/news/'
p164
aS'http://obits.ocregister.com/'
p165
aS'http://en.wikipedia.org/wiki/Telstar'
p166
aS'http://en.wikipedia.org/wiki/Telstar_%28song%29'
p167
aS'http://www.youtube.com/watch?v=u2ybCjf6ras'
p168
aS'http://www.youtube.com/watch?v=D6DmtPQv7V8'
p169
aS'http://www.telstar.com/'
p170
aS'http://www.popwarner.com/'
p171
aS'http://www.popwarner.com/football.htm'
p172
aS'http://www.popwarner.com/League_Finder.htm'
p173
aS'http://www.leaguelineup.com/riversidepopwarner/'
p174
aS'http://en.wikipedia.org/wiki/Pop_Warner_Little_Scholars'
p175
aS'http://www.oafootball.com/'
p176
aS'http://www.oafootball.com/schedule.html'
p177
aS'http://www.oafootball.com/links.html'
p178
aS'http://www.oafootball.com/boosters.html'
p179
aS'http://www.oafootball.com/sponsors.html'
p180
aS'http://www.weather.gov/'
p181
aS'http://weather.gov/forecastmaps'
p182
aS'http://www.weather.com/newscenter/nationalforecast/'
p183
aS'http://www.weather.com/'
p184
aS'http://www.nws.noaa.gov/outlook_tab.php'
p185
aS'http://www.usairways.com/'
p186
aS'https://www.aa.com/'
p187
aS'http://en.wikipedia.org/wiki/America_West_Airlines'
p188
aS'http://en.wikipedia.org/wiki/America_West_Airlines_Flight_556'
p189
aS'http://www.southwest.com/'
p190
aS'http://www.cheapair.com/'
p191
aS'http://www.cheaptickets.com/cheap-flights/'
p192
aS'http://www.cheaptickets.com/'
p193
aS'http://www.cheapflights.com/'
p194
aS'http://www.cheapoair.com/'
p195
aS'http://www.cwtv.com/shows/americas-next-top-model'
p196
aS'http://www.cwtv.com/shows/americas-next-top-model14'
p197
aS'http://www.cwtv.com/shows/americas-next-top-model/photos/'
p198
aS'http://www.buddytv.com/americas-next-top-model.aspx'
p199
aS'http://www.oxygen.com/tvshows/topmodel/'
p200
aS'http://www.tyra.com/'
p201
aS'http://www.biography.com/people/tyra-banks-16242328'
p202
aS'https://www.facebook.com/TyraBanks'
p203
aS'http://www.tvguide.com/celebrities/tyra-banks/177758'
p204
aS'http://www.tv.com/shows/the-tyra-banks-show/'
p205
aS'http://www.steveharvey.com/'
p206
aS'http://www.steveharvey.com/index.php?option=com_content&view=article&id=136&Itemid=160'
p207
aS'http://www.steveharvey.com/index.php?option=com_content&view=article&id=136&Itemid=104'
p208
aS'http://www.steveharvey.com/index.php/tour'
p209
aS'http://www.steveharveytv.com/'
p210
aS'http://www.935kday.com/'
p211
aS'http://www.935kday.com/page.php?page_id=72'
p212
aS'http://www.935kday.com/?vm=r'
p213
aS'http://www.935kday.com/page.php?page_id=138'
p214
aS'http://www.935kday.com/common/page.php?id=64'
p215
aS'http://www.lowprofilerecords.com/lpg-radio/'
p216
aS'http://www.935kday.com/'
p217
aS'http://tunein.com/radio/KDAY-935-s32724/'
p218
aS'http://www.plotip.com/domain/kdayradio.com'
p219
aS'http://www.pagesinventory.com/domain/www.kdayradio.com.html'
p220
aS'http://ocgov.com/'
p221
aS'http://ocgov.com/services/employment'
p222
aS'http://ocgov.com/gov/assessor'
p223
aS'http://ocgov.com/gov/hr/'
p224
aS'http://ocgov.com/services/'
p225
aS'http://ocgov.com/'
p226
aS'http://ocgov.com/services/employment'
p227
aS'http://ocgov.com/gov/assessor'
p228
aS'http://ocgov.com/gov/hr/'
p229
aS'http://ocgov.com/services/'
p230
aS'http://www.foodnetwork.com/'
p231
aS'http://www.foodnetwork.com/recipes-and-cooking/index.html?utm_source=twitterfeed&utm_medium=twitter'
p232
aS'http://www.foodnetwork.com/the-pioneer-woman/'
p233
aS'http://www.foodnetwork.com/shows/index.html?PHPSESSID=4e32f49492a1254ae1c487c4d705a322'
p234
aS'http://www.foodnetwork.com/paula-deen/recipes/'
p235
aS'http://www.theriver1059.com/'
p236
aS'http://kissdetroit.com/'
p237
aS'http://www.big1059.com/'
p238
aS'http://www.power106.com/'
p239
aS'http://www.1059therock.com/'
p240
aS'http://www.bigboy.com/'
p241
aS'http://www.bigboy.com/locator/'
p242
aS'http://www.bigboy.com/history.html'
p243
aS'http://www.break.com/'
p244
aS'http://www.bigboysgonebananas.com/'
p245
aS'https://www.aa.com/'
p246
aS'http://www.aa.com/reservation/roundTripSearchAccess.do'
p247
aS'http://www.aa.com/travelInformation/gatesTimesAccess.do'
p248
aS'http://www.aa.com/gatesTimesSubmit.do'
p249
aS'http://www.aa.com/reservation/flightCheckInViewReservationsAccess.do'
p250
aS'http://www.airfare.com/'
p251
aS'http://www.fly.com/'
p252
aS'http://www.cheapair.com/'
p253
aS'http://www.united.com/'
p254
aS'http://www.southwest.com/'
p255
aS'http://www.ustream.tv/channel/kdyla'
p256
aS'http://www.last.fm/music/the+cabs/_/haiku+about+kdyla'
p257
aS'http://web.stagram.com/n/kdyla/'
p258
aS'http://grooveshark.com/search/song?q=the+cabs+haiku+about+kdyla'
p259
aS'http://www.amazon.com/haiku-about-kdyla/dp/B004WQUCI8'
p260
aS'http://engrus.com/k/%D1%86%D1%86%D1%86%D0%BB%D0%B2%D1%84%D0%BD%D0%B4%D1%84%D1%8E%D1%81%D1%89%D1%8C'
p261
aS'http://www.aolstalker.com/3076384.html'
p262
aS'http://zapodlo123.net84.net/google%20-%201632.html'
p263
aS'http://domain.cunquan.com/domain/2008/1/31_258.html'
p264
aS'http://legitimacyroue.hotbox.ru/www-conversion2judaism-com.htm'
p265
aS'http://www.youtube.com/watch?v=7GySH5Bo96E'
p266
aS'http://www.youtube.com/playlist?list=PL609A74FE8C49BAE4'
p267
aS'http://www.youtube.com/watch?v=-QwPXxDi8eE'
p268
aS'http://www.linkedin.com/company/brime-com'
p269
aS'https://www.facebook.com/pages/you-and-mediacomhttpwwwfacebookcompagesyou-and-mediacom114099955269349pagesYou-and-Media115173548499605refsearchsid50737369340743163611/122779061072018'
p270
aS'http://www.americanidol.com/'
p271
aS'http://www.americanidol.com/videos'
p272
aS'http://www.americanidol.com/news/american-idol-xiii-hits-the-road-in-search-of-new-talent'
p273
aS'http://www.americanidol.com/news'
p274
aS'http://www.americanidol.com/photos'
p275
as.