ccollections
defaultdict
p1
(c__builtin__
list
p2
tRp3
S'2374794'
p4
(lp5
S'http://www.azlyrics.com/e/eminem.html'
p6
aS'http://www.azlyrics.com/lyrics/eminem/loseyourself.html'
p7
aS'http://www.azlyrics.com/lyrics/eminem/mockingbird.html'
p8
aS'http://www.azlyrics.com/lyrics/eminem/notafraid.html'
p9
aS'http://www.azlyrics.com/lyrics/eminem/lovethewayyoulie.html'
p10
aS'http://www.azlyrics.com/e/eminem.html'
p11
aS'http://www.azlyrics.com/lyrics/eminem/loseyourself.html'
p12
aS'http://www.azlyrics.com/lyrics/eminem/mockingbird.html'
p13
aS'http://www.azlyrics.com/lyrics/eminem/notafraid.html'
p14
aS'http://www.azlyrics.com/lyrics/eminem/lovethewayyoulie.html'
p15
aS'http://www.myspachicago.com/'
p16
aS'http://www.myspamiami.com/'
p17
aS'http://www.icmiamihotel.com/mySpa'
p18
aS'https://myspace.com/'
p19
aS'http://www.my-spas.com/'
p20
aS'http://www.azlyrics.com/n/nickelback.html'
p21
aS'http://www.azlyrics.com/lyrics/nickelback/howyouremindme.html'
p22
aS'http://www.azlyrics.com/lyrics/nickelback/iftodaywasyourlastday.html'
p23
aS'http://www.azlyrics.com/lyrics/nickelback/faraway.html'
p24
aS'http://www.azlyrics.com/lyrics/nickelback/rockstar.html'
p25
aS'http://www.azlyrics.com/b/blackeyedpeas.html'
p26
aS'http://www.azlyrics.com/lyrics/blackeyedpeas/whereisthelove.html'
p27
aS'http://www.azlyrics.com/lyrics/blackeyedpeas/boomboompow.html'
p28
aS'http://www.azlyrics.com/lyrics/blackeyedpeas/igottafeelin.html'
p29
aS'http://www.azlyrics.com/lyrics/blackeyedpeas/dontphunkwithmyheart.html'
p30
aS'http://www.azlyrics.com/p/pussycatdolls.html'
p31
aS'http://www.azlyrics.com/lyrics/pussycatdolls/stickwitu.html'
p32
aS'http://www.azlyrics.com/lyrics/pussycatdolls/buttons.html'
p33
aS'http://www.metrolyrics.com/pussycat-dolls-lyrics.html'
p34
aS'http://www.metrolyrics.com/pussycat-dolls-albums-list.html'
p35
aS'http://www.outback.com/'
p36
aS'http://www.outback.com/menu'
p37
aS'http://www.outback.com/gift-cards'
p38
aS'http://www.outback.com/locations'
p39
aS'http://www.outback.com/locations/take-away'
p40
aS'http://la.divastore.com/'
p41
aS'http://www.la-divastore.com/'
p42
aS'http://www.la-divastore.com/aboutus.htm'
p43
aS'http://www.digitaldivastore.com/'
p44
aS'https://www.facebook.com/Nail.Art.and.Accessories'
p45
aS'http://www.oocities.org/roarkebosch/aafxgm.html'
p46
aS'http://www.aolstalker.com/2374794.html'
p47
aS'http://www.pageinsider.com/divein.it'
p48
aS'http://www.yelp.com/biz/emma-roses-maltese-diva-pups-fairfield'
p49
aS'http://disagreeab.hotbox.ru/www-cortoon-network--com.htm'
p50
aS'http://www.petsmart.com/family/index.jsp?categoryId=2767063'
p51
aS'http://www.amazon.com/b?node=2975313011'
p52
aS'http://www.walmart.com/c/kp/dog-clothes'
p53
aS'http://www.baxterboo.com/l.cfm/dog-clothes'
p54
aS'http://www.zazzle.com/pet+clothing'
p55
aS'http://www.poshpuppyboutique.com/'
p56
aS'/search?q=fancy+dog+dresses&biw=975&bih=440&tbm=isch&tbo=u&source=univ&sa=X&ei=-iLPUqisPOPJsQTikYCIDA&ved=0CDQQsAQ'
p57
aS'http://www.ebay.com/bhp/fancy-dog-dress'
p58
aS'http://www.sassypup.net/Fancy-Dog-Dress-Little-Red-Pet-Clothes-p-16162.html'
p59
aS'http://www.bitchnewyork.com/'
p60
aS'http://www.ebay.com/bhp/playboy-dog'
p61
aS'http://www.wag.com/html/sg/playboy-dog-clothes.html'
p62
aS'http://www.zazzle.com/playboy+pet+clothing'
p63
aS'http://www.cafepress.com/+playboy+pet-apparel'
p64
aS'http://www.amazon.com/s?ie=UTF8&page=1&rh=n%3A1036592%2Cp_89%3APlayboy'
p65
aS'/search?q=playboy+pet+clothes&biw=975&bih=440&source=univ&tbm=shop&tbo=u&sa=X&ei=ByPPUo3SNfKpsAT-1ID4Cw&ved=0CCkQsxg'
p66
aS'http://www.ebay.com/bhp/playboy-dog'
p67
aS'http://www.wag.com/html/sg/playboy-dog-clothes.html'
p68
aS'http://www.zazzle.com/playboy+pet+clothing'
p69
aS'http://www.cafepress.com/+playboy+pet-apparel'
p70
aS'http://www.alibaba.com/showroom/car-shaped-dog-bed.html'
p71
aS'http://www.wag.com/html/sg/car-shaped-dog-bed.html'
p72
aS'/search?q=car+shaped+dog+beds&biw=975&bih=440&tbm=isch&tbo=u&source=univ&sa=X&ei=DiPPUpvvIK3lsATBtoL4Cw&ved=0CEcQsAQ'
p73
aS'http://www.aliexpress.com/popular/car-shaped-dog-bed.html'
p74
aS'http://www.amazon.com/Convertible-Dream-Car-Quiet-Time/dp/B00992OEVQ'
p75
aS'http://www.azlyrics.com/r/rihanna.html'
p76
aS'http://www.azlyrics.com/lyrics/rihanna/stay.html'
p77
aS'http://www.azlyrics.com/lyrics/rihanna/whatnow.html'
p78
aS'http://www.azlyrics.com/lyrics/rihanna/diamonds.html'
p79
aS'http://www.azlyrics.com/lyrics/rihanna/disturbia.html'
p80
aS'http://en.wikipedia.org/wiki/Yield_spread_premium'
p81
aS'http://ysp.ucdavis.edu/'
p82
aS'http://bio.fsu.edu/ysp/'
p83
aS'http://www.youngshakespeareplayers.org/'
p84
aS'http://math.uchicago.edu/ysp/'
p85
aS'http://www.aolstalker.com/s/myspa+510723cf-52c2-5195-5cfd13ea06774bda60438104/'
p86
aS'http://www.aolstalker.com/s/www+myspa+com/0,60'
p87
aS'http://engrus.com/k/%D1%8C%D0%BD%D1%8B%D0%B7%D1%84+510723%D1%81%D0%B0-52%D1%812-5195-5%D1%81%D0%B0%D0%B213%D1%83%D1%8406774%D0%B8%D0%B2%D1%8460438104'
p88
aS'http://www.decenttools.com/aol/keyword/myspa%20510723cf-52c2-5195-5cfd13ea06774bda60438104'
p89
aS'http://apugytuuasu.narod.ru/8.html'
p90
aS'http://www.abercrombie.com/'
p91
aS'http://www.abercrombie.com/shop/wd/mens'
p92
aS'https://www.abercrombie.com/webapp/wcs/stores/servlet/StoreLocator?storeId=11203&catalogId=10901'
p93
aS'http://www.abercrombie.com/shop/us/womens'
p94
aS'http://www.abercrombie.com/shop/wd/a-and-f-looks'
p95
aS'http://www.westfield.com/gardenstateplaza/'
p96
aS'http://www.westfield.com/us/retailers'
p97
aS'http://www.westfield.com/gardenstateplaza/directions'
p98
aS'http://www.westfield.com/gardenstateplaza/map'
p99
aS'http://www.westfield.com/gardenstateplaza/luxury-retailers'
p100
aS'http://www.victoriassecret.com/'
p101
aS'http://www.victoriassecret.com/swimwear'
p102
aS'http://www.victoriassecret.com/sale'
p103
aS'http://www.victoriassecret.com/clothing'
p104
aS'http://www.victoriassecret.com/beauty'
p105
aS'https://myspace.com/'
p106
aS'https://myspace.com/signin'
p107
aS'https://myspace.com/marilynmanson'
p108
aS'https://myspace.com/deftones'
p109
aS'https://myspace.com/wearephoenix'
p110
aS'http://www.pamf.org/teen/health/diseases/lumpsbumps.html'
p111
aS'http://www.webmd.com/sexual-conditions/ss/slideshow-std-pictures-and-facts'
p112
aS'http://goaskalice.columbia.edu/how-tell-mollusca-genital-warts'
p113
aS'http://www.healthcentral.com/sexual-health/c/80228/60290/vagina-lumps/'
p114
aS'http://www.healthline.com/health/rash-on-genitals'
p115
aS'https://myspace.com/'
p116
aS'https://myspace.com/signin'
p117
aS'https://myspace.com/marilynmanson'
p118
aS'https://myspace.com/deftones'
p119
aS'https://myspace.com/wearephoenix'
p120
aS'http://www.jerseygardens.com/'
p121
aS'http://www.premiumoutlets.com/outlets/outlet.asp?id=78'
p122
aS'http://www.mallseeker.com/newjerseyoutletmalls.aspx'
p123
aS'http://www.visitnj.org/great-outlet-shopping-garden-state'
p124
aS'http://www.outletlocation.com/malls/new-jersey.html'
p125
aS'http://acmemarkets.com/'
p126
aS'http://www.acmestores.com/'
p127
aS'http://www.acmestores.com/my-store-locations/'
p128
aS'http://acmemarkets.mywebgrocer.com/Stores'
p129
aS'http://en.wikipedia.org/wiki/Acme_Markets'
p130
aS'http://acmemarkets.com/'
p131
aS'http://www.acmestores.com/'
p132
aS'http://www.acmestores.com/my-store-locations/'
p133
aS'http://eastbrunswick.patch.com/listings/acme-supermarket'
p134
aS'http://www.yellowpages.com/philadelphia-pa/acme-supermarket'
p135
aS'http://en.wikipedia.org/wiki/WinFixer'
p136
aS'http://www.symantec.com/security_response/writeup.jsp?docid=2005-120121-2151-99'
p137
aS'http://www.spywareguide.com/product_show.php?id=2263'
p138
aS'http://www.f-secure.com/sw-desc/winfixer.shtml'
p139
aS'http://www.sunbeltsecurity.com/ThreatDisplay.aspx?tid=41898&cs=FBEE346C43E5DE3FA85265B6ACB1B847'
p140
aS'http://www.microsoft.com/security/resources/antispyware-whatis.aspx'
p141
aS'http://www.microsoft.com/security/pc-security/antivirus.aspx'
p142
aS'http://windows.microsoft.com/en-us/windows/remove-spyware'
p143
aS'http://en.wikipedia.org/wiki/Windows_Defender'
p144
aS'http://www.filehippo.com/download_windows_defender/29/'
p145
aS'http://us.norton.com/internet-security/'
p146
aS'http://us.norton.com/downloads-trial-norton-internet-security'
p147
aS'http://us.norton.com/'
p148
aS'http://www.symantec.com/security_response/securityupdates/list.jsp?fid=nis'
p149
aS'http://en.wikipedia.org/wiki/Norton_Internet_Security'
p150
aS'/search?q=happy+birthday+pictures&biw=975&bih=440&tbm=isch&tbo=u&source=univ&sa=X&ei=dCPPUq2JKbSusATXqIH4DA&ved=0CCkQsAQ'
p151
aS'http://photobucket.com/images/happy%20birthday'
p152
aS'http://sayingimages.com/happy-birthday-cards-images-quotes-and-sayings/'
p153
aS'https://www.facebook.com/HappyBirthdayPics'
p154
aS'http://all-free-download.com/free-photos/happy-birthday-images.html'
p155
aS'http://photobucket.com/'
p156
aS'https://secure.photobucket.com/login'
p157
aS'http://m.photobucket.com/login'
p158
aS'http://photobucket.com/upload'
p159
aS'http://photobucket.com/about'
p160
aS'http://www.cityoffrederick.com/'
p161
aS'http://www.frederick.edu/'
p162
aS'http://en.wikipedia.org/wiki/Frederick,_Maryland'
p163
aS'http://www.visitfrederick.org/'
p164
aS'http://www.fredericknewspost.com/locations/local/'
p165
aS'http://www.fredericks.com/'
p166
aS'http://www.fredericks.com/seduction/US01,default,sc.html'
p167
aS'http://www.fredericks.com/clothing/view-all-dresses/cl29,default,sc.html'
p168
aS'http://www.fredericks.com/lingerie/view-all/li27,default,sc.html'
p169
aS'http://www.fredericks.com/plus/view-all/pl16,default,sc.html'
p170
aS'http://www.fredericks.com/'
p171
aS'http://www.fredericks.com/seduction/US01,default,sc.html'
p172
aS'http://www.fredericks.com/clothing/view-all-dresses/cl29,default,sc.html'
p173
aS'http://www.fredericks.com/lingerie/view-all/li27,default,sc.html'
p174
aS'http://www.fredericks.com/plus/view-all/pl16,default,sc.html'
p175
aS'http://www.fredericks.com/'
p176
aS'http://www.fredericks.com/seduction/US01,default,sc.html'
p177
aS'http://www.fredericks.com/clearance/view-all/sa7,default,sc.html'
p178
aS'http://www.fredericks.com/clothing/view-all-dresses/cl29,default,sc.html'
p179
aS'/search?q=frederick+%26+hollywood&biw=975&bih=440&tbm=isch&tbo=u&source=univ&sa=X&ei=lCPPUqTrHeersATsjIGYDA&ved=0CEoQsAQ'
p180
aS'http://www.simon.com/mall/newport-centre'
p181
aS'http://www.simon.com/mall/newport-centre/stores/h-m'
p182
aS'http://www.simon.com/mall/newport-centre/stores'
p183
aS'http://www.simon.com/mall/newport-centre%E2%80%8E'
p184
aS'http://en.wikipedia.org/wiki/Newport_Centre_%28shopping_mall%29'
p185
aS'http://www.yelp.com/biz/sexy-nails-iii-fair-lawn'
p186
aS'http://www.yelp.com/biz/sexy-nail-fair-lawn'
p187
aS'http://www.yelp.com/biz/sexy-nail-spa-fair-lawn'
p188
aS'http://www.yelp.com/biz/sexy-nails-ii-fair-lawn'
p189
aS'https://plus.google.com/103657656750505715241/about?hl=en&socfid=web:lu:unknown:localgroupedresult&socpid=1'
p190
aS'http://www.foodnetwork.com/recipes/ina-garten/mocha-chocolate-icebox-cake-recipe/index.html?utm_source=BookMovement+Mailing+List&utm_campaign=18e9a411d1-June_2013_Book_of_the_Month6_3_2013&utm_medium=email&utm_term=0_5b95dc559c-18e9a411d1-207180781'
p191
aS'/search?q=chocolate+icebox+cake&biw=975&bih=440&tbm=isch&tbo=u&source=univ&sa=X&ei=pyPPUpzHL7TMsQSi9YGYDQ&ved=0CD4QsAQ'
p192
aS'http://www.yummly.com/recipes/chocolate-icebox-cake'
p193
aS'http://www.womansday.com/recipefinder/chocolate-icebox-cake-recipe-wdy0613'
p194
aS'http://food52.com/blog/7061-how-to-make-any-icebox-cake-in-5-steps'
p195
aS'http://www.bergen.edu/'
p196
aS'http://www.bergen.edu/library/'
p197
aS'https://go.bergen.edu/'
p198
aS'http://www.bergen.edu/pages1/pages/2036.aspx'
p199
aS'http://admissions.bergen.edu/'
p200
aS'http://www.bergen.edu/'
p201
aS'http://www.bergen.edu/pages1/pages/493.aspx'
p202
aS'http://www.bergen.edu/ecatalog'
p203
aS'http://admissions.bergen.edu/'
p204
aS'http://www.bergen.edu/pages1/pages/2163.aspx'
p205
aS'http://www.thelimited.com/'
p206
aS'http://www.thelimited.com/sale'
p207
aS'http://www.thelimited.com/womens-clothing/pants'
p208
aS'http://www.thelimited.com/locations'
p209
aS'http://www.thelimited.com/features/new-arrivals'
p210
aS'http://www.thelimited.com/'
p211
aS'http://www.thelimited.com/sale'
p212
aS'http://www.thelimited.com/customer-service/careers/careers-landing.html'
p213
aS'http://www.thelimited.com/features/new-arrivals'
p214
aS'http://www.thelimited.com/locations'
p215
aS'http://my.yahoo.com/'
p216
aS'https://my.rutgers.edu/'
p217
aS'https://myspace.com/'
p218
aS'http://www.myfitnesspal.com/'
p219
aS'http://my.msn.com/'
p220
aS'https://myspace.com/'
p221
aS'https://myspace.com/signin'
p222
aS'https://myspace.com/dropkickmurphys'
p223
aS'https://myspace.com/gogolbordello'
p224
aS'https://myspace.com/ironandwine'
p225
aS'http://www.yellowpages.com/clifton-nj/johnny-carinos-country-italian'
p226
aS'http://www.njdiningguide.com/restaurants.html'
p227
aS'http://www.yelp.com/biz/johnny-carinos-clifton-2'
p228
aS'http://www.yelp.com/search?cflt=italian&find_loc=Clifton%2C+NJ'
p229
aS'http://georgioscountrygrill.com/'
p230
aS'http://www.thecheesecakefactory.com/'
p231
aS'http://www.thecheesecakefactory.com/menu/welcome/welcome'
p232
aS'http://jobs.thecheesecakefactory.com/'
p233
aS'http://www.thecheesecakefactory.com/Locations/locations'
p234
aS'http://www.thecheesecakefactory.com/aboutus/ourstory/ourstory'
p235
aS'http://www.fredericks.com/'
p236
aS'http://www.fredericks.com/seduction/US01,default,sc.html'
p237
aS'http://www.fredericks.com/clearance/view-all/sa7,default,sc.html'
p238
aS'http://www.fredericks.com/lingerie/view-all/li27,default,sc.html'
p239
aS'http://www.fredericks.com/corsets/view-all/co31,default,sc.html'
p240
aS'http://www.bathandbodyworks.com/'
p241
aS'http://www.bathandbodyworks.com/corp/index.jsp?page=storeLocator'
p242
aS'http://www.bathandbodyworks.com/category/index.jsp?categoryId=4090260'
p243
aS'http://www.bathandbodyworks.com/category/index.jsp?categoryId=4090263'
p244
aS'http://www.bathandbodyworks.com/shop/index.jsp?categoryId=3395481'
p245
aS'http://minus.com/'
p246
aS'http://en.wikipedia.org/wiki/Hyphen'
p247
aS'http://www.kiwisbybeat.com/minus.html'
p248
aS'http://www.m-nus.com/'
p249
aS'http://www.hyphenmagazine.com/'
p250
aS'http://www.bergen.edu/'
p251
aS'https://go.bergen.edu/'
p252
aS'http://www.bergen.edu/pages1/pages/2036.aspx'
p253
aS'http://admissions.bergen.edu/'
p254
aS'http://www.bergen.edu/pages1/pages/644.aspx'
p255
aS'http://divapets.com/'
p256
aS'http://www.petfinder.com/shelters/ks195.html'
p257
aS'http://www.divapets.net/page/413467596'
p258
aS'http://www.divapets.net/'
p259
aS'http://www.adoptapet.com/adoption_rescue/79645.html'
p260
aS'http://www.divapets.net/'
p261
aS'http://www.divapets.net/page/413467596'
p262
aS'http://www.divapets.net/form/193122'
p263
aS'http://www.petfinder.com/shelters/ks195.html'
p264
aS'http://www.adoptapet.com/adoption_rescue/79645.html'
p265
aS'http://www.petfinder.com/shelters/ks195.html'
p266
aS'http://www.divapets.net/page/413467596'
p267
aS'http://www.divapets.net/'
p268
aS'http://www.adoptapet.com/adoption_rescue/79645.html'
p269
aS'http://totaldivapets.com/'
p270
aS'http://divapups.com/'
p271
aS'http://spoiledmaltese.com/forum/56-breeders/51942-divapup.html'
p272
aS'http://littledivapups.webs.com/'
p273
aS'http://www.yorkietalk.com/forums/my-yorkie-pictures/62615-seaside-yorkie-pup-divapups-com-website.html'
p274
aS'http://www.ripoffreport.com/r/DIVA-PUPS/internet/DIVA-PUPSPUPPY-MILL-PUPPIES-DO-YOUR-RESEARCH-BEFORE-BUYING-A-PUPPY-FROM-DIVA-PUPS-These-181542'
p275
aS'/search?q=dog+collars&biw=975&bih=440&source=univ&tbm=shop&tbo=u&sa=X&ei=EyTPUoqrKJS0sQTM14D4DA&ved=0CCkQsxg'
p276
aS'http://www.petsmart.com/family/index.jsp?categoryId=2849843'
p277
aS'http://www.amazon.com/Best-Sellers-Pet-Supplies-Dog-Collars/zgbs/pet-supplies/3052410011'
p278
aS'http://www.lupinepet.com/'
p279
aS'http://www.muttropolis.com/category/dog/designer-collars-leads-harnesses.cfm'
p280
aS'https://myspace.com/'
p281
aS'https://myspace.com/signin'
p282
aS'https://myspace.com/marilynmanson'
p283
aS'https://myspace.com/deftones'
p284
aS'https://myspace.com/wearephoenix'
p285
aS'http://kidshealth.org/teen/sexual_health/girls/dub.html'
p286
aS'http://www.nlm.nih.gov/medlineplus/ency/article/003156.htm'
p287
aS'http://www.womenshealthmag.com/health/conditions/dysfunctional-uterine-bleeding'
p288
aS'http://www.cigna.com/healthwellness/hw/medical-topics/dysfunctional-uterine-bleeding-aa76597'
p289
aS'http://www.drugs.com/cg/dysfunctional-uterine-bleeding.html'
p290
aS'http://goaskalice.columbia.edu/vaginal-bleeding-after-intercourse'
p291
aS'http://www.mayoclinic.org/symptoms/bleeding-after-vaginal-sex/basics/definition/sym-20050716'
p292
aS'http://www.nhs.uk/chq/Pages/977.aspx?CategoryID=118'
p293
aS'http://womenshealth.about.com/cs/menstruation/a/bleedaftersex.htm'
p294
aS'http://www.medicinenet.com/vaginal_bleeding/page5.htm'
p295
as.