ccollections
defaultdict
p1
(c__builtin__
list
p2
tRp3
S'8477189'
p4
(lp5
S'http://www.learnerspermit.com/'
p6
aS'https://www.learnerspermit.com/login.aspx'
p7
aS'http://www.learnerspermit.com/georgia/faqs.aspx'
p8
aS'http://www.dmv.org/drivers-permits.php'
p9
aS'http://www.testquestionsandanswers.com/learners-permit/free-practice-tests/'
p10
aS'https://myspace.com/'
p11
aS'https://myspace.com/signin'
p12
aS'https://myspace.com/marilynmanson'
p13
aS'https://myspace.com/deftones'
p14
aS'https://myspace.com/wearephoenix'
p15
aS'http://minus.com/'
p16
aS'http://en.wikipedia.org/wiki/Hyphen'
p17
aS'http://www.kiwisbybeat.com/minus.html'
p18
aS'http://www.m-nus.com/'
p19
aS'http://www.hyphenmagazine.com/'
p20
aS'http://www.wwe.com/'
p21
aS'http://www.wwe.com/videos/show'
p22
aS'http://www.wwe.com/videos/the-fabulous-3birds-vs-the-prime-time-players-wwecom-exclusive-nov-22-2013-26165900'
p23
aS'http://www.wwe.com/videos/triple-h-bans-big-show-from-wwe-for-life-wwecom-exclusive-oct-30-2013-26160558'
p24
aS'http://www.youtube.com/watch?v=7HFfNGhXRoE'
p25
aS'http://www.wwe.com/'
p26
aS'http://www.wwe.com/shows/smackdown'
p27
aS'http://www.wwe.com/events'
p28
aS'http://www.wwe.com/shows/raw'
p29
aS'http://www.wwe.com/superstars'
p30
aS'http://www.yahoo.com/'
p31
aS'http://mail.yahoo.com/'
p32
aS'https://login.yahoo.com/'
p33
aS'http://finance.yahoo.com/'
p34
aS'http://sports.yahoo.com/'
p35
aS'http://www.fantasyflightgames.com/edge_news.asp?eidn=4536'
p36
aS'http://www.fantasy-gift.com/'
p37
aS'http://www.neimanmarcus.com/Gifts/cat000672/c.cat'
p38
aS'http://drtech.bangordailynews.com/2013/11/23/reviews/dr-techs-top-20-fantasy-gift-list/'
p39
aS'http://dfw.cbslocal.com/2013/10/08/2013-neiman-marcus-fantasy-gifts-revealed/'
p40
aS'https://www.facebook.com/permalink.php?story_fbid=514474325305502&id=171904566229148'
p41
aS'https://nb-no.facebook.com/cakelingerie/posts/196946690425023'
p42
aS'http://www.boconceptscotland.com/2013/07/03/a-fantastic-gift-for-you/'
p43
aS'http://engrus.com/k/%D0%B0%D1%84%D1%82%D0%B5%D1%84%D1%8B%D0%B5%D1%88%D1%81%D0%BF%D1%88%D0%B0%D0%B5%D0%B0%D1%89%D0%BA%D0%BD%D1%89%D0%B3%D1%8E%D1%81%D1%89%D1%8C'
p44
aS'http://www.amazon.co.uk/Boxed-FRIENDS-Crystal-Fantastic-friend/dp/B00E3QX7M0'
p45
aS'http://www.aolstalker.com/s/caw.hostingzero.com/'
p46
aS'http://www.puntarenas.com/search.asp?go=Caw.hostingzero.com'
p47
aS'http://www.neoseeker.com/forums/26249/t622487-question-about-eg-band/'
p48
aS'http://www.ign.com/faqs/2005/wwe-smackdown-vs-raw-william-regal-caw-653709'
p49
aS'http://www.ign.com/boards/threads/%E2%80%A2caw-request-thread%E2%80%A2.103565409/page-6'
p50
aS'http://caws.hostingzero.com/svr2006/entrances/aj_styles.php'
p51
aS'http://caws.ws/forum/topic/25735-how-did-you-find-out-about-cawsws/page-3'
p52
aS'http://www.aolstalker.com/s/www.caws.hostingzero.com/'
p53
aS'http://www.ign.com/faqs/2005/wwe-smackdown-vs-raw-william-regal-caw-653709'
p54
aS'http://www.ign.com/boards/threads/official-wwe-svr-caw-thread.71010192/page-91'
p55
aS'http://www.google.com/'
p56
aS'http://mail.google.com/'
p57
aS'http://www.google.com/chrome/'
p58
aS'http://maps.google.com/'
p59
aS'http://news.google.com/'
p60
aS'http://whois.domaintools.com/cawhostingzero.com'
p61
aS'http://www.puntarenas.com/search.asp?go=Caw.hostingzero.com'
p62
aS'http://www.spyrush.com/www/cawhostingzero.com'
p63
aS'http://search-logs.com/user/8477189-wwwlearners_permitcom'
p64
aS'http://www.neoseeker.com/forums/26249/t622487-question-about-eg-band/'
p65
aS'http://www.wikipedia.org/'
p66
aS'http://en.wikipedia.org/'
p67
aS'http://en.wikipedia.org/wiki/Breaking_Bad'
p68
aS'http://en.wikipedia.org/wiki/Wikipedia'
p69
aS'http://en.wikipedia.org/wiki/News'
p70
aS'http://www.ign.com/'
p71
aS'http://www.ign.com/pc'
p72
aS'http://www.ign.com/wii'
p73
aS'http://www.ign.com/ps3'
p74
aS'http://www.ign.com/movies'
p75
aS'https://groups.google.com/d/topic/buet71/wTiBaJc336E'
p76
aS'https://groups.google.com/d/topic/comp.databases.oracle.server/a3GLXUK5Gtc'
p77
aS'https://groups.google.com/d/topic/pace-qatar/agUfjIQHFUk'
p78
aS'https://groups.google.com/d/msg/komerco/aRC8ZMFD_j0/CbVSsmP7AQsJ'
p79
aS'https://groups.google.com/d/topic/muslimsangamam/yeZPXQJhpOw'
p80
aS'http://www.nrha.us/rent/housingchoicevouchers'
p81
aS'http://www.nrha.us/contact'
p82
aS'http://www.nrha.us/'
p83
aS'http://www.nrha.us/rent/applyforpublichousing'
p84
aS'http://www.nrha.us/content/how-do-i-transfer-housing-choice-voucher-norfolk-another-city'
p85
aS'http://search-logs.com/user/8477189-wwwlearners_permitcom'
p86
aS'http://engrus.com/k/%D1%82%D0%BA%D1%80%D1%84+%D1%80%D1%89%D0%B3%D1%8B%D1%88%D1%82%D0%BF+%D1%8B%D1%83%D1%81%D0%B5%D1%88%D1%89%D1%82+8%D0%BC%D1%84'
p87
aS'http://www.aolstalker.com/s/nrha+housing+section+8+va/'
p88
aS'http://www.nrha.us/'
p89
aS'https://www.facebook.com/pages/Arballo-Reining-Horses-at-The-River-Valley-Ranch/339102219458346'
p90
aS'http://www.nrha.us/'
p91
aS'http://www.nrha.us/contact'
p92
aS'http://www.nrha.us/rent/applyforpublichousing'
p93
aS'http://www.nrha.us/rent/housingchoicevouchers'
p94
aS'http://www.nrha.us/rent/rentalproperties'
p95
aS'http://www.nrha.us/contact'
p96
aS'http://www.nrha.us/'
p97
aS'http://www.nrha.us/rent/applyforpublichousing'
p98
aS'http://www.nrha.us/rent/rentalproperties'
p99
aS'http://www.staginglight.com/links/trackfinder.html'
p100
aS'http://search-logs.com/user/8477189-wwwlearners_permitcom'
p101
aS'http://engrus.com/k/%D1%82%D1%80%D0%BA%D1%84+%D0%B7%D0%B3%D0%B8%D0%B4%D1%88%D1%81+%D1%8B%D1%83%D1%81%D0%B5%D1%88%D1%89%D1%82+8+%D1%89%D0%B7%D1%83%D1%82%D1%88%D1%82%D0%BF%D0%BC%D1%84'
p102
aS'http://www.aolstalker.com/s/nhra+public+section+8+va/'
p103
aS'http://www.aolstalker.com/s/nhra+cm/0,60'
p104
aS'http://zakafi.pochtamt.ru/Illinois-central.htm'
p105
aS'http://www.nrha.us/rent/applyforpublichousing'
p106
aS'http://www.nrha.us/contact'
p107
aS'http://www.nrha.us/'
p108
aS'http://www.nwmnhra.org/Section%208%20Application%20with%20addl%20forms.pdf'
p109
aS'http://www.nhra.com/userfiles/file/2013%20to%202014%20NHRA%20Heritage%20Series%20Rule%20Amendments.pdf'
p110
aS'http://www.nrha.us/rent/applyforpublichousing'
p111
aS'http://www.nrha.us/rent/housingchoicevouchers'
p112
aS'http://www.nrha.us/'
p113
aS'http://www.nrha.us/contact'
p114
aS'http://www.nvrural.org/'
p115
aS'http://www.rockawave.com/'
p116
aS'http://www.topix.com/city/far-rockaway-ny'
p117
aS'http://abclocal.go.com/wabc/explore?tag=far-rockaway'
p118
aS'https://www.facebook.com/TheWaveNewspaper'
p119
aS'http://www.dnainfo.com/new-york/queens/rockaways'
p120
aS'http://search-logs.com/user/8477189-wwwlearners_permitcom'
p121
aS'http://www.aolstalker.com/8477189.html'
p122
aS'http://zakafi.pochtamt.ru/Illinois-central.htm'
p123
aS'http://tenupokytajabe.narod.ru/14.html'
p124
aS'http://refunded.solo10.com/lista/2007-02-06/p6678.html'
p125
aS'http://engrus.com/k/%D0%B0%D1%84%D0%BA%D0%BA%D1%89%D1%81%D0%BB%D1%84%D1%86%D1%84%D0%BD%D0%B5%D1%80%D1%83%D1%86%D1%84%D0%BC%D1%83%D1%82%D1%83%D1%86%D0%B7%D1%84%D0%B7%D0%B7%D1%83%D0%BA'
p126
aS'http://www.decenttools.com/aol/keyword/farrockawaythewavenewpapper'
p127
aS'http://search-logs.com/user/8477189-wwwlearners_permitcom'
p128
aS'http://zakafi.pochtamt.ru/Illinois-central.htm'
p129
aS'http://lolgun.friko.pl/wav2fb.html'
p130
aS'http://portal.hud.gov/hudportal/HUD/program_offices/public_indian_housing/programs/hcv/about/fact_sheet'
p131
aS'http://portal.hud.gov/hudportal/HUD/program_offices/public_indian_housing/programs/hcv/about'
p132
aS'http://portal.hud.gov/hudportal/HUD/program_offices/public_indian_housing/programs/hcv'
p133
aS'http://www.benefits.gov/benefits/benefit-details/710'
p134
aS'http://en.wikipedia.org/wiki/Section_8_%28housing%29'
p135
aS'http://www.fairfaxcounty.gov/rha/rentalhousingprograms/hcv.htm'
p136
aS'http://www.vbgov.com/government/departments/housing-neighborhood-preservation/renters-landlords/pages/housing-choice-voucher-program-section-8.aspx'
p137
aS'http://www.arlingtonva.us/departments/humanservices/services/eid/humanservicesserviceseidsection8.aspx'
p138
aS'http://portal.hud.gov/hudportal/HUD/topics/housing_choice_voucher_program_section_8'
p139
aS'http://portal.hud.gov/hudportal/HUD/program_offices/public_indian_housing/programs/hcv'
p140
aS'http://www.vbgov.com/government/departments/housing-neighborhood-preservation/renters-landlords/pages/housing-choice-voucher-program-section-8.aspx'
p141
aS'http://www.hrha.org/section8.htm'
p142
aS'http://www.va.gov/homeless/hud-vash.asp'
p143
aS'http://www.hud.gov/local/index.cfm?state=va&topic=renting'
p144
aS'http://www.needhelppayingbills.com/html/section_8_housing_virginia.html'
p145
aS'http://www.nrha.us/rent/housingchoicevouchers'
p146
aS'http://www.nrha.us/contact'
p147
aS'http://www.nrha.us/content/how-do-i-transfer-housing-choice-voucher-norfolk-another-city'
p148
aS'http://www.nrha.us/rent/applyforpublichousing'
p149
aS'http://www.nrha.us/'
p150
aS'http://www.aolbyphone.com/'
p151
aS'http://voice.aol.com/'
p152
aS'http://help.aol.com/article/aol-customer-service-&-support/217480'
p153
aS'http://www.aolvoicemail.com/'
p154
aS'http://www.ask.com/question/how-to-contact-aol-by-phone'
p155
aS'http://caws.ws/'
p156
aS'http://caws.ws/forum/'
p157
aS'http://caws.ws/news/category/wwe2k14/'
p158
aS'http://caws.ws/wwe13/'
p159
aS'http://caws.ws/svr/'
p160
aS'http://www.history.com/'
p161
aS'http://www.history.com/videos'
p162
aS'http://www.history.com/schedule'
p163
aS'http://www.history.com/this-day-in-history'
p164
aS'http://shop.history.com/'
p165
aS'http://www.wavy.com/'
p166
aS'http://www.wavy.com/weather'
p167
aS'http://www.wavy.com/weather/forecast'
p168
aS'http://www.wavy.com/local-news'
p169
aS'http://www.wavy.com/weather/radar'
p170
aS'http://www.cnn.com/'
p171
aS'http://edition.cnn.com/'
p172
aS'http://www.cnn.com/POLITICS/'
p173
aS'http://money.cnn.com/'
p174
aS'http://www.cnn.com/video/'
p175
aS'http://www.kinston.com/'
p176
aS'http://www.kinston.com/news/local'
p177
aS'http://www.legacy.com/obituaries/kinston/'
p178
aS'http://www.legacy.com/obituaries/kinston/obituary-browse.aspx?recentdate=0'
p179
aS'http://www.legacy.com/obituaries/kinston/obituary-search.aspx?daterange=1&countryid=1&affiliateid=2207'
p180
aS'http://www.rxlist.com/hytrin-drug.htm'
p181
aS'http://www.rxlist.com/hytrin-drug/patient-images-side-effects.htm'
p182
aS'http://www.rxlist.com/hytrin-drug/indications-dosage.htm'
p183
aS'http://www.rxlist.com/hytrin-drug/consumer-uses.htm'
p184
aS'http://www.drugs.com/terazosin.html'
p185
aS'http://en.wikipedia.org/wiki/Nat_Turner'
p186
aS'http://en.wikipedia.org/wiki/Nat_Turner%27s_slave_rebellion'
p187
aS'http://www.pbs.org/wgbh/aia/part3/3p1518.html'
p188
aS'http://www.biography.com/people/nat-turner-9512211'
p189
aS'http://docsouth.unc.edu/highlights/turner.html'
p190
aS'http://www.hrsd.com/'
p191
aS'http://www.hrsd.com/paymentmethods.shtml'
p192
aS'http://www.hrsd.com/departments.shtml'
p193
aS'http://www.hrsd.com/customer2.shtml'
p194
aS'http://www.hrsd.com/paymentlocations.shtml'
p195
aS'http://www.hrsd.com/'
p196
aS'http://www.hrsd.com/paymentmethods.shtml'
p197
aS'http://www.hrsd.com/departments.shtml'
p198
aS'http://www.hrsd.com/customer2.shtml'
p199
aS'http://www.hrsd.com/paymentlocations.shtml'
p200
aS'http://www.hrsd.com/'
p201
aS'http://www.hrsd.com/contactus.shtml'
p202
aS'http://www.hrsd.com/paymentmethods.shtml'
p203
aS'http://www.hrsd.com/csnorfolk.shtml'
p204
aS'http://www.hrsd.com/customer2.shtml'
p205
aS'http://www.norfolk.gov/requesttracker.aspx'
p206
aS'http://www.norfolk.gov/utilities/'
p207
aS'http://engrus.com/k/%D1%80%D0%B5%D0%B5%D0%B7+%D1%86%D1%86%D1%86%D1%8E%D1%82%D1%89%D0%B0%D0%BA%D0%B0%D1%89%D0%B4%D0%BB%D1%8E%D0%BF%D1%89%D0%BC+%D0%B3%D0%B5%D1%88%D0%B4%D1%88%D0%B5%D0%B5%D1%83%D1%8B'
p208
aS'http://course.hotbox.ru/htt-support-lexmark-com.htm'
p209
aS'http://linguisticspis.hotbox.ru/vintage-playhouse-com.htm'
p210
aS'http://www.norfolk.gov/utilities/'
p211
aS'http://www.norfolk.gov/'
p212
aS'http://www.norfolk.gov/Facilities.aspx?page=list&search=1&CID=8'
p213
aS'http://www.norfolk.gov/faq.aspx?qid=255'
p214
aS'http://www.norfolk.gov/DocumentCenter/View/7649'
p215
aS'http://hardball.nsnbc.com/'
p216
aS'http://hardballtalk.nbcsports.com/'
p217
aS'http://www.nbcnews.com/id/8132577/'
p218
aS'http://www.nbcnews.com/id/10285339'
p219
aS'http://www.msnbc.com/'
p220
aS'http://www.hardballmsnbc.com/'
p221
aS'http://www.ask.com/answers/3502231/what-is-chris-mathews-email-address-on-msnbc'
p222
aS'https://www.facebook.com/hardball'
p223
aS'http://www.democraticunderground.com/discuss/duboard.php?az=view_all&address=132x8587410'
p224
aS'http://www.huffingtonpost.com/news/msnbc-hardball'
p225
aS'http://www.msnbc.com/hardball'
p226
aS'http://www.msnbc.com/hardball/lets-play-hardball-president-obama'
p227
aS'http://www.msnbc.com/msnbc/q-hardballs-chris-matthews'
p228
aS'/search?q=hardball.msnbc.com&biw=975&bih=440&source=univ&tbm=nws&tbo=u&sa=X&ei=pTTPUpvnLajQsASTh4CoDA&ved=0CDcQqAI'
p229
aS'http://www.nbcnews.com/id/3036697/vp/47452493'
p230
aS'http://en.wikipedia.org/wiki/Spline_%28mathematics%29'
p231
aS'http://en.wikipedia.org/wiki/Spline'
p232
aS'http://en.wikipedia.org/wiki/Spline_%28mechanical%29'
p233
aS'http://en.wikipedia.org/wiki/Flat_spline'
p234
aS'/search?q=spline&biw=975&bih=440&tbm=isch&tbo=u&source=univ&sa=X&ei=qzTPUszXNInQsASnpIDwCw&ved=0CEoQsAQ'
p235
aS'http://en.wikipedia.org/wiki/Grigori_Rasputin'
p236
aS'http://www.rasputinmusic.com/'
p237
aS'http://www.rasputinmusic.com/?page_id=383'
p238
aS'http://history1900s.about.com/od/famouscrimesscandals/a/rasputin.htm'
p239
aS'http://www.biography.com/people/rasputin-9452162'
p240
aS'http://www.mailboxapp.com/'
p241
aS'http://www.theeducationcenter.com/'
p242
aS'http://www.theupsstorelocal.com/2682'
p243
aS'http://www.theupsstorelocal.com/2604/'
p244
aS'http://www.pakmaileastwindsor.com/'
p245
aS'http://en.wikipedia.org/wiki/Kazaa'
p246
aS'http://www.kazaa.com/'
p247
aS'http://kazaa-lite.en.softonic.com/'
p248
aS'http://www.urbandictionary.com/define.php?term=kazaa'
p249
aS'http://www.wired.com/wired/archive/11.02/kazaa.html'
p250
aS'http://www.killerstartups.com/video-music-photo/kazaa-com-download-music-and-videos-for-free/'
p251
aS'http://kazaa-lite.en.softonic.com/'
p252
aS'http://www.kazaa.com/'
p253
aS'http://en.softonic.com/s/kazaa-free-music-downloads'
p254
aS'http://kazaa-lite-resurrection.en.softonic.com/'
p255
aS'http://www.xmarks.com/site/www.mymusicinc.com/indexa.htm'
p256
aS'http://www.xmarks.com/site/www.mymusicinc.com/indexa.htm%3FaffID=0001762'
p257
aS'http://www.mymusicinc.com/'
p258
aS'http://mymusicinc.com.w3snoop.com/'
p259
aS'http://canada-complaints.com/xf/address/mymusicinc.com---indexa.htm%3FaffID%3D0001443/'
p260
aS'http://www.smoothjazz.com/mobile/'
p261
aS'http://www.smoothjazz.com/help/'
p262
aS'http://www.allaboutjazz.com/'
p263
aS'http://www.sunkazz.com/index.php/en/fun/computer-tricks/172-download-flash-game'
p264
aS'http://www.dosgamesarchive.com/download/jazz-jackrabbit/'
p265
as.