ccollections
defaultdict
p1
(c__builtin__
list
p2
tRp3
S'14555198'
p4
(lp5
S'http://www.avg.com/avg-rescue-cd'
p6
aS'http://support.kaspersky.com/us/4162'
p7
aS'http://support.kaspersky.com/us/viruses/rescuedisk'
p8
aS'http://www.thewindowsclub.com/bootable-antivirus-rescue-cd-windows-free-download'
p9
aS'http://www.comodo.com/business-security/network-protection/rescue-disk.php'
p10
aS'https://www.etsu.edu/'
p11
aS'http://www.etsu.edu/admissions/'
p12
aS'http://www.etsu.edu/etsu/az.asp'
p13
aS'https://goldlink.etsu.edu/'
p14
aS'http://www.etsu.edu/etsuhome/prostudents.aspx'
p15
aS'/search?q=brad+and+angelina&biw=975&bih=440&source=univ&tbm=nws&tbo=u&sa=X&ei=7DTPUp2gOcutsQTLzYGgDg&ved=0CCwQqAI'
p16
aS'/search?q=brad+and+angelina&biw=975&bih=440&tbm=isch&tbo=u&source=univ&sa=X&ei=7DTPUp2gOcutsQTLzYGgDg&ved=0CDYQsAQ'
p17
aS'http://en.wikipedia.org/wiki/Brangelina'
p18
aS'http://www.eonline.com/news/493888/angelina-jolie-and-brad-pitt-take-their-kids-to-the-zoo-in-australia-see-the-adorable-pics'
p19
aS'http://www.wmagazine.com/people/celebrities/2008/11/brad_pitt_angelina_jolie/'
p20
aS'http://www.cartoonnetwork.com/'
p21
aS'http://www.cartoonnetwork.com/games/'
p22
aS'http://www.cartoonnetwork.com/games/fusionfall-heroes/'
p23
aS'http://www.cartoonnetwork.com/games/adventure-time-game-creator/'
p24
aS'http://www.cartoonnetwork.com/tv_shows/legends-of-chima/index.html'
p25
aS'http://www.cartoonnetwork.com/'
p26
aS'http://www.cartoonnetwork.com/games/'
p27
aS'http://www.cartoonnetwork.com/tv_shows/adventuretime/'
p28
aS'http://www.cartoonnetwork.com/games/adventure-time-game-creator/'
p29
aS'http://www.cartoonnetwork.com/tv_shows/teen-titans-go/'
p30
aS'http://www.cartoonnetwork.com/games/'
p31
aS'http://www.cartoonnetwork.com/'
p32
aS'http://www.cartoonnetwork.com/tv_shows/adventuretime/games/'
p33
aS'http://www.cartoonnetwork.com/games/adventure-time-game-creator/'
p34
aS'http://www.cartoonnetwork.com/video/'
p35
aS'http://www.cartoonnetwork.com/games/'
p36
aS'http://www.cartoonnetwork.com/tv_shows/adventuretime/games/'
p37
aS'http://www.cartoonnetwork.com/'
p38
aS'http://www.cartoonnetwork.com/tv_shows/regularshow/games/'
p39
aS'http://www.cartoonnetworkhq.net/games'
p40
aS'http://www.cartoonnetwork.com/'
p41
aS'http://www.cartoonnetwork.com/games/'
p42
aS'http://www.cartoonnetwork.com/games/fusionfall-heroes/'
p43
aS'http://www.cartoonnetwork.com/games/adventure-time-game-creator/'
p44
aS'http://www.cartoonnetwork.com/tv_shows/legends-of-chima/index.html'
p45
aS'http://www.nick.com/'
p46
aS'http://www.nick.com/games/'
p47
aS'http://www.nickelodeon.org/'
p48
aS'http://en.wikipedia.org/wiki/Nickelodeon'
p49
aS'http://en.wikipedia.org/wiki/Nickelodeon_%28movie_theater%29'
p50
aS'http://www.nick.com/'
p51
aS'http://www.nick.com/games/'
p52
aS'http://www.nickelodeon.org/'
p53
aS'http://en.wikipedia.org/wiki/Nickelodeon'
p54
aS'http://en.wikipedia.org/wiki/Nickelodeon_%28movie_theater%29'
p55
aS'https://www.etsu.edu/'
p56
aS'http://www.etsu.edu/admissions/'
p57
aS'http://www.etsu.edu/etsu/az.asp'
p58
aS'https://goldlink.etsu.edu/'
p59
aS'http://www.etsu.edu/etsuhome/prostudents.aspx'
p60
aS'http://www.etsu.edu/kingsport/'
p61
aS'http://www.etsu.edu/academicaffairs/scs/kingsport/contactus.aspx'
p62
aS'http://www.etsu.edu/com/familymed/patients/kingsport/default.aspx'
p63
aS'http://www.etsu.edu/academicaffairs/scs/kingsport/directions.aspx'
p64
aS'http://www.etsu.edu/academicaffairs/scs/kingsport/scholarships.aspx'
p65
aS'http://www.ws.edu/'
p66
aS'https://elearn.ws.edu/'
p67
aS'https://www.ws.edu/athletics/'
p68
aS'http://online.ws.edu/'
p69
aS'http://www.ws.edu/about/jobs/'
p70
aS'http://www.ws.edu/'
p71
aS'https://elearn.ws.edu/'
p72
aS'http://catalog.ws.edu/content.php?catoid=9&navoid=318'
p73
aS'https://www.ws.edu/athletics/'
p74
aS'http://online.ws.edu/'
p75
aS'http://www.goodreads.com/author/show/600248.AOL_s_Online_Advisor_Regina_Lewis'
p76
aS'http://www.amazon.com/s?ie=UTF8&field-author=AOL%27s%20Online%20Advisor%2C%20Regina%20Lewis&page=1&rh=n%3A283155%2Cp_27%3AAOL%27s%20Online%20Advisor%5Cc%20Regina%20Lewis'
p77
aS'http://blog.aol.com/tag/aol+online+advisor/'
p78
aS'http://www.alldiscountbooks.net/_Regina_Lewis_AOL_Online_Advisor_Books_a_.html'
p79
aS'http://www.enom.com/whois/aolonlineadvisor-com.html'
p80
aS'http://www.cbs.com/'
p81
aS'http://www.cbs.com/watch/'
p82
aS'http://www.cbs.com/shows/big_bang_theory/'
p83
aS'http://www.cbs.com/shows/big_brother/'
p84
aS'http://www.cbs.com/shows/survivor/'
p85
aS'http://www.wbir.com/closings/'
p86
aS'http://www.knoxnews.com/closings/'
p87
aS'https://www.facebook.com/pages/East-TN-School-closings/259921937371998'
p88
aS'http://www.wcyb.com/'
p89
aS'http://www.wate.com/category/274389/area-schoolbusiness-closings-and-delays'
p90
aS'http://www.hck12.net/'
p91
aS'http://www.hck12.net/cherokee/chiefs/default.htm'
p92
aS'http://jrp.hck12.net/'
p93
aS'http://rms.hck12.net/'
p94
aS'http://www.hawkinscountytn.gov/'
p95
aS'http://search-logs.com/user/14555198-virus_recovery_disk'
p96
aS'http://www.hck12.net/'
p97
aS'http://www.aolstalker.com/14555198.html'
p98
aS'http://feliksyjyaaqyu.narod.ru/19.html'
p99
aS'http://otylaqupafy.narod.ru/8.html'
p100
aS'http://kes.hck12.net/'
p101
aS'http://www.yellowpages.com/rogersville-tn/mip/keplar-elementary-school-5714262'
p102
aS'http://www.city-data.com/school/keplar-elementary-tn.html'
p103
aS'http://www.zillow.com/rogersville-tn/schools/keplar-elementary-school-80369/'
p104
aS'http://www.trulia.com/schools/TN-Rogersville/Keplar_Elementary_School/'
p105
aS'http://www.ws.edu/'
p106
aS'https://elearn.ws.edu/'
p107
aS'https://www.ws.edu/athletics/'
p108
aS'http://online.ws.edu/'
p109
aS'http://www.ws.edu/about/jobs/'
p110
aS'http://en.wikipedia.org/wiki/Crayfish'
p111
aS'http://www.milb.com/index.jsp?sid=t448'
p112
aS'http://www.crawdads.net/'
p113
aS'https://twitter.com/HickoryCrawdads'
p114
aS'http://www.thefreedictionary.com/Crawdads'
p115
aS'http://answers.yahoo.com/question/?qid=1006041614157'
p116
aS'http://animals.pawnation.com/care-pet-crawdads-1807.html'
p117
aS'http://www.ask.com/question/what-do-crawdads-eat'
p118
aS'http://www.ask.com/question/what-do-freshwater-crawdads-eat'
p119
aS'http://en.wikipedia.org/wiki/Crayfish'
p120
aS'http://www.ask.com/'
p121
aS'http://www.ask.com/question/askjeeves-com'
p122
aS'http://uk.ask.com/'
p123
aS'http://www.askjeeves.com/webtvmirror/index.asp'
p124
aS'http://ask.frynge.com/'
p125
aS'http://en.wikipedia.org/wiki/Dragon_Ball_Z:_Budokai_Tenkaichi'
p126
aS'/search?q=dragon+ball+z+budokai+tenkaichi&biw=975&bih=440&tbm=isch&tbo=u&source=univ&sa=X&ei=fTXPUs7xMqersQTv8IHoCw&ved=0CDcQsAQ'
p127
aS'http://www.youtube.com/watch?v=E0N8EK0Ts7M'
p128
aS'http://dragonball.wikia.com/wiki/Dragon_Ball_Z:_Budokai_Tenkaichi'
p129
aS'http://dragonball.wikia.com/wiki/Dragon_Ball_Z:_Budokai_Tenkaichi_3'
p130
aS'http://www.cheatcc.com/psx2/dragonballzbudokaitenkaichicheatscodes.html'
p131
aS'http://www.gamewinners.com/playstation2/DragonBallZBudokaiTenkaichi.htm'
p132
aS'http://www.neoseeker.com/Games/cheats/PS2/dragon_ball_z_sparking.html'
p133
aS'http://www.gamesradar.com/dragon-ball-z-budokai-tenkaichi/cheats/'
p134
aS'http://www.ign.com/cheats/games/dragon-ball-z-budokai-tenkaichi-ps2-742303'
p135
aS'http://www.cheatcc.com/psx2/dragonballzbudokaitenkaichicheatscodes.html'
p136
aS'http://www.gamewinners.com/playstation2/DragonBallZBudokaiTenkaichi.htm'
p137
aS'http://www.neoseeker.com/Games/cheats/PS2/dragon_ball_z_sparking.html'
p138
aS'http://www.gamesradar.com/dragon-ball-z-budokai-tenkaichi/cheats/'
p139
aS'http://www.gamefaqs.com/ps2/928096-dragon-ball-z-budokai-tenkaichi/cheats'
p140
aS'http://www.ign.com/cheats/games/dragon-ball-z-budokai-3-ps2-679951'
p141
aS'http://www.gamefaqs.com/ps2/920505-dragon-ball-z-budokai-3/cheats'
p142
aS'http://www.cheatcc.com/psx2/dbzb3.html'
p143
aS'http://www.cheatcc.com/xbox360/dragonballzultimatetenkaichicheatscodes.html'
p144
aS'http://www.cheatcc.com/psx2/dragonballzbudokaitenkaichi3cheatscodes.html'
p145
aS'http://www.weather.com/weather/tenday/Rogersville+TN+37857:4:US'
p146
aS'http://www.wunderground.com/weather-forecast/US/TN/Rogersville.html'
p147
aS'http://www.accuweather.com/en/us/rogersville-tn/37857/weather-forecast/335648'
p148
aS'http://www.accuweather.com/en/us/rogersville-tn/37857/hourly-weather-forecast/335648'
p149
aS'http://weather.weatherbug.com/TN/Rogersville-weather.html'
p150
aS'http://www.aolstalker.com/s/www.hotcam01.com/'
p151
aS'http://engrus.com/k/%D1%86%D1%86%D1%86%D1%8E%D1%80%D1%89%D0%B5%D1%81%D1%84%D1%8C01%D1%8E%D1%81%D1%89%D1%8C'
p152
aS'http://search-logs.com/user/14555198-virus_recovery_disk'
p153
aS'http://www.cam4.com/Hotcam01'
p154
aS'http://www.seoscope.net/keyword/my+hotcam01.com'
p155
aS'http://daol.aol.com/articles/greetings/'
p156
aS'http://help.aol.com/article/aol-greetings-is-now-american-greetings/36331'
p157
aS'http://www.americangreetings.com/'
p158
aS'http://www.americangreetings.com/ecards'
p159
aS'http://www.ask.com/question/aol-free-greeting-cards'
p160
aS'http://www.youtube.com/user/LilG877'
p161
aS'http://fubar.com/5827813'
p162
aS'http://fubar.com/lilg877/photo-5827813-0-2851164835'
p163
aS'http://engrus.com/k/%D0%B4%D1%88%D0%B4%D0%BF877'
p164
aS'http://search-logs.com/user/14555198-virus_recovery_disk'
p165
aS'http://engrus.com/k/%D0%B4%D1%88%D0%B4%D0%BF2877'
p166
aS'http://search-logs.com/user/14555198-virus_recovery_disk'
p167
aS'http://feliksyjyaaqyu.narod.ru/19.html'
p168
aS'http://www.aolstalker.com/14555198.html'
p169
aS'http://autokenn.com/nummernschild/LI-LG2'
p170
aS'http://www.tn.gov/'
p171
aS'http://en.wikipedia.org/wiki/Tennessee'
p172
aS'http://www.utk.edu/'
p173
aS'/search?q=tennessee&biw=975&bih=440&source=univ&tbm=nws&tbo=u&sa=X&ei=tjXPUvTyN_HmsATLnoC4DQ&ved=0CEAQqAI'
p174
aS'http://tennessee.edu/'
p175
aS'http://www.ask.com/'
p176
aS'http://answers.ask.com/'
p177
aS'http://about.ask.com/'
p178
aS'http://www.ask.com/question/'
p179
aS'http://www.ask.com/answers/browse?o=1..&l=dir&qsrc=321'
p180
aS'http://www.liveaquaria.com/product/aquarium-fish-supplies.cfm?c=900+1490'
p181
aS'http://www.petco.com/N_10872_30_4294949614/Freshwater-Fish-Fancy-Goldfish-And-Koi.aspx'
p182
aS'http://goldfishkeepers.com/GoldfishCare.php'
p183
aS'http://www.wikihow.com/Care-for-Fancy-Goldfish'
p184
aS'http://www.petsmart.com/product/index.jsp?productId=3924451'
p185
aS'/search?q=fancy+goldfish+eggs&biw=975&bih=440&tbm=isch&tbo=u&source=univ&sa=X&ei=yTXPUu3fLo3NsQTnsYDgDA&ved=0CCkQsAQ'
p186
aS'http://www.aquaticcommunity.com/goldfish/breeding.php'
p187
aS'http://pets.thenest.com/fantail-goldfish-babies-7945.html'
p188
aS'http://www.justanswer.com/pet/345k5-fancy-goldfish-just-laid-third-batch-eggs.html'
p189
aS'http://answers.yahoo.com/question/index?qid=20071122075312AAbyhxL'
p190
aS'http://www.ign.com/cheats/games/yu-yu-hakusho-dark-tournament-ps2-567905'
p191
aS'http://www.ign.com/cheats/games/yu-yu-hakusho-snes-9428'
p192
aS'http://www.neoseeker.com/Games/cheats/PS2/yu_yu_hakusho_dark.html'
p193
aS'http://www.gamewinners.com/GEN/YuYuHakusho.htm'
p194
aS'http://genesis.cheatfreak.com/Yu-Yu-Hakusho-cheats/213-26435.html'
p195
aS'http://www.ign.com/cheats/games/yu-yu-hakusho-dark-tournament-ps2-567905'
p196
aS'http://www.gamefaqs.com/ps2/920534-yu-yu-hakusho-dark-tournament/cheats'
p197
aS'http://www.neoseeker.com/Games/cheats/PS2/yu_yu_hakusho_dark.html'
p198
aS'http://www.cheatcc.com/psx2/yyhdt.html'
p199
aS'http://vgstrategies.about.com/od/ps2cheatscodesxyz/a/YuYuHakushoDT.htm'
p200
aS'http://www.ign.com/cheats/games/yu-yu-hakusho-dark-tournament-ps2-567905'
p201
aS'http://www.gamefaqs.com/ps2/920534-yu-yu-hakusho-dark-tournament/cheats'
p202
aS'http://www.neoseeker.com/Games/cheats/PS2/yu_yu_hakusho_dark.html'
p203
aS'http://www.cheatcc.com/psx2/yyhdt.html'
p204
aS'http://vgstrategies.about.com/od/ps2cheatscodesxyz/a/YuYuHakushoDT.htm'
p205
aS'http://www.spygame.com/'
p206
aS'http://armorgames.com/play/11116/spy'
p207
aS'http://www.spy-games.com/'
p208
aS'http://www.addictinggames.com/action-games/spy-game.jsp'
p209
aS'http://www.coolgames.com/spy.html'
p210
aS'http://cheatcodes.com/'
p211
aS'http://cheatcodes.com/xbox-360/'
p212
aS'http://cheatcodes.com/wii/'
p213
aS'http://cheatcodes.com/ps3/'
p214
aS'http://cheatcodes.com/psp/'
p215
aS'http://www.gamesradar.com/cheats/'
p216
aS'http://www.cheatcc.com/'
p217
aS'http://cheatcodes.com/'
p218
aS'http://www.gamefaqs.com/'
p219
aS'http://www.ign.com/cheats/games'
p220
aS'http://www.gamespy.com/'
p221
aS'http://www.spycheatstuff.com/'
p222
aS'http://www.cheatcc.com/psx2/spyvsspy.html'
p223
aS'http://www.gamefaqs.com/ps2/914904-spy-vs-spy/cheats'
p224
aS'http://www.ign.com/cheats/games/spy-vs-spy-ps2-566199'
p225
aS'http://cheatcodes.com/'
p226
aS'http://cheatcodes.com/xbox-360/'
p227
aS'http://cheatcodes.com/xbox/'
p228
aS'http://cheatcodes.com/ps3/'
p229
aS'http://cheatcodes.com/psp/'
p230
aS'https://www.facebook.com/'
p231
aS'http://www.amazon.com/'
p232
aS'http://www.skype.com/'
p233
aS'http://www.yahoo.com/'
p234
aS'http://www.mercure.com/'
p235
aS'http://ww.spycheats.com/'
p236
aS'http://www.spycheatstuff.com/'
p237
aS'http://www.ign.com/cheats/games/spy-vs-spy-ps2-566199'
p238
aS'http://www.pagesinventory.com/domain/www.spycheats.com.html'
p239
aS'http://www.freewebs.com/jokerlb/'
p240
aS'http://www.spycheats.com/'
p241
aS'http://www.spycheatstuff.com/'
p242
aS'http://www.gamespy.com/'
p243
aS'http://www.freewebs.com/jokerlb/'
p244
aS'http://www.youtube.com/user/ltdevil999'
p245
aS'http://www.arcade-museum.com/cheats.php'
p246
aS'http://cheatcodes.com/'
p247
aS'http://www.cheatcc.com/'
p248
aS'http://www.gamesradar.com/cheats/'
p249
aS'http://www.supercheats.com/'
p250
aS'http://www.cheatcc.com/'
p251
aS'http://www.gamesradar.com/ps3/cheats/'
p252
aS'http://cheatcodes.com/'
p253
aS'http://www.supercheats.com/'
p254
aS'http://www.gamefaqs.com/'
p255
aS'http://us.playstation.com/games/twisted-metal-ps3.html'
p256
aS'http://community.us.playstation.com/t5/Twisted-Metal-Series-General/bd-p/22268'
p257
aS'http://twistedmetal.wikia.com/wiki/Twistedmetal.com_-_Car_Customizer'
p258
aS'http://twistedmetal.wikia.com/'
p259
aS'http://twistedmetalgames.webs.com/'
p260
aS'http://us.playstation.com/games/twisted-metal-ps3.html'
p261
aS'http://community.us.playstation.com/t5/Twisted-Metal-Series-General/bd-p/22268'
p262
aS'http://twistedmetal.wikia.com/wiki/Twistedmetal.com_-_Car_Customizer'
p263
aS'http://twistedmetal.wikia.com/'
p264
aS'http://twistedmetalgames.webs.com/'
p265
aS'http://www.cheatcc.com/ps3/twistedmetalcheatscodes.html'
p266
aS'http://www.cheatcc.com/psx/codes/tm.html'
p267
aS'http://www.gamefaqs.com/ps3/997850-twisted-metal/cheats'
p268
aS'http://www.cheatmasters.com/cheats/33326/Twisted_Metal_cheats.html'
p269
aS'http://www.ign.com/cheats/games/twisted-metal-1996-ps-444'
p270
aS'http://www.wrgsradio.com/'
p271
aS'http://www.wrgsradio.com/Swap%20Shop/Swap%20Shop.htm'
p272
aS'http://tunein.com/radio/WRGS-1370-s22403/'
p273
aS'http://streema.com/radios/WRGS'
p274
aS'http://en.wikipedia.org/wiki/WRGS'
p275
as.