ccollections
defaultdict
p1
(c__builtin__
list
p2
tRp3
S'5893376'
p4
(lp5
S'http://www.dmc-usa.com/Products/Needlework-Threads/Embroidery-Threads/Pearl-Cotton.aspx'
p6
aS'http://www.dmc-usa.com/Products/Needlework-Threads/Embroidery-Threads/Pearl-Cotton-Balls.aspx'
p7
aS'http://www.herrschners.com/product/DMC+8+Pearl+Cotton+Balls+Size+8.aspx'
p8
aS'http://www.joann.com/dmc-pearl-cotton-balls-sz-8-95-yds/prd2583.html'
p9
aS'http://www.123stitch.com/DMC_Pearl_Cotton_8_Ball.html'
p10
aS'http://www.taossunflower.com/'
p11
aS'http://taossunflower.blogspot.com/'
p12
aS'/search?q=taos+sunflower&biw=975&bih=440&tbm=isch&tbo=u&source=univ&sa=X&ei=SDbPUtnaKtCxsATlpYH4Cw&ved=0CDYQsAQ'
p13
aS'http://www.yelp.com/biz/taos-sunflower-specialty-yarns-arroyo-seco'
p14
aS'http://nm.taos.sunflowerguy.com/'
p15
aS'/search?q=washington+fan+palm+photos&biw=975&bih=440&tbm=isch&tbo=u&source=univ&sa=X&ei=TzbPUsD_AdbNsQSWiIGoDQ&ved=0CCkQsAQ'
p16
aS'http://www.palmantics.com/palms/palm_pics.php'
p17
aS'http://plants.usda.gov/java/profile?symbol=WARO'
p18
aS'http://www.sunpalmtrees.com/Palm-Trees-Pictures-California-Fan-Palms.htm'
p19
aS'http://www.hardypalmtrees.com/mexican_fan_palm.htm'
p20
aS'/search?q=washington+fan+palm&biw=975&bih=440&tbm=isch&tbo=u&source=univ&sa=X&ei=VTbPUuLuFumqsAS0moHwCw&ved=0CCkQsAQ'
p21
aS'http://en.wikipedia.org/wiki/Washingtonia_robusta'
p22
aS'http://plants.usda.gov/java/profile?symbol=WARO'
p23
aS'http://www.pollenlibrary.com/Specie/Washingtonia+robusta/'
p24
aS'http://www.floridata.com/ref/w/wash_rob.cfm'
p25
aS'http://en.wikipedia.org/wiki/Heather_Thomas'
p26
aS'http://www.imdb.com/name/nm0001793/'
p27
aS'http://www.youtube.com/watch?v=3oYBpoWejZ8'
p28
aS'http://www.people.com/people/article/0,,20091930,00.html'
p29
aS'http://www.wildheatherdesigns.com/'
p30
aS'http://www.wildheatherdesigns.com/'
p31
aS'http://www.wildheatherdesigns.com/brwitr.html'
p32
aS'http://heatherthomasblog.blogspot.com/'
p33
aS'/search?q=heather+thomas+quilts&biw=975&bih=440&tbm=isch&tbo=u&source=univ&sa=X&ei=YjbPUvWkAumisQSivICYDA&ved=0CEMQsAQ'
p34
aS'http://www.amazon.com/s?rh=n%3A5171%2Cp_lbr_one_browse-bin%3AHeather+Thomas'
p35
aS'http://www.amazon.com/Fiber-Artists-Design-Basics-Beyond/dp/1935726099'
p36
aS'/search?q=heather+thomas+color+theory&biw=975&bih=440&tbm=isch&tbo=u&source=univ&sa=X&ei=aDbPUsrcH4jPsATYw4DgCw&ved=0CC8QsAQ'
p37
aS'http://www.wildheatherdesigns.com/fiargutocode.html'
p38
aS'http://www.pinterest.com/alissanorton/heather-thomas-color-theory/'
p39
aS'http://landauerpub.com/A-Fiber-Artist-s-Guide-to-Color-Design-The-basics-beyond.html'
p40
aS'http://www.asba-art.org/'
p41
aS'http://www.asba-art.org/member-gallery'
p42
aS'http://www.soc-botanical-artists.org/'
p43
aS'http://www.basncr.org/'
p44
aS'http://rmsbartists.blogspot.com/'
p45
aS'https://www.asba-art.org/article/science-botanical-art-trees'
p46
aS'/search?q=botanical+art+society+palm+trees&biw=975&bih=440&tbm=isch&tbo=u&source=univ&sa=X&ei=dTbPUp-NKKTksATo3YD4Cw&ved=0CC8QsAQ'
p47
aS'http://fourarts.org/facilities/the-four-arts-botanical-gardens/'
p48
aS'https://www.facebook.com/SocietyBotanicalArtists'
p49
aS'http://www.tripadvisor.com/Attraction_Review-g34530-d664235-Reviews-The_Society_of_the_Four_Arts-Palm_Beach_Florida.html'
p50
aS'http://www.dbg.org/'
p51
aS'http://www.soc-botanical-artists.org/members/james.php'
p52
aS'http://en.wikipedia.org/wiki/Arecaceae'
p53
aS'http://palmsprings.com/points.html'
p54
aS'http://www.livingdesert.org/history.html'
p55
aS'http://www.vrbo.com/vacation-rentals/usa/california/deserts/borrego-springs'
p56
aS'http://www.homeaway.com/vacation-rentals/california/borrego-springs/r5139'
p57
aS'http://www.borregorentals.com/'
p58
aS'http://www.borregopalms.com/'
p59
aS'http://sites.google.com/site/windgodranch/Home'
p60
aS'http://www.pinterest.com/ktdee72/'
p61
aS'http://www.pinterest.com/katiehaferkamp/'
p62
aS'http://www.spokeo.com/Katie+Haferkamp'
p63
aS'http://www.usa-people-search.com/names/p/Katie-Haferkamp'
p64
aS'http://www.linkedin.com/pub/katie-haferkamp/68/aa/47a'
p65
aS'http://www.pinterest.com/ktdee72/'
p66
aS'http://www.pinterest.com/katiehaferkamp/'
p67
aS'http://www.pinterest.com/katiehaferkamp/pins/'
p68
aS'/search?q=katie+haferkamp&biw=975&bih=440&tbm=isch&tbo=u&source=univ&sa=X&ei=jzbPUrTLLcXLsQTm6YKQCQ&ved=0CDoQsAQ'
p69
aS'http://www.spokeo.com/Katie+Haferkamp'
p70
aS'http://www.peoplebyname.com/people/Haferkamp/Johan'
p71
aS'http://names.whitepages.com/Johann/Haferkamp'
p72
aS'http://records.ancestry.com/Johann_Heinrich_Haferkamp_records.ashx?pid=165558625'
p73
aS'http://www.advancedbackgroundchecks.com/address/4038/Altura/Oceanside/CA'
p74
aS'http://www.mrfa.org/Eisenlord.Rice.Harvest.htm'
p75
aS'http://www.linkedin.com/pub/johann-haferkamp/33/343/842'
p76
aS'http://www.yelp.com/biz/johann-haferkamp-duisburg'
p77
aS'http://names.whitepages.com/Johann/Haferkamp'
p78
aS'http://records.ancestry.com/Johann_Friedrich_Haferkamp_records.ashx?pid=27642305'
p79
aS'http://records.ancestry.com/Johann_Heinrich_Haferkamp_records.ashx?pid=165558625'
p80
aS'/search?q=palm+tree+art&biw=975&bih=440&source=univ&tbm=shop&tbo=u&sa=X&ei=ojbPUqrnDNHKsQSrgoH4Cw&ved=0CCkQsxg'
p81
aS'http://fineartamerica.com/art/all/palm+tree/all'
p82
aS'http://www.art.com/gallery/id--b7108/palm-posters.htm'
p83
aS'/search?q=palm+tree+art&biw=975&bih=440&tbm=isch&tbo=u&source=univ&sa=X&ei=ojbPUqrnDNHKsQSrgoH4Cw&ved=0CFYQsAQ'
p84
aS'http://www.allposters.com/-st/Palm-Trees-Decorative-Art-Posters_c19669_p7_.htm'
p85
aS'/search?q=desert+oasis+art&biw=975&bih=440&source=univ&tbm=shop&tbo=u&sa=X&ei=qDbPUqixH4yzsATp3YCgDA&ved=0CCkQsxg'
p86
aS'/search?q=desert+oasis+art&biw=975&bih=440&tbm=isch&tbo=u&source=univ&sa=X&ei=qDbPUqixH4yzsATp3YCgDA&ved=0CEcQsAQ'
p87
aS'http://www.artsoasis.org/'
p88
aS'http://scottsdalecc.edu/academics/departments/htca/culinary-arts'
p89
aS'http://ancalinar.deviantart.com/art/Desert-Oasis-412593182'
p90
aS'http://www.fallbrookartcenter.org/'
p91
aS'http://fallbrookartcenter.org/exhibitions-a-events.html'
p92
aS'http://www.fallbrookschoolofthearts.org/'
p93
aS'http://www.fallbrookbrandongallery.org/'
p94
aS'https://www.facebook.com/pages/Fallbrook-Art-Center/238256730407'
p95
aS'http://books.google.com/books?id=0p0fAgAAQBAJ&pg=PT229&lpg=PT229&dq=johann+haferkamp+usmc&source=bl&ots=ZHfPlJ4XCk&sig=s0g-TPZ3ihfJnlMtwr1uKFJ24xE&hl=en&sa=X&ei=tTbPUryvHNXesASn5IHwDA&ved=0CCkQ6AEwAA'
p96
aS'http://www.historynet.com/donald-hamblen-one-tough-marine-and-purple-heart-recipient.htm'
p97
aS'http://www.mrfa.org/Eisenlord.Rice.Harvest.htm'
p98
aS'http://books.google.com/books?id=BAsiAgAAQBAJ&pg=PT217&lpg=PT217&dq=johann+haferkamp+usmc&source=bl&ots=6y1v0CnUSK&sig=EnSfV4yQOYYnltdBUaqKmSIxYJI&hl=en&sa=X&ei=tTbPUryvHNXesASn5IHwDA&ved=0CDkQ6AEwAw'
p99
aS'https://www.facebook.com/pages/Col-Johann-Von-Haferkamp-USMC/191291920901235'
p100
aS'http://engrus.com/k/%D0%BB%D1%84%D0%B5%D1%88%D1%83+%D0%B7%D1%80%D1%88%D0%B4%D1%89%D1%82+%D1%80%D1%84%D0%B0%D1%83%D0%BA%D0%BB%D1%84%D1%8C%D0%B7'
p101
aS'http://search-logs.com/user/5893376-dmc_perle_cotton'
p102
aS'http://www.aolstalker.com/s/katie+haferkamp/'
p103
aS'http://www.aolstalker.com/s/katie/0,200'
p104
aS'https://www.facebook.com/highway2heavenbikerchurch'
p105
aS'http://en.wikipedia.org/wiki/MIME'
p106
aS'http://en.wikipedia.org/wiki/Mime_artist'
p107
aS'/search?q=mime&biw=975&bih=440&tbm=isch&tbo=u&source=univ&sa=X&ei=wTbPUtOaNOrMsATnzYH4Cw&ved=0CD8QsAQ'
p108
aS'http://www.iana.org/assignments/media-types'
p109
aS'http://www.webopedia.com/TERM/M/MIME.html'
p110
aS'http://serenasupplee.com/'
p111
aS'http://serenasupplee.com/10original.html'
p112
aS'http://serenasupplee.com/10gallery.html'
p113
aS'http://serenasupplee.com/10cards.html'
p114
aS'/search?q=supplee+serena+artist&biw=975&bih=440&tbm=isch&tbo=u&source=univ&sa=X&ei=yDbPUoi9DPLTsASbmoDoCw&ved=0CEIQsAQ'
p115
aS'http://en.wikipedia.org/wiki/List_of_old-growth_forests'
p116
aS'http://www.wvhighlands.org/VoicePast/VoiceFeb00/Forestry.BG.Feb00Voice.htm'
p117
aS'http://www.fs.fed.us/pnw/forests/west-cascade/douglas-fir/mature/'
p118
aS'http://www.wvencyclopedia.org/articles/1751'
p119
aS'http://www.oregonwild.org/oregon_forests/old_growth_protection/pacific-northwest-research-station-old-growth-a-unique-ecosystem'
p120
aS'http://scholar.google.com/scholar?q=old+growth+forest+southwest&hl=en&as_sdt=0&as_vis=1&oi=scholart&sa=X&ei=1TbPUuiUB5DJsQS3jYL4Cw&ved=0CCgQgQMwAA'
p121
aS'http://library.eri.nau.edu/gsdl/collect/erilibra/archives/HASH3294.dir/doc.pdf'
p122
aS'http://swcenter.fortlewis.edu/Home/ctl/Details/Mid/19161/ItemID/12195.aspx?ContainerSrc=%5BL%5DContainers/CSWS/GrayBg'
p123
aS'http://en.wikipedia.org/wiki/List_of_old-growth_forests'
p124
aS'http://www.fort.usgs.gov/Products/Publications/2218/2218.pdf'
p125
aS'http://www.sfwa.org/'
p126
aS'http://www.envirolink.org/resource.html?itemid=20020417205011843978&catid=8'
p127
aS'http://www.swfa.com/'
p128
aS'http://www.swfa.org.au/'
p129
aS'http://www.wiser.org/organization/view/32ac6e1d902eb7c06a3f4addf855a581'
p130
aS'/search?q=old+growth+forest+southwest+photos&biw=975&bih=440&tbm=isch&tbo=u&source=univ&sa=X&ei=4jbPUuO3CcqrsATv84CoDA&ved=0CCkQsAQ'
p131
aS'http://www.outsideonline.com/photo-galleries/outdoor-adventure/nature/iLCP-Southwest-Oregon.html'
p132
aS'http://ilcp.photoshelter.com/gallery/USA-Southwest-Oregon-2013/G0000W3o9jdTib5M/C0000uqxF3OpXBYM'
p133
aS'https://www.facebook.com/naturarvet.in.english'
p134
aS'http://ncseonline.org/sites/default/files/BOG.pdf'
p135
aS'http://records.ancestry.com/Janet_Voakes_records.ashx?pid=56483372'
p136
aS'http://records.ancestry.com/Janet_Voakes_records.ashx?pid=151589807'
p137
aS'http://search.ancestry.com/cgi-bin/sse.dll?gl=ROOT_CATEGORY&rank=1&new=1&so=3&MSAV=1&msT=1&gss=ms_r_f-2_s&gsfn=Janet&gsln=Voakes&msbdy=&msbpn__ftp=&msddy=&msdpn__ftp=&cpxt=0&catBucket=p&uidh=000&cp=0'
p138
aS'http://www.legacy.com/can-windsor/Obituaries.asp?Page=Notice&PersonID=144224400'
p139
aS'http://www.findagrave.com/cgi-bin/fg.cgi?page=gr&GRid=34275663'
p140
aS'http://search-logs.com/user/5893376-dmc_perle_cotton'
p141
aS'http://www.aolstalker.com/s/voakes+janet/'
p142
aS'http://www.aolstalker.com/s/villa+park+il/'
p143
aS'http://engrus.com/k/%D0%BC%D1%89%D1%84%D0%BB%D1%83%D1%8B+%D0%BE%D1%84%D1%82%D1%83%D0%B5+%D0%BC%D1%88%D0%B4%D0%B4%D1%84+%D0%B7%D1%84%D0%BA%D0%BB+%D1%80%D1%88%D0%BF%D1%80+%D1%8B%D1%81%D1%80%D1%89%D1%89%D0%B4+%D1%88%D0%B4%D0%B4%D1%88%D1%82%D1%89%D1%88%D1%8B+1962'
p144
aS'http://zakafi.pochtamt.ru/Melville-winery.htm'
p145
aS'http://www.starnostar.com/Blair-Adams-vs-Mark-Voakes/7745/31482/Celebrity-Star-Battle-Star-Wars/'
p146
aS'http://www.starnostar.com/Blair-Walsh-vs-Mark-Voakes/26532/31482/Celebrity-Star-Battle-Star-Wars/'
p147
aS'http://www.bgdailynews.com/joe-imel-daily-newsmadeline-blair-of-bowling-green-climbs-up/article_4efe2ba7-cfe8-50a5-ab2c-6aa9572ddccb.html?mode=jqm'
p148
aS'http://www.pdga.com/files/Board_of_Directors_Historical_-_Online_List_0_0.pdf'
p149
aS'http://www.pdga.com/files/documents/Board-of-Directors-Historical.pdf'
p150
aS'http://www.starnostar.com/Blair-Adams-vs-Mark-Voakes/7745/31482/Celebrity-Star-Battle-Star-Wars/'
p151
aS'http://www.starnostar.com/Blair-Walsh-vs-Mark-Voakes/26532/31482/Celebrity-Star-Battle-Star-Wars/'
p152
aS'http://www.bgdailynews.com/joe-imel-daily-newsmadeline-blair-of-bowling-green-climbs-up/article_4efe2ba7-cfe8-50a5-ab2c-6aa9572ddccb.html?mode=jqm'
p153
aS'http://www.pdga.com/files/Board_of_Directors_Historical_-_Online_List_0_0.pdf'
p154
aS'http://www.pdga.com/files/documents/Board-of-Directors-Historical.pdf'
p155
aS'http://search-logs.com/user/5893376-dmc_perle_cotton'
p156
aS'http://www.angieslist.com/companylist/us/il/aurora/voakes-renovations-and-construction-reviews-7764496.htm'
p157
aS'http://search.ancestry.ca/cgi-bin/sse.dll?gl=ROOT_CATEGORY&rank=1&new=1&so=3&MSAV=1&msT=1&gss=ms_f-2_s&gsfn=Villa&gsfn_x=NN&gsln=Voakes&cpxt=0&uidh=3lc&cp=0&mssng0=Floyd&mssns0=Stevenson'
p158
aS'https://pipl.com/directory/name/Villa/Janet/'
p159
aS'http://www.leagueofcities.com/resources/PBCMCA/pdf/committees.pdf'
p160
aS'https://www.facebook.com/jamie.scribner'
p161
aS'http://www.linkedin.com/pub/dir/James/Scribner'
p162
aS'http://www.linkedin.com/pub/jamie-scribner/5/26b/724'
p163
aS'http://www.whitepages.com/name/Ben-Scribner/California'
p164
aS'http://www.whitepages.com/name/Amy-Scribner/California'
p165
aS'http://names.whitepages.com/Wendy/Gangwer'
p166
aS'http://www.aolstalker.com/s/gangwer+jm/'
p167
aS'https://pipl.com/directory/name/Gangwer/460/'
p168
aS'https://pipl.com/directory/name/gangwer/jim/'
p169
aS'https://sites.google.com/site/noblecountyingenweb/obituaries/g-obituaries/gangwer-family'
p170
aS'http://www.gangwer.com/'
p171
aS'http://www.linkedin.com/pub/jim-gangwer/13/7aa/594'
p172
aS'http://www.linkedin.com/pub/jim-gangwer/7/267/143'
p173
aS'http://www.linkedin.com/pub/dir/Jim/Gangwer'
p174
aS'http://www.behance.net/gangwerdesign'
p175
aS'http://www.epilepsyfoundation.org/livingwithepilepsy/healthandwellness/Seizure-Dogs.cfm'
p176
aS'http://www.petmd.com/dog/conditions/neurological/c_dg_epilepsy_idiopathic_genetic'
p177
aS'https://www.epilepsy.com/articles/ar_1084289240'
p178
aS'http://4pawsforability.org/seizure-assistance-dog/'
p179
aS'http://en.wikipedia.org/wiki/Seizure_response_dog'
p180
aS'http://en.wikipedia.org/wiki/Lefty'
p181
aS'http://en.wikipedia.org/wiki/Lefty_Frizzell'
p182
aS'https://www.leftyslefthanded.com/'
p183
aS'http://www.urbandictionary.com/define.php?term=lefty'
p184
aS'http://www.cannondale.com/innovation/lefty_headshok/'
p185
aS'http://www.nps.gov/jotr/index.htm?utm_source=publish2&utm_medium=referral&utm_campaign=www.kpbs.org'
p186
aS'http://www.nps.gov/jotr/planyourvisit/things2do.htm'
p187
aS'http://www.nps.gov/jotr/planyourvisit/directions.htm'
p188
aS'http://www.nps.gov/JOTR/planyourvisit/index.htm'
p189
aS'http://www.nps.gov/jotr/planyourvisit/maps.htm'
p190
aS'http://www.nps.gov/cany/'
p191
aS'http://www.utah.com/nationalparks/canyonlands.htm'
p192
aS'http://en.wikipedia.org/wiki/Canyonlands_National_Park'
p193
aS'http://www.discovermoab.com/canyonlandsnationalpark.htm'
p194
aS'http://www.canyonlands.national-park.com/'
p195
aS'http://www.cnha.org/'
p196
aS'http://www.cnha.org/bookstore.cfm'
p197
aS'http://www.nps.gov/cany/supportyourpark/bookstore.htm'
p198
aS'http://www.nationalparkcentralreservations.com/activity/canyonlands-natural-history-association'
p199
aS'http://www.nationalparkstraveler.com/parks/canyonlands-national-park/park-history-canyonlands-national-park'
p200
aS'/search?q=canyonlands+national+park+photos&biw=975&bih=440&tbm=isch&tbo=u&source=univ&sa=X&ei=OzfPUtXBN_SvsQS86YH4Cw&ved=0CCkQsAQ'
p201
aS'http://www.nps.gov/cany/photosmultimedia/photogallery.htm'
p202
aS'http://www.utah.com/nationalparks/canyonlands/photogallery.htm'
p203
aS'http://travel.nationalgeographic.com/travel/national-parks/canyonlands-national-park/'
p204
aS'http://www.nps.gov/cany/index.htm'
p205
aS'http://janefonda.com/about-my-faith/'
p206
aS'http://en.wikipedia.org/wiki/Jane_Fonda'
p207
aS'http://hollowverse.com/jane-fonda/'
p208
aS'http://www.huffingtonpost.com/2008/11/07/ted-turner-talks-marriage_n_142295.html'
p209
aS'http://www.cbn.com/entertainment/screen/ans_janefonda.aspx'
p210
aS'http://en.wikipedia.org/wiki/Montgomery_Clift'
p211
aS'http://www.biography.com/people/montgomery-clift-9251168'
p212
aS'http://www.imdb.com/name/nm0001050/bio'
p213
aS'http://www.imdb.com/name/nm0001050/'
p214
aS'/search?q=clift+montgomery+biography&biw=975&bih=440&tbm=isch&tbo=u&source=univ&sa=X&ei=SDfPUv2AO7axsATJwYD4Dw&ved=0CEgQsAQ'
p215
aS'/search?q=aceo+tiny+tapestry&biw=975&bih=440&source=univ&tbm=shop&tbo=u&sa=X&ei=TzfPUrXZG9a-sQTl9oAo&ved=0CCkQsxg'
p216
aS'http://www.etsy.com/listing/21322460/aceo-custom-needle-felted-wool-tiny-aceo'
p217
aS'http://www.etsy.com/listing/28861622/aceo-needle-felted-tiny-aceo-wool'
p218
aS'http://www.etsy.com/se-en/listing/62393153/needle-felted-aceo-wool-tapestry-mother'
p219
aS'http://inspirationbykaren.blogspot.com/2009/02/tiny-wool-aceo-tapestry.html'
p220
aS'http://www.ebay.com/itm/ACEO-Abstract-Rose-tapestry-digital-art-print-nitelvr-/151178975292'
p221
aS'http://www.ebay.com/gds/So-whats-an-ACEO-For-the-art-collector-in-all-of-us-/10000000002346954/g.html'
p222
aS'http://www.ebay.com/gds/Making-Small-Faux-Canvases-for-Art-Squared-ACEO-ATC-1-/10000000004632914/g.html'
p223
aS'http://hub.shop.ebay.com.au/'
p224
aS'http://www.youtube.com/playlist?list=PL1711FA60D6278D25'
p225
aS'http://www.amazon.com/Beyond-Weaving-International-Art-Textiles/dp/1930230346'
p226
aS'http://browngrotta.com/pages/c33.php'
p227
aS'http://connection.ebscohost.com/c/articles/26032775/beyond-weaving-international-art-textiles'
p228
aS'http://www.alibris.com/Beyond-Weaving-International-Art-Textiles/book/-193023034'
p229
aS'http://www.tower.com/beyond-weaving-international-art-textiles-madelyn-shaw-kate-irvin-paperback/wapi/122231191'
p230
aS'http://www.petmd.com/dog/care/evr_dg_snake_bites_and_dogs'
p231
aS'/search?q=rattlesnake+bites+dogs&biw=975&bih=440&tbm=isch&tbo=u&source=univ&sa=X&ei=YzfPUp6JGtTMsASaioCIDA&ved=0CDEQsAQ'
p232
aS'http://www.tenakerpetcare.com/index.php?s=95'
p233
aS'http://www.animalmedcenter.com/news-and-press/article/prevention-and-treatment-of-rattlesnake-bites-in-dogs'
p234
aS'http://www.ripleysghosttowns.com/snakebit.html'
p235
aS'http://www.evfac.org/'
p236
aS'http://www.evfac.org/classes.html'
p237
aS'http://www.evfac.org/history.html'
p238
aS'http://www.evfac.org/newsletter.html'
p239
aS'http://www.evfac.org/events.html'
p240
aS'/search?q=fiskar+hoses&biw=975&bih=440&source=univ&tbm=shop&tbo=u&sa=X&ei=cDfPUseHBuqjsQTisYGQDA&ved=0CCkQsxg'
p241
aS'http://www.amazon.com/Fiskars-21050-5-Leak-Proof-Garden-8-Inch/product-reviews/B000F95D26'
p242
aS'http://www.sears.com/lawn-garden-watering-hoses-sprinklers/b-1024014?sbf=brand&sbv=Fiskars'
p243
aS'http://www2.fiskars.com/Gardening-and-Yard-Care/Products/Rain-Barrels-and-Accessories/Salsa-Rain-Barrel-System-with-Original-Diverter'
p244
aS'http://www.soakerhose.com/aquaporefiskars.htm'
p245
aS'http://www.amazon.com/Professional-Soaker-Hose-foot-length/dp/B0002S8LC4'
p246
aS'http://www.amazon.com/Hose-Bib-10-Pressure-Regulator/dp/B0006526J2'
p247
aS'http://www.walmart.com/ip/Melnor-Flat-Soaker-Hose/19725086'
p248
aS'http://www.gardenharvestsupply.com/ProductCart/pc/Swan-Soaker-Hose-1-2-Inch-x-25-Foot-p3348.htm'
p249
aS'http://www.sears.com/craftsman-50-ft-x-1-2-in-soaker-hose/p-07163035000P'
p250
aS'/search?q=joshua+tree+national+park+cactus+photos&biw=975&bih=440&tbm=isch&tbo=u&source=univ&sa=X&ei=fTfPUuHVF6TMsQTLmIHwCw&ved=0CCkQsAQ'
p251
aS'http://www.tripadvisor.com/Attraction_Review-g143037-d116982-Reviews-Cholla_Cactus_Garden-Joshua_Tree_National_Park_California.html'
p252
aS'http://www.canstockphoto.com/images-photos/cactus-tree.html'
p253
aS'http://www.nps.gov/jotr/naturescience/cacti.htm'
p254
aS'http://www.protrails.com/trail/265/joshua-tree-national-park-cholla-cactus-garden'
p255
aS'http://www.nps.gov/jotr/naturescience/cacti.htm'
p256
aS'http://www.nps.gov/deva/naturescience/cacti.htm'
p257
aS'http://www.nps.gov/jotr/planyourvisit/ntrails.htm'
p258
aS'http://www.nps.gov/jotr/naturescience/jtrees.htm'
p259
aS'/search?q=joshua+tree+national+park+cactus&biw=975&bih=440&tbm=isch&tbo=u&source=univ&sa=X&ei=hDfPUt7vBOzMsQTwt4GIBg&ved=0CEEQsAQ'
p260
aS'/search?q=engelmann+prickly+pear+photos&biw=975&bih=440&tbm=isch&tbo=u&source=univ&sa=X&ei=ijfPUqChM5S_sQT2uYGYDA&ved=0CCwQsAQ'
p261
aS'http://www.picsearch.com/Prickly-pear-pictures.html'
p262
aS'http://en.wikipedia.org/wiki/Opuntia_engelmannii'
p263
aS'http://www.desertharvesters.org/native-plant-food-guides-the-desert-can-feed-you/prickly-pear/'
p264
aS'http://www.delange.org/PricklyPear/PricklyPear.htm'
p265
aS'http://en.wikipedia.org/wiki/Sky_island'
p266
aS'http://www.arizonahistoricalsociety.org/education/esperanza/geography/sky_islands/'
p267
aS'http://www.aznps.com/floras.php'
p268
aS'http://www.biologicaldiversity.org/campaigns/sky_islands_conservation/'
p269
aS'http://www.skyislandalliance.org/images/12i%20SIA%20biodiversity.pdf'
p270
aS'http://www.youtube.com/watch?v=FQnhcRdzBTQ'
p271
aS'http://www.youtube.com/watch?v=2qjhROSbkd4'
p272
aS'http://www.youtube.com/watch?v=3a8x5HnBojc'
p273
aS'http://www.youtube.com/watch?v=Qu6dJEomApY'
p274
aS'http://www.myscenicdrives.com/drives/arizona/sky-island-scenic-byway'
p275
aS'http://www.joshuatree.org/'
p276
aS'https://www.joshuatree.org/desert-institute/'
p277
aS'http://www.nps.gov/interp/coop_assn/Downloadables/coopassn_contacts.doc'
p278
aS'http://www.nps.gov/jotr/supportyourpark/coopassociation.htm'
p279
aS'http://www.joshuatree.org/'
p280
as.