ccollections
defaultdict
p1
(c__builtin__
list
p2
tRp3
S'5453204'
p4
(lp5
S'http://www.msnbc.com/hardball'
p6
aS'http://www.imdb.com/title/tt0180734/'
p7
aS'http://en.wikipedia.org/wiki/Hardball_%28film%29'
p8
aS'http://www.nbcnews.com/id/3036697/vp/47452493'
p9
aS'https://twitter.com/hardball'
p10
aS'/search?q=microscopic+photography&biw=975&bih=440&tbm=isch&tbo=u&source=univ&sa=X&ei=sjfPUoO9FtWysQSj7YCYDA&ved=0CDYQsAQ'
p11
aS'http://www.microscopyu.com/smallworld/gallery/'
p12
aS'http://www.wired.com/wiredscience/2009/10/photomicrography/'
p13
aS'http://www.denniskunkel.com/'
p14
aS'http://news.nationalgeographic.com/news/nikon-small-world-competition-microscopic-photos-photomicrograph/'
p15
aS'http://engrus.com/k/%D1%88%D1%82%D0%B0%D1%89+%D1%83%D1%84%D0%BA%D0%B5%D1%80%D1%82%D1%84%D0%BF%D1%83%D0%B4%D1%8B%D1%82%D0%BD%D1%81%D1%8E%D1%89%D0%BA%D0%BF'
p16
aS'http://course.hotbox.ru/hyattlegal-com.htm'
p17
aS'http://imhostereometry.hotbox.ru/www-tn-gov.htm'
p18
aS'http://www.aolstalker.com/s/free+lolkis+info/0,1320'
p19
aS'http://www.aolstalker.com/5453204.html'
p20
aS'http://www.earthangelsnyc.org/'
p21
aS'http://earthangelsnyc.org/success/toby_story2-05.html'
p22
aS'http://www.earthangelsnyc.org/success/eric_story2-05.html'
p23
aS'http://earthangelsnyc.org/howtohelp.html'
p24
aS'http://www.petfinder.com/shelters/NY434.html'
p25
aS'http://www.petfinder.com/shelters/NY434.html'
p26
aS'http://earthangelsnyc.org/success/toby_story2-05.html'
p27
aS'http://www.earthangelsnyc.org/success/eric_story2-05.html'
p28
aS'http://www.alexa.com/siteinfo/earthangelsnyc.org'
p29
aS'http://www.websitelooker.net/www/earthangelsnyc.org'
p30
aS'http://www.yahoo.com/'
p31
aS'http://us.mail.yahoo.com/'
p32
aS'http://news.yahoo.com/'
p33
aS'http://finance.yahoo.com/'
p34
aS'http://my.yahoo.com/'
p35
aS'http://www.cnn.com/'
p36
aS'http://www.cnn.com/US/'
p37
aS'http://www.cnn.com/video/'
p38
aS'http://money.cnn.com/'
p39
aS'http://www.cnn.com/SHOWBIZ/'
p40
aS'http://www.gaypornpicpost.com/'
p41
aS'http://www.gaypornpicpost.com/st/niches/gay-cumshots-porn.shtml'
p42
aS'http://www.gaypornpicpost.com/st/niches/gay-twinks-porn.shtml'
p43
aS'http://www.gaypornpicpost.com/st/niches/gay-bareback-porn.shtml'
p44
aS'http://www.gaypornpicpost.com/st/niches/gay-blowjob-porn.shtml'
p45
aS'http://www.globalmales.com/'
p46
aS'http://www.expireddomainspr.com/whois/globalmales.com.html'
p47
aS'http://www.plotip.com/domain/globalmales.com'
p48
aS'http://sitesstatus.com/domain/www.globalmales.com'
p49
aS'http://cha.qinghua.cc/site_www.globalmales.com.html'
p50
aS'http://turkish-men.com/'
p51
aS'http://www.turkishpersonals.com/'
p52
aS'http://answers.yahoo.com/question/index?qid=20080715042254AA9FPGs'
p53
aS'http://www.youtube.com/watch?v=QKJIAwwfy8M'
p54
aS'http://www.singleturks.com/'
p55
aS'http://en.wikipedia.org/wiki/Lease'
p56
aS'http://en.wikipedia.org/wiki/Leasing'
p57
aS'http://www.mrlandlord.com/lease/'
p58
aS'http://www.thefreedictionary.com/lease'
p59
aS'http://www.investopedia.com/terms/l/lease.asp'
p60
aS'http://www.shopzilla.com/'
p61
aS'http://about.shopzilla.com/'
p62
aS'http://www.shopzilla.com/clothing-accessories/10000000/browse'
p63
aS'https://publisher.shopzilla.com/'
p64
aS'http://www.shopzilla.com/womens-shoes/10110000/products'
p65
aS'http://www.google.com/shopping'
p66
aS'http://en.wikipedia.org/wiki/Google_Shopping'
p67
aS'http://www.googleguide.com/products.html'
p68
aS'http://searchengineland.com/goodbye-froogle-hello-google-product-search-11001'
p69
aS'http://www.urbandictionary.com/define.php?term=froogle'
p70
aS'http://www.nextag.com/'
p71
aS'http://www.nextag.com/Electronics--zz500000zB4z5---html'
p72
aS'http://www.nextag.com/All--zzB0z5---html'
p73
aS'http://www.nextag.com/Clothing-Accessories--zz2700200zB4z5---html'
p74
aS'http://www.nextag.com/Health-Beauty--zz2700063zB4z5---html'
p75
aS'http://www.gaypornpicpost.com/'
p76
aS'http://www.gaypornpicpost.com/st/niches/gay-cumshots-porn.shtml'
p77
aS'http://www.gaypornpicpost.com/st/niches/big-cocks-porn.shtml'
p78
aS'http://www.gaypornpicpost.com/st/niches/gay-twinks-porn.shtml'
p79
aS'http://www.gaypornpicpost.com/st/niches/gay-hardcore-porn.shtml'
p80
aS'http://leitesculinaria.com/75621/recipes-clam-shack-style-fried-clams.html'
p81
aS'http://www.woodmans.com/about/'
p82
aS'http://news.blogs.nytimes.com/2007/08/28/worlds-best-fried-clams/'
p83
aS'http://www.amazon.com/The-England-Clam-Shack-Cookbook/dp/1580174736'
p84
aS'http://www.e-cookbooks.net/articles/ipswich.htm'
p85
aS'http://www.freshdirect.com/'
p86
aS'http://www.freshdirect.com/about/index.jsp'
p87
aS'http://www.freshdirect.com/department.jsp?deptId=fru&trk=gnav'
p88
aS'https://www.freshdirect.com/help/index.jsp?trk=bnav'
p89
aS'http://www.freshdirect.com/help/delivery_info.jsp'
p90
aS'http://www.rosevillepottery.info/'
p91
aS'http://popular.ebay.com/pottery-glass/roseville-pottery.htm'
p92
aS'http://en.wikipedia.org/wiki/Roseville_pottery'
p93
aS'/search?q=roseville+pottery&biw=975&bih=440&tbm=isch&tbo=u&source=univ&sa=X&ei=FTjPUr2CKKnKsQTB6IDYAg&ved=0CEQQsAQ'
p94
aS'http://www.justartpottery.com/roseville-pottery.htm'
p95
aS'http://www.ebay.com/sch/Roseville-/96/i.html'
p96
aS'http://popular.ebay.com/pottery-glass/roseville-pottery.htm'
p97
aS'http://search.ebay.com/ws/search/SaleSearch?fsi=1&satitle=Vintage+1900%27s+Antique+ROSEVILLE+POTTERY+Old+Patterns+8%22+Vase+%7E+REPRINT+AD'
p98
aS'http://www.ebay.com/bhp/antique-roseville-pottery'
p99
aS'http://www.ebay.com/bhp/vintage-roseville-pottery'
p100
aS'http://en.wikipedia.org/wiki/Website'
p101
aS'http://www.getnetwise.org/glossary'
p102
aS'http://squelchdesign.com/web_design_newbury/chinese-domain-name-registration-scams/'
p103
aS'http://www.google.com/alerts'
p104
aS'http://blog.kissmetrics.com/seo-errors-ecommerce-websites/'
p105
aS'http://www.ebay.com/sch/Roseville-/96/i.html'
p106
aS'http://popular.ebay.com/pottery-glass/roseville-pottery.htm'
p107
aS'http://search.ebay.com/ws/search/SaleSearch?fsi=1&satitle=Vintage+1900%27s+Antique+ROSEVILLE+POTTERY+Old+Patterns+8%22+Vase+%7E+REPRINT+AD'
p108
aS'http://www.ebay.com/sch/i.html?_sacat=0&_nkw=roseville+pottery&_frs=1'
p109
aS'http://www.ebay.com/bhp/antique-roseville-pottery'
p110
aS'http://www.rosevillepotterypriceguide.com/'
p111
aS'http://www.realpriceguides.com/rosevilleA/index.htm'
p112
aS'http://www.ebay.com/bhp/roseville-pottery-price'
p113
aS'http://www.roseville-pottery.net/Roseville-Pottery-Prices.htm'
p114
aS'http://antiques.about.com/od/pottery/ig/Roseville-Price-Value-Guide/'
p115
aS'http://www.ebay.com/bhp/zane-ware'
p116
aS'https://www.kovels.com/price-guide/pottery-porcelain-price-guide/zane.html'
p117
aS'http://www.etsy.com/listing/110861895/peters-and-reed-zane-ware-drip-glaze'
p118
aS'http://search.ancestry.com/cgi-bin/sse.dll?gl=allgs&gsfn=Zane&gsln=Ware&gss=seo&ghc=20'
p119
aS'/search?q=zane+ware&biw=975&bih=440&tbm=isch&tbo=u&source=univ&sa=X&ei=NjjPUofXBZWzsASBqYDwCw&ved=0CEQQsAQ'
p120
aS'http://www.ebay.com/sch/Nippon-/160903/i.html'
p121
aS'http://www.ebay.com/gds/HOW-TO-TELL-FAKE-NIPPON-PORCELAIN-FROM-AUTHENTIC-NIPPON-/10000000001250317/g.html'
p122
aS'http://www.kovels.com/Price-Guide/Pottery-Porcelain/Nippon.html'
p123
aS'http://www.nipponcollectorsclub.com/history.html'
p124
aS'http://www.collectorsweekly.com/asian/nippon-porcelain'
p125
aS'http://www.imdb.com/title/tt0262985/'
p126
aS'http://en.wikipedia.org/wiki/Queer_as_Folk_%282000_TV_series%29'
p127
aS'http://en.wikipedia.org/wiki/Queer_as_Folk_%28UK_TV_series%29'
p128
aS'http://www.youtube.com/watch?v=QnqNryiuAoE'
p129
aS'http://www.sho.com/sho/queer-as-folk/home'
p130
aS'http://engrus.com/k/%D1%86%D1%86%D1%86%D1%8E%D1%84%D0%BD%D0%B7%D1%89%D0%BA%D1%82%D0%B7%D1%88%D1%81%D0%B7%D1%89%D1%8B%D0%B5%D1%8E%D1%81%D1%89%D1%8C'
p131
aS'http://www.findili.com/www.gaypornpicpost.com'
p132
aS'http://www.domainpx.com/domain-list-a-1l.8.1e.html'
p133
aS'http://www.sitename-analytics.com/gaypornpicpost.com'
p134
aS'http://visitorsworth.com/www.gaypornpicpost.com'
p135
aS'http://www.annualcreditreport.com/'
p136
aS'http://www.consumer.ftc.gov/articles/pdf-0093-annual-report-request-form.pdf'
p137
aS'http://www.consumer.ftc.gov/articles/0155-free-credit-reports'
p138
aS'http://www.experian.com/assistance/free-annual-credit-report.html'
p139
aS'http://www.equifax.com/answers/free-credit-report/en_cp'
p140
aS'/search?q=maps+southwestern+united+states+%26+mexico&biw=975&bih=440&source=univ&tbm=shop&tbo=u&sa=X&ei=VjjPUpjPHbKnsQTA2YD4Cw&ved=0CCkQsxg'
p141
aS'http://www.map-of-mexico.org/'
p142
aS'http://en.wikipedia.org/wiki/Reconquista_%28Mexico%29'
p143
aS'http://www.worldatlas.com/webimage/countrys/namerica/us.htm'
p144
aS'http://www.worldatlas.com/webimage/countrys/na.htm'
p145
aS'/search?q=maps+new+mexico&biw=975&bih=440&tbm=isch&tbo=u&source=univ&sa=X&ei=XDjPUpHSKKy_sQSW4IDwCw&ved=0CC4QsAQ'
p146
aS'http://www.mapquest.com/maps?state=NM'
p147
aS'http://www.newmexico.org/map/'
p148
aS'http://geology.com/state-map/new-mexico.shtml'
p149
aS'http://geology.com/cities-map/new-mexico.shtml'
p150
aS'http://nypost.com/'
p151
aS'http://nypost.com/sports/'
p152
aS'http://nypost.com/baseball/'
p153
aS'http://nypost.com/news/'
p154
aS'http://nypost.com/entertainment/'
p155
aS'http://www.imdb.com/title/tt0460651/'
p156
aS'http://www.imdb.com/title/tt0118452/'
p157
aS'http://en.wikipedia.org/wiki/Invasion_%28TV_series%29'
p158
aS'http://en.wikipedia.org/wiki/Invasion_%28TV_documentary%29'
p159
aS'http://www.tv.com/shows/invasion/'
p160
aS'http://www.clipart.com/'
p161
aS'http://office.microsoft.com/en-us/images/'
p162
aS'https://openclipart.org/'
p163
aS'http://openclipart.org/tags/TV'
p164
aS'/search?q=clip+art&biw=975&bih=440&tbm=isch&tbo=u&source=univ&sa=X&ei=bzjPUthw08qxBLiogNAM&ved=0CEUQsAQ'
p165
aS'http://www.windsorwindows.com/aboutus/windsorstory.page'
p166
aS'http://www.americanwindowssiding.com/'
p167
aS'http://americancraftsmanwindows.com/'
p168
aS'http://www.northamericanwindow.com/'
p169
aS'http://www.americanwindowandglass.com/'
p170
aS'/search?q=siding&biw=975&bih=440&source=univ&tbm=shop&tbo=u&sa=X&ei=ezjPUq2AC5besATh7YKYDA&ved=0CCkQsxg'
p171
aS'http://www.certainteed.com/products/siding'
p172
aS'http://www.siding.com/'
p173
aS'http://www.jameshardie.com/homeowner/siding.shtml'
p174
aS'http://www.total-roof.com/'
p175
aS'http://www.benjaminmoore.com/en-us/for-contractors/painting-vinyl-and-aluminum-siding'
p176
aS'http://www.thisoldhouse.com/toh/video/0,,1630897,00.html'
p177
aS'http://www.wikihow.com/Paint-Aluminum-Siding'
p178
aS'http://www.imageworkspainting.com/blog/bid/221799/Painting-Aluminum-Siding-On-Your-Home-Can-You-Should-You'
p179
aS'http://www.sherwin-williams.com/property-facility-managers/products/resources/faqs/exterior-product-application-faqs/'
p180
aS'http://www.directbuy.com/'
p181
aS'https://members.directbuy.com/'
p182
aS'http://bergen.directbuy.com/'
p183
aS'http://edison.directbuy.com/'
p184
aS'http://nashville.directbuy.com/'
p185
aS'https://fatsecret.com/calories-nutrition/food/vegetables'
p186
aS'http://www.freedieting.com/tools/calories_in_vegetables.htm'
p187
aS'http://dese.mo.gov/divadm/food/documents/sfs-caloriesinvegfruit.pdf'
p188
aS'https://www.weightlossresources.co.uk/calories/calorie_counter/vegetables.htm'
p189
aS'http://www.fitsugar.com/Calories-Raw-Veggies-8500455'
p190
aS'http://en.wikipedia.org/wiki/Doctor_of_Medicine'
p191
aS'http://www.webmd.com/'
p192
aS'http://www.maryland.gov/'
p193
aS'http://www.mdhelicopters.com/'
p194
aS'http://www.dnr.state.md.us/'
p195
aS'http://www.moscot.com/'
p196
aS'http://www.moscot.com/locations.asp'
p197
aS'https://www.moscot.com/Our_Story.html'
p198
aS'http://www.moscot.com/vintage-eyewear.html'
p199
aS'http://www.moscot.com/living-sol-moscot-at-orchard-delancey-streets-1950_418_13.html'
p200
aS'http://www.pollen.com/'
p201
aS'http://www.pollen.com/iphone.asp'
p202
aS'http://www.pollen.com/allergy-forecast.asp'
p203
aS'http://www.pollen.com/alert.asp'
p204
aS'http://www.weather.com/health/allergy/main'
p205
aS'http://www.gaydemon.com/gallery/'
p206
aS'http://radiomaryja.de/'
p207
aS'http://bananaguide.com/topic/gay-porn-galleries'
p208
aS'http://www.sexhoundlinks.com/'
p209
aS'http://www.edengay.net/'
p210
aS'http://www.freegayporn.com/'
p211
aS'http://www.onlydudes.com/'
p212
aS'http://gay.porn.com/'
p213
aS'http://www.manhub.com/'
p214
aS'http://www.rockettube.com/'
p215
aS'http://www.amazon.com/books-used-books-textbooks/b?node=283155'
p216
aS'http://www.barnesandnoble.com/u/books-bestselling-books/379003057/'
p217
aS'http://books.google.com/'
p218
aS'/search?q=books&biw=975&bih=440&source=univ&tbm=nws&tbo=u&sa=X&ei=sjjPUpy1M-LLsQSBsYHgBw&ved=0CEIQqAI'
p219
aS'http://www.mccc.bkstr.com/'
p220
aS'http://www.mta.info/maps/'
p221
aS'http://www.mta.info/nyct/maps/manbus.pdf'
p222
aS'http://web.mta.info/mnr/html/mnrmap.htm'
p223
aS'http://www.mta.info/maps/submap.html'
p224
aS'http://web.mta.info/lirr/Timetable/lirrmap.htm'
p225
aS'http://engrus.com/k/%D1%86%D1%86%D1%86%D1%8E%D0%BF%D1%84%D0%BD%D0%B7%D1%89%D0%BA%D1%82%D0%B7%D0%B7%D1%88%D1%81%D0%B7%D1%89%D1%8B%D0%B5%D1%8E%D1%81%D1%89%D1%8C'
p226
aS'http://www.aolstalker.com/5453204.html'
p227
aS'http://visitorsworth.com/www.gaypornpicpost.com'
p228
aS'http://ewsite.gr/gaypornpicpost.com'
p229
aS'http://www.whoisentry.com/domains-listing/g/names-0429'
p230
aS'/search?q=vines+fast+growing&biw=975&bih=440&source=univ&tbm=shop&tbo=u&sa=X&ei=xTjPUtbuOtPjsASqioLoCw&ved=0CCkQsxg'
p231
aS'http://www.countryliving.com/outdoor/gardening/fast-growing-vines'
p232
aS'http://www.birdsandblooms.com/gardening/top-10/garden-favorites/top-10-backyard-vines'
p233
aS'http://forums.gardenweb.com/forums/load/farnorth/msg0200453332489.html'
p234
aS'http://homeguides.sfgate.com/fast-growing-evergreen-vines-44998.html'
p235
aS'http://www.hgtv.com/the-carol-duvall-show/video/index.html?PHPSESSID=3adc39ccee4e759f4ed34f0aa95633ff'
p236
aS'http://www.diynetwork.com/carol-duvall-show/show/index.html'
p237
aS'http://en.wikipedia.org/wiki/The_Carol_Duvall_Show'
p238
aS'http://www.tv.com/shows/the-carol-duvall-show/'
p239
aS'http://www.creativehomeartsclub.com/magazine/magazine-articles/articletype/articleview/articleid/123/carol-duvall2'
p240
aS'http://www.aolstalker.com/s/april+2018th+202006+20show/'
p241
aS'http://www.tvguide.com/tvshows/2020/episodes/191340'
p242
aS'http://www.gavialliance.org/about/governance/gavi-board/minutes/2013/21-nov/presentations/07---gavi-alliance-strategy-2016-2020/'
p243
aS'https://www.ereleases.com/pr/dream-big-america-announces-august-13-show-winner-shea-radiance-wins-august-13-show-advances-finals-show-august-27-contestants-announced-august-20-show-165145'
p244
aS'http://www.newark-sherwooddc.gov.uk/media/newarkandsherwood/imagesandfiles/planningpolicy/pdfs/monitoringreports/2012monitoringreports/2012%20HousingMR.pdf'
p245
aS'http://mynorthwest.com/?nid=556&c&v=1158&n=Buckley%2520Log%2520Show&d=2018-04-15'
p246
aS'http://mynorthwest.com/?nid=556&c&v=1158&n=Buckley%2520Log%2520Show&d=2018-04-10'
p247
aS'http://mynorthwest.com/?nid=556&c&v=1158&n=Buckley%2520Log%2520Show&d=2018-04-17'
p248
aS'http://mynorthwest.com/?nid=556&c&v=1659&n=2nd%2520Annual%2520Greg%2520Duffin%2520Car%2520and%2520Motorcycle%2520Show&d=2018-04-16'
p249
aS'http://www.wincalendar.com/April-Calendar/April-2018-Calendar.html'
p250
aS'/search?q=japanese+maple+sango+kaku&biw=975&bih=440&tbm=isch&tbo=u&source=univ&sa=X&ei=3zjPUsuKK9OxsASW0IHADw&ved=0CCkQsAQ'
p251
aS'http://www.missouribotanicalgarden.org/PlantFinder/PlantFinderDetails.aspx?kempercode=d356'
p252
aS'http://www.monrovia.com/plant-catalog/plants/37/coral-bark-japanese-maple.php'
p253
aS'http://davesgarden.com/guides/pf/go/31538/'
p254
aS'http://www.pnwplants.wsu.edu/PlantDisplay.aspx?PlantID=66'
p255
aS'http://en.wikipedia.org/wiki/Sei_whale'
p256
aS'http://www.nmfs.noaa.gov/pr/species/mammals/cetaceans/seiwhale.htm'
p257
aS'http://www.dec.ny.gov/animals/9363.html'
p258
aS'http://www.arkive.org/sei-whale/balaenoptera-borealis/'
p259
aS'http://marinebio.org/species.asp?id=192'
p260
aS'http://www.medicare.gov/pubs/pdf/11022.pdf'
p261
aS'http://www.medicare.gov/coverage/diabetes-supplies-and-services.html'
p262
aS'http://www.medicare.gov/coverage/diabetes-screenings.html'
p263
aS'http://www.medicare.gov/what-medicare-covers/part-b/dme-diabetes-national-mail-order-program.html'
p264
aS'http://www.diabetes.org/advocate/our-priorities/health-care/medicaid-and-medicare.html'
p265
aS'http://www.medicare.gov/coverage/eyeglasses-contact-lenses.html'
p266
aS'http://www.cms.gov/Outreach-and-Education/Medicare-Learning-Network-MLN/MLNProducts/downloads/VisionServices_FactSheet_ICN907165.pdf'
p267
aS'http://www.medicareinteractive.org/page2.php?topic=counselor&page=script&slide_id=1593'
p268
aS'http://www.medicare.com/equipment-and-supplies/eye-care-products/eyeglasses-and-contact-lenses.html'
p269
aS'http://vision.about.com/od/commonvisionproblems/a/Medicare_Vision.htm'
p270
aS'http://www.latintwinks.com/'
p271
aS'http://www.xvideos.com/video1768698/latin_twinks_bareback'
p272
aS'http://www.xvideos.com/favorite/2073911/latino_twinks'
p273
aS'http://www.xnxx.com/video5120363/hot_latin_twinks_bareback_fuck'
p274
aS'http://youngboydick.com/cat/latino/'
p275
aS'http://www.xvideos.com/video219909/latin_gay_porn_hot'
p276
aS'http://www.pornmd.com/gay/bi+latin'
p277
aS'http://www.primox.com/gay-latin-porn.shtml'
p278
aS'http://www.sexhoundlinks.com/categories/pics/latin/'
p279
aS'http://iomacho.com/tag/latin-gay-porn/'
p280
aS'http://www.xvideos.com/video2913787/latino_beefcake_junior_pavanelo_fucking_a_tight_ass'
p281
aS'http://www.manhub.com/watch/150471/latino-beefcake-fucked-by-a-dilf-raw/'
p282
aS'http://www.tube8.com/gay/anal/latino-beefcake-junior-pavanelo-fucking-a-tight-ass/8684201/'
p283
aS'http://www.pornhub.com/view_video.php?viewkey=69119447'
p284
aS'http://denverdaddydawg.tumblr.com/post/24029163742/latino-beefcake'
p285
aS'http://www.bilatinmen.com/nudelatinmen.html'
p286
aS'http://www.xsboys.com/'
p287
aS'http://blboys.xxx/st/niches/latinos-gay-pics.shtml'
p288
aS'http://www.gaydemon.com/gallery/latin_men/'
p289
aS'http://www.gaydar.com/category/photos/latin-gay-men-photos/'
p290
aS'http://www.bilatinmen.com/latin_men_preview/model602/latin_men_preview_602.htm'
p291
aS'http://www.pornmd.com/gay/latin'
p292
aS'http://oldmangaydaddy.com/mov/categorie/gay+latino+porn-1.html'
p293
aS'http://tubegays.xxx/categories/best/latin/1.html'
p294
aS'http://www.xnxx.com/video219896/porn_latin_gay'
p295
aS'http://www.xvideos.com/tags/gay-latino'
p296
aS'http://www.xnxx.com/tags/gay-latino'
p297
aS'http://oldmangaydaddy.com/mov/categorie/gay+latino+porn-1.html'
p298
aS'http://www.bilatinmen.com/nudelatinmen.html'
p299
aS'http://www.gaymaletube.com/Latino-porn/12425-1/page0/'
p300
aS'http://www.onlybigcock.com/keywords/latino_1.php'
p301
aS'http://www.allboner.com/keywords/latino_1.php'
p302
aS'http://www.xnxx.com/video291501/latin_cowboy_and_gay_latino_with_a_big_dick'
p303
aS'http://www.xvideos.com/video2707521/big_dick_latino_fucks'
p304
aS'http://www.xvideos.com/video1773536/big_dick_gay_latino_papi_fucks_a_nice_latin_culo'
p305
aS'http://cumberlink.com/'
p306
aS'http://www.imdb.com/title/tt0443632/'
p307
aS'http://www.imdb.com/title/tt0076683/'
p308
aS'http://en.wikipedia.org/wiki/The_Sentinel_%28short_story%29'
p309
aS'http://lewistownsentinel.com/'
p310
aS'/search?q=ornamental+grasses&biw=975&bih=440&source=univ&tbm=shop&tbo=u&sa=X&ei=KznPUr_KBI7ksASy5YL4Cw&ved=0CCkQsxg'
p311
aS'/search?q=ornamental+grasses&biw=975&bih=440&tbm=isch&tbo=u&source=univ&sa=X&ei=KznPUr_KBI7ksASy5YL4Cw&ved=0CEoQsAQ'
p312
aS'http://www.bhg.com/gardening/flowers/perennials/ornamental-grasses/'
p313
aS'http://urbanext.illinois.edu/grasses/'
p314
aS'http://urbanext.illinois.edu/grasses/understanding.cfm'
p315
aS'http://bab.la/'
p316
aS'http://www.invescopowershares.com/products/overview.aspx?ticker=bab'
p317
aS'http://finance.yahoo.com/q?s=BAB'
p318
aS'http://en.wikipedia.org/wiki/Bab'
p319
aS'http://en.wikipedia.org/wiki/B%C3%A1b'
p320
aS'http://en.wikipedia.org/wiki/Bamboo'
p321
aS'http://en.wikipedia.org/wiki/List_of_Bamboo_species'
p322
aS'https://www.atlassian.com/software/bamboo'
p323
aS'http://bamboobar.com/'
p324
aS'http://www.bamboobarphilly.com/'
p325
aS'http://wikimapia.org/21285857/Jeeva-Nursery-Garden-Kodungaiyur'
p326
aS'http://www.justdial.com/Chennai/Jeeva-Nursery-Garden-%3Cnear%3E-Kodungaiyur/044PXX44-XX44-111207162326-W2U3_BZDET'
p327
aS'http://yellowpages.sulekha.com/chennai/jeeva-nursery-garden-kodungaiyur-chennai_contact-address'
p328
aS'https://foursquare.com/v/jeeva-nursery-garden/52ba9698498e570c88f9935b'
p329
aS'http://sheffield.cylex-uk.co.uk/company/jeeves-facilities-management-ltd-21497427.html'
p330
aS'http://www.redtube.com/273621'
p331
aS'http://www.redtube.com/?search=two+big+dick+latino+boys+having+hot+sex'
p332
aS'http://www.boy-tgp.com/tube/big-dick-latino-boys.html'
p333
aS'http://www.nailedhard.com/index.php?q=emo+boy&p=8'
p334
aS'http://www.redhunterx.com/video-by-id-105571'
p335
aS'http://engrus.com/k/%D0%B8%D1%88%D0%BF%D0%B4%D1%84%D0%B5%D1%88%D1%82%D1%89%D0%B7%D0%BA%D1%88%D1%81%D0%BB%D1%8B%D0%B70%D0%BA%D1%82'
p336
aS'http://wiki.fatal.ru/Comment2649?show_files=1'
p337
aS'http://zakafi.pochtamt.ru/Blank-sleeveless-denim.htm'
p338
aS'http://miliyotiivacoti.narod.ru/index.html'
p339
aS'http://ikiovohmintseva.pochta.ru/1.html'
p340
aS'http://www.bilatinmen.com/nudelatinmen.html'
p341
aS'http://www.pornhub.com/video?c=26'
p342
aS'http://www.nakedpapis.com/nude-latin-men/latino_men.html'
p343
aS'http://www.xvideos.com/video624782/nude_latino_sucking_a_hot_bilatino_guys_dick_then_fucks_his_tight_culo'
p344
aS'http://www.xnxx.com/video5254997/gay_latino_porn_with_nude_men'
p345
aS'http://bilatinmen.com/index1.html'
p346
aS'http://bilatinmen.com/'
p347
aS'http://www.bilatinmen.com/nudelatinmen.html'
p348
aS'http://www.nakedpapis.com/'
p349
aS'http://www.xvideos.com/video4044075/naked_latin_men_doing_gay_porn'
p350
aS'http://www.verizon.com/'
p351
aS'https://entertainment.verizon.com/'
p352
aS'http://www.verizon.com/foryourhome/myaccount/ngen/upr/nlogin.aspx'
p353
aS'http://www.verizonwireless.com/'
p354
aS'http://www.verizonwireless.com/news/article/2010/11/pr2010-11-29.html'
p355
aS'http://www.dickshots.com/post/21723613980/latin-twink-boys'
p356
aS'http://gayrulestube.com/latin-twink-boys-arrange-an-orgy-116225.html'
p357
aS'http://www.zvidz.com/videos/gay/latino-view.html'
p358
aS'http://www.iseekboys.com/latin-twink-boys-fanny-fucker-fun-3598.html'
p359
aS'http://oldmanboytube.com/latin-twink-boys-arrange-an-orgy-578187.html'
p360
aS'http://www.xnxx.com/video2898781/nude_latin_men_stroking_big_latin_dick'
p361
aS'http://bilatinmen.com/'
p362
aS'http://www.bilatinmen.com/nudelatinmen.html'
p363
aS'http://www.xvideos.com/video672693/hot_young_latin_men_with_big_uncut_cocks_suck_and_fuck_each_other'
p364
aS'http://www.pornosleuth.com/gay_porn/latin-men.html'
p365
aS'http://brooklyn.about.com/od/Where-to-Complain/tp/6-Common-Noise-Complaints-in-Brooklyn-Knowing-Where-to-Kvetch-is-Half-the-Battle.htm'
p366
aS'http://www.theatlanticcities.com/neighborhoods/2013/04/yo-im-trying-sleep-here-new-yorks-wonderful-map-noise/5279/'
p367
aS'/search?q=new+york+city+noise+pollution+dogs&biw=975&bih=440&tbm=isch&tbo=u&source=univ&sa=X&ei=bznPUpjfOdSlsQT9p4GoDA&ved=0CDsQsAQ'
p368
aS'http://www.nyc.gov/html/dep/pdf/noise_code_guide.pdf'
p369
aS'http://www.gothamgazette.com/index.php/environment/458-city-turns-deaf-ear-to-noisy-neighbors'
p370
aS'https://www.delivery.com/nyc/barking-dog-luncheonette?utm_source=google&utm_medium=listing&utm_campaign=places'
p371
aS'http://www1.nyc.gov/nyc-resources/service/1187/noise-from-dog'
p372
aS'http://www.barkingdog94.com/'
p373
aS'http://www.menupages.com/restaurants/barking-dog-3/'
p374
aS'http://www.menupages.com/restaurants/barking-dog-2/'
p375
aS'http://www.grownyc.org/greenmarket'
p376
aS'http://www.nyfarmersmarket.com/'
p377
aS'http://www.whatisfresh.com/'
p378
aS'http://www.nyc.gov/html/doh/html/living/cdp-farmersmarkets.shtml'
p379
aS'http://www.nyc.gov/html/doh/downloads/pdf/cdp/farmers-market-map.pdf'
p380
aS'http://www.grownyc.org/greenmarket'
p381
aS'http://www.ny.com/dining/green.html'
p382
aS'http://www.whatisfresh.com/'
p383
aS'http://www.yelp.com/biz/union-square-greenmarket-new-york'
p384
aS'http://gonyc.about.com/cs/photogalleries/a/greenmarkets.htm'
p385
aS'http://www.grownyc.org/brooklynborohallgreenmarket'
p386
aS'http://www.grownyc.org/greenpointgreenmarket'
p387
aS'http://www.brooklyn.com/farmers-greenmarkets.php'
p388
aS'http://www.yelp.com/biz/borough-hall-greenmarket-brooklyn'
p389
aS'http://www.yelp.com/biz/grand-army-plaza-greenmarket-brooklyn'
p390
aS'/search?q=japanese+maple&biw=975&bih=440&source=univ&tbm=shop&tbo=u&sa=X&ei=kDnPUqfKLo7EsATw54CgDA&ved=0CCkQsxg'
p391
aS'http://en.wikipedia.org/wiki/Acer_palmatum'
p392
aS'http://www.bhg.com/gardening/trees-shrubs-vines/trees/japanese-maples/'
p393
aS'http://www.waysidegardens.com/wg-acer-how-to/a/329/'
p394
aS'http://japanese-maple.com/'
p395
aS'/search?q=decorative+grasses&biw=975&bih=440&source=univ&tbm=shop&tbo=u&sa=X&ei=lznPUp-IBaLisASHu4LQDA&ved=0CCkQsxg'
p396
aS'http://www.bhg.com/gardening/flowers/perennials/ornamental-grasses/'
p397
aS'/search?q=decorative+grasses&biw=975&bih=440&tbm=isch&tbo=u&source=univ&sa=X&ei=lznPUp-IBaLisASHu4LQDA&ved=0CFgQsAQ'
p398
aS'http://www.birdsandblooms.com/Gardening/Top-10/Garden-Favorites/Top-10-Ornamental-Grasses'
p399
aS'http://urbanext.illinois.edu/grasses/'
p400
aS'http://calimpli.blogspot.com/2008/10/check-out-freesexypepperscom.html'
p401
aS'http://cheartiorn.blogspot.com/2008/10/see-freesexypepperscom-for-free.html'
p402
aS'http://deininglab.blogspot.com/2008/10/get-freesexypepperscom-online-now.html'
p403
aS'http://www.redtube.com/1896'
p404
aS'http://www.seoscope.net/keyword/free.sexypeppers.com'
p405
aS'http://www.gypornpicpost.com.ph/'
p406
aS'http://engrus.com/k/%D1%86%D1%86%D1%86%D1%8E%D0%BF%D0%BD%D0%B7%D1%89%D0%BA%D1%82%D0%B7%D1%88%D1%81%D0%B7%D1%89%D1%8B%D0%B5%D1%8E%D1%81%D1%89%D1%8C'
p407
aS'http://www.aolstalker.com/s/gypornpicpost.com/'
p408
aS'http://www.findili.com/www.gaypornpicpost.com'
p409
aS'http://users6.nofeehost.com/kudlar/358.html'
p410
aS'/search?q=squirrel+grass&biw=975&bih=440&tbm=isch&tbo=u&source=univ&sa=X&ei=qjnPUo_8A4LksASDwoCIDQ&ved=0CCkQsAQ'
p411
aS'http://www.illinoiswildflowers.info/grasses/plants/squirrel_tail.htm'
p412
aS'http://www.thefreedictionary.com/Squirrel+grass'
p413
aS'https://www.prairiemoon.com/seeds/grasses-sedges-rushes/hordeum-jubatum-squirrel-tail-grass.html'
p414
aS'http://www.seedaholic.com/hordeum-jubatum-squirrel-tail-grass-collection.html'
p415
aS'/search?q=squirrel+tail+grass&biw=975&bih=440&tbm=isch&tbo=u&source=univ&sa=X&ei=sDnPUrK0HLKtsAS204CoDA&ved=0CCkQsAQ'
p416
aS'http://plants.usda.gov/plantguide/pdf/pg_elmu3.pdf'
p417
aS'http://plants.usda.gov/java/profile?symbol=ELEL5'
p418
aS'http://www.illinoiswildflowers.info/grasses/plants/squirrel_tail.htm'
p419
aS'https://www.prairiemoon.com/seeds/grasses-sedges-rushes/hordeum-jubatum-squirrel-tail-grass.html'
p420
aS'http://www.nakedarena.net/'
p421
aS'http://www.nakedarena.net/gbeef/04/'
p422
aS'http://nakedarena.net/updates0412/musclehunks/muscle-men.html'
p423
aS'http://www.nakedarena.net/bodybuilder-muscle-men-big-hard-cocks.html'
p424
aS'http://www.nakedarena.net/best-gay-porn-circle-jerk.html'
p425
aS'http://www.lexus.com/models/allVehicles/'
p426
aS'http://www.ferrari.com/English/GT_Sport%20Cars/Classiche/All_Models/Pages/GranTurismo.aspx'
p427
aS'http://www.allmodelscars.com/'
p428
aS'http://automobiles.honda.com/all-models.aspx'
p429
aS'http://www.audiusa.com/models'
p430
aS'http://www.gaymaletube.com/Midget-porn/5639-1/page/'
p431
aS'http://www.pornmd.com/gay/male+midget'
p432
aS'http://www.pornmd.com/gay/male+midgets'
p433
aS'http://www.pornmd.com/gay/black+male+midget'
p434
aS'http://www.bravoteens.com/tubes/midget%20gay.shtml'
p435
aS'http://www.gaymaletube.com/Midget-porn/5639-1/page/'
p436
aS'http://www.pornmd.com/gay/male+midget'
p437
aS'http://www.pornmd.com/gay/male+midgets'
p438
aS'http://www.pornmd.com/gay/male+dwarfs'
p439
aS'http://www.pichunter.com/tags/streams/Midget_Male_Porn'
p440
aS'http://www.calvarynn.com/'
p441
aS'http://www.ccnn.edu/'
p442
aS'http://ccnn.us/'
p443
aS'http://en.wikipedia.org/wiki/3rd_CCNN_Division_%22Penne_Nere%22'
p444
aS'https://twitter.com/CCNN_News'
p445
aS'http://www.foodnetwork.com/'
p446
aS'http://www.yelp.com/c/west-windsor-township-nj-us/restaurants'
p447
aS'http://www.yelp.com/search?find_desc=Indian+Restaurant&find_loc=West+Windsor+Township,+NJ'
p448
aS'http://businessfinder.nj.com/NJ-West-Windsor/Food-and-Dining'
p449
aS'http://businessfinder.nj.com/NJ-West-Windsor/Chinese-Food'
p450
aS'http://www.picantethetasteofmexico.com/'
p451
aS'http://www.picanteberkeley.com/'
p452
aS'http://picante.r-forge.r-project.org/'
p453
aS'http://www.tripadvisor.com/Restaurant_Review-g46842-d1460429-Reviews-Picante_Taste_of_Mexico-Springfield_New_Jersey.html'
p454
aS'http://www.yelp.com/biz/picante-new-york'
p455
aS'/search?q=blowers+mulchers&biw=975&bih=440&source=univ&tbm=shop&tbo=u&sa=X&ei=4jnPUqSaMrKnsQTA2YD4Cw&ved=0CCkQsxg'
p456
aS'http://www.worx.com/en-US/Blowers_Mulchers.aspx'
p457
aS'http://www.worx.com/en-US/worx_trivac_wg500.aspx'
p458
aS'http://www.amazon.com/WG502-TriVac-Blower-Mulcher-Impeller/dp/B007AQZAW0'
p459
aS'http://www.sunbeltrentals.com/equipment/category.aspx?id=s86'
p460
aS'http://minus.com/'
p461
aS'http://en.wikipedia.org/wiki/Hyphen'
p462
aS'http://www.kiwisbybeat.com/minus.html'
p463
aS'http://www.m-nus.com/'
p464
aS'http://www.hyphenmagazine.com/'
p465
aS'http://www.gaypornpicpost.com/'
p466
aS'http://www.ip-adress.com/ip_tracer/www.gaypornpicpost.com'
p467
aS'http://website.informer.com/gaypornpicpost.com'
p468
aS'http://adult.mostpopularwebsites.net/www.gaypornpicpost.com'
p469
aS'http://www.seoscope.net/site/www.gaypornpicpost.com'
p470
aS'/search?q=solar+garden+lights&biw=975&bih=440&source=univ&tbm=shop&tbo=u&sa=X&ei=9TnPUqbvJYbJsQTI4ID4Cw&ved=0CCwQsxg'
p471
aS'http://www.amazon.com/landscape-lighting/b?ie=UTF8&node=553784'
p472
aS'http://www.homedepot.com/b/Solar/N-5yc1vZ1z0z3pd'
p473
aS'http://www.overstock.com/Home-Garden/Solar-Lights/2042/subcat.html'
p474
aS'http://www.lowes.com/Lighting-Ceiling-Fans/Landscape-Lighting/Solar-Landscape-Lights/_/N-1z0yqsg/pl'
p475
aS'http://www.imdb.com/name/nm0005491/'
p476
aS'http://en.wikipedia.org/wiki/Maura_Tierney'
p477
aS'http://katiecouric.com/videos/maura-tierney-breast-cancer/'
p478
aS'http://www.foxnews.com/health/2012/09/26/er-star-maura-tierney-debunks-chemo-myths-after-breast-cancer/'
p479
aS'http://movies.yahoo.com/person/maura-tierney/'
p480
as.