ccollections
defaultdict
p1
(c__builtin__
list
p2
tRp3
S'2502565'
p4
(lp5
S'http://www.temple.edu/'
p6
aS'http://tumail.temple.edu/'
p7
aS'http://www.temple.edu/admissions/undergraduate'
p8
aS'http://www.temple.edu/hr/departments/employment/jobs_within.htm'
p9
aS'http://www.temple.edu/faculty-and-staff'
p10
aS'http://www.ephenry.com/'
p11
aS'http://www.ephenry.com/products.aspx'
p12
aS'http://www.ephenry.com/project-services/visit-a-distributor.aspx'
p13
aS'http://www.ephenry.com/pavers.aspx'
p14
aS'http://www.ephenry.com/patios.aspx'
p15
aS'http://aces.lfchosting.com/news-2/url.php?key=kodak%20easy%20share%20windows%207'
p16
aS'http://lyypmopmt.tk/kodak-20easy-20share.html'
p17
aS'http://www.epinions.com/Flash_Memory--form_factor_sd_memory_card/search_vertical_%7Eall/pp_%7E3?search_string=kodak%252520easy%252520share%252520system'
p18
aS'http://www.epinions.com/Flash_Memory--capacity__search__16___32_mb/search_vertical_%7Eall/pp_%7E6?search_string=kodak%252520easy%252520share%252520system'
p19
aS'http://www.epinions.com/Flash_Memory--price_range_10_20/search_vertical_%7Eall/pp_%7E4?search_string=kodak%252520easy%252520share%252520system'
p20
aS'http://doylestownvolvo.com/'
p21
aS'http://doylestownvolvo.com/inventory/newsearch/Used/'
p22
aS'http://doylestownvolvo.com/page/service-portal/Doylestown-PA-Volvo-Dealer'
p23
aS'http://www.keystonevolvo.com/'
p24
aS'http://www.yelp.com/biz/keystone-volvo-doylestown'
p25
aS'http://www.united.com/'
p26
aS'https://www.united.com/web/en-Us/Content/reservations/default.aspx'
p27
aS'http://www.united.com/travel/checkin/start.aspx'
p28
aS'https://www.united.com/web/en-us/apps/travel/flightstatus/default.aspx'
p29
aS'https://www.united.com/web/en-US/content/mileageplus/awards/default.aspx'
p30
aS'http://keystonemotors.com/'
p31
aS'http://keystonemotors.com/inventory/newsearch/Used/Special1/Make/Volvo/'
p32
aS'http://keystonemotors.com/inventory/newsearch/Used/'
p33
aS'http://keystonemotors.com/page/service-portal/Berwyn-PA-Volvo-Dealer'
p34
aS'http://keystonemotors.com/Volvo-Dealer-Serving-Doylestown-PA/dl'
p35
aS'http://www.connollypaving.com/'
p36
aS'http://www.connollypaving.com/contactus.asp'
p37
aS'http://www.connollypaving.com/testimonials.asp'
p38
aS'http://www.connollypaving.com/meetourstaff.asp'
p39
aS'http://www.connollypaving.com/albums_masonry.asp'
p40
aS'http://www.archphila.org/'
p41
aS'http://archphila.org/employment/jobs.htm'
p42
aS'http://archphila.org/contact.php'
p43
aS'http://archphila.org/parishes/'
p44
aS'http://www.archphila.org/press%20releases/'
p45
aS'http://www.aolstalker.com/s/drug+20rehabs+20in+20philadelphia+20area/'
p46
aS'http://www.aolstalker.com/s/cancer+20centers+20in+20philadelphia/'
p47
aS'http://www.aolstalker.com/s/drug/0,620'
p48
aS'http://nursing.advanceweb.com/sharedresources/ebook/2010/July/OT070510/pages.xml'
p49
aS'http://clicker.indygobox.com/sitemap.xml'
p50
aS'http://www.aolstalker.com/s/drug+20rehabs+20in+20philadelphia+20area/'
p51
aS'http://www.aolstalker.com/s/cancer+20centers+20in+20philadelphia/'
p52
aS'http://www.aolstalker.com/s/drug/0,620'
p53
aS'http://engrus.com/k/%D0%B2%D0%BA%D0%B3%D0%BF+20%D0%BA%D1%83%D1%80%D1%84%D0%B8%D1%8B+20%D1%88%D1%82+20%D0%B7%D1%80%D1%88%D0%B4%D1%84%D0%B2%D1%83%D0%B4%D0%B7%D1%80%D1%88%D1%84+20%D1%84%D0%BA%D1%83%D1%84'
p54
aS'http://clicker.indygobox.com/sitemap.xml'
p55
aS'https://www.thewatershed.com/'
p56
aS'https://www.thewatershed.com/about/careers/'
p57
aS'https://www.thewatershed.com/tour/'
p58
aS'https://www.thewatershed.com/tour/boca-raton/'
p59
aS'http://www.youtube.com/watch?v=64rnLG0PwvI'
p60
aS'http://horshamclinic.com/'
p61
aS'http://www.horshamclinic.com/employment.html'
p62
aS'http://www.horshamclinic.com/admission.html'
p63
aS'http://www.horshamclinic.com/indexnew.html'
p64
aS'http://www.horshamclinic.com/tour/tour2.htm'
p65
aS'http://doc.forumed.org/medecine/pdflike.php?search=Fort%2520Detrick%2520Phonebook'
p66
aS'http://www.myrtlebeachonline.com/web_search/?q=comcast%2520www%2520whitepages%2520com%2520phone%2520number&page=2'
p67
aS'http://www.medion.com/gb/prod/MEDION%C2%AE+LIFE%C2%AE+S63012+Design+Twin+DECT+Phone+%28MD82269%29+%28B-stock%29/50036843B'
p68
aS'http://www.medion.com/gb/prod/MEDION%C2%AE+LIFE%C2%AE+S63012+Design+Twin+DECT+Phone+%28MD82269%29/50036843A1'
p69
aS'http://www.gumtree.com.au/s-home-phones/wa/condition-new/c18599l3008845'
p70
aS'http://www.whitepages.com/white-pages/hagerstown-md'
p71
aS'http://www.whitepages.com/yellow-pages/hagerstown-md'
p72
aS'http://www.whitepages.com/white-pages/md'
p73
aS'http://hagerstown.findlinks.com/'
p74
aS'http://hagerstown.areaconnect.com/'
p75
aS'http://www.alaska-hobbithole.com/'
p76
aS'http://inianislandsinstitute.org/the-hobbit-hole/'
p77
aS'http://www.youtube.com/watch?v=h2l8Fcfg6yQ'
p78
aS'http://www.youtube.com/watch?v=xYdC89er97s'
p79
aS'/search?q=hobbit+hole+alaska&biw=975&bih=440&source=univ&tbm=nws&tbo=u&sa=X&ei=ZTrPUqCBPfHgsATioYGYDA&ved=0CEEQqAI'
p80
aS'http://www.wellsfargocenterphilly.com/'
p81
aS'http://www.wellsfargocenterphilly.com/events.aspx'
p82
aS'http://www.wellsfargocenterphilly.com/seating-charts.aspx'
p83
aS'http://www.wellsfargocenterphilly.com/tickets.aspx'
p84
aS'http://www.wellsfargocenterphilly.com/history.aspx'
p85
aS'http://www.cbssports.com/'
p86
aS'http://www.cbssports.com/fantasy'
p87
aS'http://www.cbssports.com/collegefootball/scoreboard'
p88
aS'http://www.cbssports.com/nfl'
p89
aS'http://fantasynews.cbssports.com/'
p90
aS'http://philadelphia.cbslocal.com/'
p91
aS'http://philadelphia.cbslocal.com/station/kyw-newsradio/'
p92
aS'http://philadelphia.cbslocal.com/traffic/'
p93
aS'http://philadelphia.cbslocal.com/category/news/'
p94
aS'http://philadelphia.cbslocal.com/station/cbs-3/'
p95
aS'http://www.nbcnews.com/'
p96
aS'http://www.nbcnews.com/id/3032619/'
p97
aS'http://www.nbcnews.com/id/3032525/'
p98
aS'/search?q=nbc+news&biw=975&bih=440&source=univ&tbm=nws&tbo=u&sa=X&ei=fzrPUo3CAa3JsQSk6YLQDA&ved=0CDoQqAI'
p99
aS'http://www.nbcphiladelphia.com/news'
p100
aS'http://money.usnews.com/careers/best-jobs/rankings/the-100-best-jobs'
p101
aS'http://money.usnews.com/money/careers/slideshows/the-25-best-jobs-of-2013'
p102
aS'http://www.bestjobaroundtheworld.com/'
p103
aS'http://www.forbes.com/sites/lauriewerner/2013/08/14/possibly-the-best-job-ever-travel-the-world-and-earn-100000/'
p104
aS'http://www.australia.com/best-jobs.aspx'
p105
aS'http://en.wikipedia.org/wiki/Dodge_Caliber'
p106
aS'http://www.edmunds.com/dodge/caliber/'
p107
aS'http://www.cars.com/dodge/caliber/'
p108
aS'http://www.thecarconnection.com/cars/dodge_caliber'
p109
aS'http://usnews.rankingsandreviews.com/cars-trucks/Dodge_Caliber/'
p110
aS'http://www.sears.com/search=apartment%20size%20washer%20and%20dryer'
p111
aS'http://www.bestbuy.com/site/searchpage.jsp?_dyncharset=ISO-8859-1&_dynSessConf=2746707428230493824&id=pcat17071&type=page&st=apartment+size+washer+and+dryer&sc=Global&cp=1&nrp=15&sp&qp&list=n&iht=y&usc=All+Categories&ks=960'
p112
aS'http://www.walmart.com/ip/Haier-Compact-Washer-Dryer/8112370'
p113
aS'http://www.amazon.com/Sonya-Apartment-110vstainless-Transparent-2-65cu-ft/dp/B008XM3CAW'
p114
aS'http://www.livingdirect.com/Washers-Dryers-Combos/Home_Appliances-Laundry,default,sc.html'
p115
aS'http://www.irs.gov/'
p116
aS'http://www.irs.gov/Forms-&-Pubs'
p117
aS'http://www.irs.gov/Help-&-Resources'
p118
aS'http://www.irs.gov/Refunds/Where%27s-My-Refund-It%27s-Quick,-Easy,-and-Secure.'
p119
aS'http://www.irs.gov/Individuals/Order-a-Transcript'
p120
aS'http://www.hse.gov.uk/prosecutions/'
p121
aS'http://www.prisonpolicy.org/scans/Ohio%20Felon%20Voting%20Rights%20Paper.pdf'
p122
aS'http://en.wikipedia.org/wiki/Criminal_record'
p123
aS'https://records.txdps.state.tx.us/'
p124
aS'http://www.211ct.org/informationlibrary/Documents/Voting%20Rights%20of%20Convicted%20Felons%20pt.asp'
p125
aS'http://en.wikipedia.org/wiki/Macrobiotic_diet'
p126
aS'http://www.webmd.com/diet/macrobiotic-diet'
p127
aS'http://www.cancer.org/treatment/treatmentsandsideeffects/complementaryandalternativemedicine/dietandnutrition/macrobiotic-diet'
p128
aS'http://altmedicine.about.com/od/popularhealthdiets/a/Macrobiotic.htm'
p129
aS'http://health.usnews.com/best-diet/macrobiotic-diet'
p130
aS'http://www.google.com/'
p131
aS'https://play.google.com/store/apps/details?id=com.google.android.gms&hl=en'
p132
aS'http://www.google.com/appsstatus'
p133
aS'http://www.google.com/analytics/'
p134
aS'http://maps.google.com/'
p135
aS'http://en.wikipedia.org/wiki/Gingiva'
p136
aS'http://www.webmd.com/oral-health/guide/receding_gums_causes-treatments'
p137
aS'/search?q=gums&biw=975&bih=440&tbm=isch&tbo=u&source=univ&sa=X&ei=sjrPUsCNBOLLsQSBsYHgBw&ved=0CDkQsAQ'
p138
aS'http://www.perio.org/consumer/types-gum-disease.html'
p139
aS'http://www.nidcr.nih.gov/oralhealth/popularpublications/periodontalgumdisease/'
p140
aS'http://www.volvocars.com/us/'
p141
aS'http://www.volvo.com/'
p142
aS'http://en.wikipedia.org/wiki/Volvo'
p143
aS'/search?q=volvo&biw=975&bih=440&source=univ&tbm=nws&tbo=u&sa=X&ei=uDrPUsTsA_PQsATW7IGIDA&ved=0CE4QqAI'
p144
aS'http://www.volvoofprinceton.com/'
p145
aS'http://www.thompsonvw.net/'
p146
aS'http://www.yellowpages.com/warrington-pa/mip/holberts-volkswagen-8382101'
p147
aS'http://www.citysearch.com/profile/8899873/warrington_pa/holbert_s_volkswagen.html'
p148
aS'https://www.facebook.com/pages/Holberts-Volkswagon/154373511264827'
p149
aS'http://yellowpages.ny1.com/biz/holberts-volkswagon/warrington/pa/18976/58212638'
p150
aS'http://www.yellowpages.com/philadelphia-pa/mip/gegnas-chrysler-plymouth-466240396'
p151
aS'http://www.yelp.com/biz/gegnas-chrysler-plymouth-philadelphia'
p152
aS'http://www.whitepages.com/business/PA/Philadelphia/gegnas-chrysler-plymouth'
p153
aS'http://www.dmv.com/directory/pennsylvania/philadelphia/gegnas-chrysler-plymouth-3875-kensington-ave'
p154
aS'http://www.citysearch.com/profile/37783539/philadelphia_pa/gegnas_chrysler_plymouth.html'
p155
aS'http://www.alaskaair.com/'
p156
aS'http://www.alaskaair.com/planbook'
p157
aS'http://www.alaskaair.com/content/about-us/contact-us/online-help.aspx'
p158
aS'https://www.alaskaair.com/airport/ssl/SelfServiceCheckIn/WebCheckIn.aspx'
p159
aS'http://www.alaskaair.com/content/mileage-plan.aspx'
p160
aS'http://www.expedia.com/'
p161
aS'http://www.expedia.com/Flights'
p162
aS'http://www.expedia.com/Hotel-Search'
p163
aS'http://www.expedia.com/Hotels'
p164
aS'http://www.expedia.com/All-Inclusive-Vacations'
p165
aS'http://www.expedia.com/'
p166
aS'http://www.expedia.com/Flights'
p167
aS'http://www.expedia.com/Cars'
p168
aS'http://www.expedia.com/Hotels'
p169
aS'http://www.expedia.com/Cruises'
p170
aS'http://caloriecount.about.com/'
p171
aS'http://www.myfitnesspal.com/'
p172
aS'http://www.my-calorie-counter.com/'
p173
aS'http://www.webmd.com/diet/healthtool-food-calorie-counter'
p174
aS'http://www.calorieking.com/foods/'
p175
aS'http://www.hopkinsmedicine.org/the_johns_hopkins_hospital/'
p176
aS'http://www.hopkinsmedicine.org/'
p177
aS'http://www.hopkinsmedicine.org/directions/campusmap.html'
p178
aS'http://en.wikipedia.org/wiki/Johns_Hopkins_Hospital'
p179
aS'http://www.jhu.edu/'
p180
aS'http://www.hopkinsmedicine.org/the_johns_hopkins_hospital/'
p181
aS'http://www.hopkinsmedicine.org/'
p182
aS'http://www.hopkinsmedicine.org/directions/campusmap.html'
p183
aS'http://en.wikipedia.org/wiki/Johns_Hopkins_Hospital'
p184
aS'http://www.jhu.edu/'
p185
aS'http://www.cnbc.com/'
p186
aS'http://www.cnbc.com/id/17689937'
p187
aS'http://www.cnbc.com/id/15839263'
p188
aS'http://www.cnbc.com/id/15839121'
p189
aS'http://www.cnbc.com/id/15839171'
p190
aS'http://www.draughthorse.com/'
p191
aS'http://www.draughthorse.com/menu/'
p192
aS'http://www.draughthorse.com/beer-menu/'
p193
aS'http://www.draughthorse.com/about/'
p194
aS'http://www.draughthorse.com/events/'
p195
aS'http://www.panynj.gov/airports/newark-liberty.html'
p196
aS'http://www.panynj.gov/airports/ewr-flight-information.html'
p197
aS'http://www.panynj.gov/airports/airport-parking.cfm'
p198
aS'http://www.panynj.gov/airports/ewr-airport-map.html'
p199
aS'http://www.panynj.gov/airports/ewr-airlines.html'
p200
aS'http://www.mapquest.com/'
p201
aS'http://www.mapquest.com/routeplanner'
p202
aS'http://www.mapquest.com/maps?2a=201+East+Capitol+Street+SE&2c=Washington&2s=DC&2z=20003&form=directions'
p203
aS'http://www.mapquest.com/?le=t&s=name%3AFast+Food&vs='
p204
aS'http://www.mapquest.com/maps?address=1801+fayetteville+St&city=Durham&state=NC'
p205
aS'https://www.thecapitalgrille.com/pages/locations/?id=8013'
p206
aS'http://www.thecapitalgrille.com/'
p207
aS'https://www.thecapitalgrille.com/pages/loc.aspx?id=8013&cmpid=tcg_ll_google'
p208
aS'http://www.opentable.com/capital-grille-philadelphia'
p209
aS'http://www.yelp.com/biz/the-capital-grille-philadelphia'
p210
aS'/search?q=elfin+cove+alaska&biw=975&bih=440&tbm=isch&tbo=u&source=univ&sa=X&ei=EDvPUtehM7WxsASR6oGIDA&ved=0CCkQsAQ'
p211
aS'http://en.wikipedia.org/wiki/Elfin_Cove,_Alaska'
p212
aS'http://www.fishmastersinn.org/'
p213
aS'http://www.tanakulodge.com/'
p214
aS'http://www.eaglecharters.com/elfin.html'
p215
aS'http://www.google.org/publicalerts/alert?aid=9d82668f94249d35&hl=en&gl=US&source=web'
p216
aS'http://www.weather.com/'
p217
aS'http://www.weather.com/weather/tenday/Princeton+Junction+NJ+08550:4:US'
p218
aS'http://www.weather.com/weather/today/Princeton+Junction+NJ+08550'
p219
aS'http://www.weather.com/weather/tenday/08550'
p220
aS'http://minus.com/'
p221
aS'http://en.wikipedia.org/wiki/Hyphen'
p222
aS'http://www.kiwisbybeat.com/minus.html'
p223
aS'http://www.m-nus.com/'
p224
aS'http://www.hyphenmagazine.com/'
p225
aS'http://www.edmunds.com/'
p226
aS'http://www.edmunds.com/used-cars/'
p227
aS'http://www.edmunds.com/whats-hot/'
p228
aS'http://www.edmunds.com/appraisal/'
p229
aS'http://www.edmunds.com/car-reviews/car-reviews-road-tests.html'
p230
aS'http://www.topix.com/city/elfin-cove-ak'
p231
aS'http://sitkasentinel.com/7/2012-05-10-22-08-10/local-news/5407-elfin-cove-lodge-owners-charged-over-residency'
p232
aS'http://www.wunderground.com/weather-forecast/US/AK/Elfin_Cove.html'
p233
aS'http://www.travelalaska.com/Destinations/Communities/Elfin%20Cove.aspx'
p234
aS'http://www.accuweather.com/en/us/elfin-cove-ak/99825/weather-forecast/331783'
p235
aS'http://en.wikipedia.org/wiki/HTTP_Secure'
p236
aS'/search?q=https.&biw=975&bih=440&source=univ&tbm=nws&tbo=u&sa=X&ei=LzvPUovmHbPJsQThroGQBg&ved=0CDQQqAI'
p237
aS'https://www.eff.org/https-everywhere'
p238
aS'https://m.facebook.com/'
p239
aS'https://www.dropbox.com/'
p240
aS'http://www.n3inc.com/'
p241
aS'http://www.n3inc.com/blog/res-q-1250/'
p242
aS'http://www.n3inc.com/omega_faq.html'
p243
aS'http://www.amazon.com/Res-Q-1250-highest-essential-omega-3/dp/B000VJRT18'
p244
aS'http://www.amazon.com/Res-Q-1250-highest-essential-omega-3/product-reviews/B000VJRT18'
p245
aS'https://www.grubhub.com/phoenix/barzinis-italian-restaurant/'
p246
aS'https://www.grubhub.com/boston/hokkaido-restaurant-north-andover/'
p247
aS'https://www.grubhub.com/philly/vitarellis-restaurant--catering/'
p248
aS'https://www.grubhub.com/nyc/brooklyns-finest-pizza--restaurant/'
p249
aS'http://en.wikipedia.org/wiki/Papa_Murphy%27s'
p250
aS'http://www.n3inc.com/'
p251
aS'http://www.n3inc.com/events.html'
p252
aS'http://www.n3inc.com/testimonials.html'
p253
aS'http://beta.n3inc.com/aboutus_ResQ%20Team.html'
p254
aS'http://www.manta.com/c/mxfzwlr/n3-oceanic-inc-res-q'
p255
aS'https://www.riteaid.com/'
p256
aS'https://www.riteaid.com/store-locator'
p257
aS'https://www.riteaid.com/pharmacy'
p258
aS'https://www.riteaid.com/savings/weekly-ad'
p259
aS'http://mywayphotos.riteaid.com/'
p260
aS'http://www.mystore411.com/store/view/75459/CVS-Pharmacy-Huntingdon-Valley'
p261
aS'http://www.support.vcu.edu/about/representatives.html'
p262
aS'http://bethayresveterinary.com/'
p263
aS'https://www.facebook.com/beth.ayers.58'
p264
aS'http://www.stat.cmu.edu/%7Eeayers/'
p265
aS'http://www.mystore411.com/store/view/75459/CVS-Pharmacy-Huntingdon-Valley'
p266
aS'https://foursquare.com/v/cvspharmacy/4b564555f964a520860828e3'
p267
aS'http://bethayresveterinary.com/'
p268
aS'http://bethayresveterinary.com/boarding-kennel.html'
p269
aS'http://www.zipperpages.com/locate/pharmacies-in/Huntingdon_Valley_PA/Bethayres.html'
p270
aS'http://www.whitepages.com/name/Dane-Sontagh/FL'
p271
aS'http://arts.gov/content/douglas-sonntag'
p272
aS'https://www.facebook.com/public/Dane-Allen-Sontagh'
p273
aS'http://www.mylife.com/dane-sontagh'
p274
aS'http://www.mylife.com/danesontagh'
p275
aS'http://www.legacy.com/obituaries/philly/'
p276
aS'http://www.legacy.com/obituaries/philly/obituary-browse.aspx'
p277
aS'http://www.philly.com/philly/obituaries/'
p278
aS'http://www.tributes.com/browse_obituaries?city=Philadelphia&state=PA'
p279
aS'http://www.obituaries.com/'
p280
as.