ccollections
defaultdict
p1
(c__builtin__
list
p2
tRp3
S'2902937'
p4
(lp5
S'http://www.foxnews.com/'
p6
aS'http://www.foxnews.com/politics/'
p7
aS'http://www.foxnews.com/us/'
p8
aS'http://www.foxnews.com/world/'
p9
aS'http://video.foxnews.com/'
p10
aS'http://thegreatgatsby.warnerbros.com/'
p11
aS'http://en.wikipedia.org/wiki/The_Great_Gatsby'
p12
aS'http://www.imdb.com/title/tt1343092/'
p13
aS'http://www.sparknotes.com/lit/gatsby/'
p14
aS'http://www.amazon.com/The-Great-Gatsby-Scott-Fitzgerald/dp/0743273567'
p15
aS'http://content.easybib.com/students/topics-pages/the-great-gatsby/'
p16
aS'http://answers.yahoo.com/question/index?qid=20091110165516AAGRPpV'
p17
aS'http://www.gradesaver.com/the-great-gatsby/study-guide/bibliography/'
p18
aS'http://wiki.answers.com/Q/What_is_the_citation_for_The_Great_Gatsby'
p19
aS'http://ggsymbols.weebly.com/bibliography.html'
p20
aS'http://answers.yahoo.com/question/index?qid=20090402175052AA1jR7p'
p21
aS'http://content.easybib.com/students/topics-pages/the-great-gatsby/'
p22
aS'http://wiki.answers.com/Q/What_is_the_citation_for_The_Great_Gatsby'
p23
aS'http://www.worldcat.org/oclc/32311616?page=citation'
p24
aS'http://libraryguides.cerritos.edu/content.php?pid=307632&sid=2519025'
p25
aS'http://en.wikipedia.org/wiki/The_Great_Gatsby'
p26
aS'http://ebooks.adelaide.edu.au/f/fitzgerald/f_scott/gatsby/'
p27
aS'http://www.amazon.com/The-Great-Gatsby-Scott-Fitzgerald/dp/0743273567'
p28
aS'http://www.sparknotes.com/lit/gatsby/'
p29
aS'/search?q=the+great+gatsby+by+f.+scott+fitzgerald&biw=975&bih=440&tbm=isch&tbo=u&source=univ&sa=X&ei=jDvPUueeJffMsQS4goLwCw&ved=0CE8QsAQ'
p30
aS'http://en.wikipedia.org/wiki/Death_of_a_Salesman'
p31
aS'http://www.sparknotes.com/lit/salesman/'
p32
aS'http://www.amazon.com/Death-Salesman-Arthur-Miller/dp/0822202905'
p33
aS'http://www.cliffsnotes.com/literature/d/death-of-a-salesman/about-death-of-a-salesman'
p34
aS'http://cc.usst.edu.cn/Download/c849567f-a9d0-4250-9b4f-db3b7f3670ed.pdf'
p35
aS'http://www.imdb.com/title/tt0073486/'
p36
aS'http://en.wikipedia.org/wiki/One_Flew_Over_the_Cuckoo%27s_Nest_%28film%29'
p37
aS'http://en.wikipedia.org/wiki/One_Flew_Over_the_Cuckoo%27s_Nest_%28novel%29'
p38
aS'http://www.sparknotes.com/lit/cuckoo/'
p39
aS'http://www.youtube.com/watch?v=2WSyJgydTsA'
p40
aS'http://en.wikipedia.org/wiki/One_Flew_Over_the_Cuckoo%27s_Nest_%28novel%29'
p41
aS'http://www.amazon.com/Flew-Over-Cuckoos-Nest-Signet/dp/0451163966'
p42
aS'http://www.sparknotes.com/lit/cuckoo/'
p43
aS'http://www.goodreads.com/book/show/332613.One_Flew_Over_the_Cuckoo_s_Nest'
p44
aS'http://www.barnesandnoble.com/w/one-flew-over-the-cuckoos-nest-ken-kesey/1100608843?ean=9780451163967'
p45
aS'http://www.youtube.com/watch?v=_T9oXTqTfLM'
p46
aS'http://www.azlyrics.com/lyrics/rocketsummer/neverknew.html'
p47
aS'http://www.sing365.com/music/lyric.nsf/Never-Knew-lyrics-The-Rocket-Summer/3FB4737DC1AD1BD548256FB4000FEAD8'
p48
aS'http://www.plyrics.com/lyrics/rocketsummer/neverknew.html'
p49
aS'http://songmeanings.com/songs/view/3530822107858535909/'
p50
aS'http://www.brainyquote.com/quotes/keywords/role_model.html'
p51
aS'http://www.imdb.com/title/tt0430922/quotes'
p52
aS'http://www.famousquotesandauthors.com/topics/role_models_quotes.html'
p53
aS'http://www.goodreads.com/quotes/tag/role-models'
p54
aS'http://josephsoninstitute.org/quotes/quotations.php?q=Role-models'
p55
aS'http://www.brainyquote.com/quotes/topics/topic_inspirational.html'
p56
aS'http://www.mainquotes.com/'
p57
aS'/search?q=inspirational+quotes&biw=975&bih=440&tbm=isch&tbo=u&source=univ&sa=X&ei=tTvPUrrTLsipsQTkzID4Cw&ved=0CDgQsAQ'
p58
aS'http://www.forbes.com/sites/kevinkruse/2013/05/28/inspirational-quotes/'
p59
aS'http://www.inspirational-quotes.info/'
p60
aS'http://www.avrillavigne.com/'
p61
aS'http://en.wikipedia.org/wiki/Avril_Lavigne'
p62
aS'http://en.wikipedia.org/wiki/Avril_Lavigne_%28album%29'
p63
aS'http://en.wikipedia.org/wiki/Avril_Lavigne_discography'
p64
aS'https://twitter.com/AvrilLavigne'
p65
aS'http://www.youtube.com/watch?v=aKn2cen8c2w'
p66
aS'http://www.metrolyrics.com/anything-but-ordinary-lyrics-avril-lavigne.html'
p67
aS'http://www.azlyrics.com/lyrics/avrillavigne/anythingbutordinary.html'
p68
aS'http://www.sing365.com/music/lyric.nsf/Anything-But-Ordinary-lyrics-Avril-Lavigne/C623E7FEF0DE186448256BB30011D230'
p69
aS'http://www.lyricsfreak.com/a/avril+lavigne/anything+but+ordinary_20010236.html'
p70
aS'http://www.sage.wisc.edu/climate.html'
p71
aS'http://www.morewords.com/contains/wiwsc/'
p72
aS'http://www.aolstalker.com/s/www.wiwsc.edu/'
p73
aS'http://www.wiwsc.com.pl/'
p74
aS'http://commutechallenge.cascade.org/team/4936/'
p75
aS'/search?q=joy+luck+club+by+amy+tan&biw=975&bih=440&source=univ&tbm=shop&tbo=u&sa=X&ei=zzvPUsSGMLOwsASPqYDgDA&ved=0CCkQsxg'
p76
aS'http://www.amazon.com/Joy-Luck-Club-Amy-Tan/dp/0143038095'
p77
aS'http://en.wikipedia.org/wiki/The_Joy_Luck_Club'
p78
aS'http://en.wikipedia.org/wiki/The_Joy_Luck_Club_%28novel%29'
p79
aS'http://www.sparknotes.com/lit/joyluck/'
p80
aS'http://prezi.com/0vyjnl5vc20p/one-flew-over-the-cuckoos-nest/'
p81
aS'http://ahslibraryofbabel.pbworks.com/w/file/fetch/53029262/Old%20Historical%20Literary%20Criticism.docx'
p82
aS'https://wiki.rockwallisd.org/groups/rhs_senior_english/wiki/2226b/'
p83
aS'http://www.cliffsnotes.com/literature/o/one-flew-over-the-cuckoos-nest/critical-essays/the-role-of-women-in-one-flew-over-the-cuckoos-nest'
p84
aS'https://bu.digication.com/fisherandshake/Draft_11'
p85
aS'http://prezi.com/0vyjnl5vc20p/one-flew-over-the-cuckoos-nest/'
p86
aS'http://prezi.com/dbkg5uergilu/one-flew-over-the-cuckoos-nest/'
p87
aS'https://wiki.rockwallisd.org/groups/rhs_senior_english/wiki/2226b/'
p88
aS'https://wiki.rockwallisd.org/groups/rhs_senior_english/wiki/4f243/One_Flew_Over_the_Cuckoos_Nest_by_Ken_Kesey.html'
p89
aS'http://www.cliffsnotes.com/literature/o/one-flew-over-the-cuckoos-nest/critical-essays/the-role-of-women-in-one-flew-over-the-cuckoos-nest'
p90
aS'http://prezi.com/0vyjnl5vc20p/one-flew-over-the-cuckoos-nest/'
p91
aS'http://prezi.com/dbkg5uergilu/one-flew-over-the-cuckoos-nest/'
p92
aS'https://wiki.rockwallisd.org/groups/rhs_senior_english/wiki/2226b/'
p93
aS'https://wiki.rockwallisd.org/groups/rhs_senior_english/wiki/4f243/One_Flew_Over_the_Cuckoos_Nest_by_Ken_Kesey.html'
p94
aS'http://www.cliffsnotes.com/literature/o/one-flew-over-the-cuckoos-nest/critical-essays/the-role-of-women-in-one-flew-over-the-cuckoos-nest'
p95
aS'http://www.goodreads.com/work/quotes/2100252-one-flew-over-the-cuckoo-s-nest-sometimes-a-great-notion-demon-box'
p96
aS'http://www.shmoop.com/one-flew-over-cuckoos-nest/quotes.html'
p97
aS'http://www.sparknotes.com/lit/cuckoo/quotes.html'
p98
aS'http://www.bookrags.com/notes/ofc/quo.html'
p99
aS'http://www.novelguide.com/one-flew-over/top-ten-quotes'
p100
aS'http://chem.wisc.edu/deptfiles/genchem/sstutorial/FunChem.htm'
p101
aS'http://www.chem.uiuc.edu/webfunchem/genchemtutorials.htm'
p102
aS'http://www.sparknotes.com/chemistry/'
p103
aS'http://www.amazon.com/Fundamentals-Chemistry-Edition-Ralph-Burns/dp/0130337196'
p104
aS'http://chemistry.about.com/od/mathsciencefundamentals/'
p105
aS'https://www.goodreads.com/quotes/658142-no-that-nurse-ain-t-some-kinda-monster-chicken-buddy-what'
p106
aS'http://books.google.com/books?id=wCP2qgXwXdUC&pg=PT61&lpg=PT61&dq=seen+%27em+all+over+the+country+and+in+the+homes-people+who+try+to+make+you+weak+so+they+can+get+you+to+toe+the+line+to+follow+their+rules+to+live+like+they+want+you+to.+and+the+best+way+to+do+this+to+get+you+to+knuckle+under+is+to+weaken+you+by+gettin%27&source=bl&ots=UCoD6qXU7Z&sig=7V7KSQLBlDvaBgex_XzU6YGjQh8&hl=en&sa=X&ei=AjzPUqOaIOPUsATcgYH4Cw&ved=0CDAQ6AEwAQ'
p107
aS'http://www.rulit.net/books/one-flew-over-cuckoo-s-nest-read-67227-15.html'
p108
aS'http://socoftw.tumblr.com/post/33275973108/one-flew-over-the-cuckoos-nest-by-ken-kesey-1962'
p109
aS'http://prezi.com/ec6l-hzznvxb/copy-of-one-flew-over-the-cuckoos-nest/'
p110
aS'http://www.azlyrics.com/j/johnson.html'
p111
aS'http://www.azlyrics.com/lyrics/jackjohnson/bettertogether.html'
p112
aS'http://www.azlyrics.com/lyrics/jackjohnson/bananapancakes.html'
p113
aS'http://www.azlyrics.com/lyrics/jackjohnson/sittingwaitingwishing.html'
p114
aS'http://www.azlyrics.com/lyrics/jackjohnson/flake.html'
p115
aS'http://www.azlyrics.com/lyrics/jackjohnson/questions.html'
p116
aS'http://www.metrolyrics.com/questions-lyrics-jack-johnson.html'
p117
aS'http://www.sing365.com/music/lyric.nsf/Questions-lyrics-Jack-Johnson/4A1077F28402C61648257115000DA569'
p118
aS'http://songmeanings.com/songs/view/3530822107858572627/'
p119
aS'http://www.youtube.com/watch?v=D0aHi9UNzwg'
p120
aS'http://www.easybib.com/'
p121
aS'http://www.easybib.com/cite/form/website'
p122
aS'http://content.easybib.com/product-resources/'
p123
aS'http://www.easybib.com/login'
p124
aS'http://www.easybib.com/register'
p125
aS'http://www.easybib.com/'
p126
aS'http://www.easybib.com/cite/form/website'
p127
aS'http://www.easybib.com/cite/form/magazine'
p128
aS'http://www.easybib.com/login'
p129
aS'http://www.easybib.com/cite/form/journal'
p130
aS'http://www.arizona.edu/'
p131
aS'http://www.arizona.edu/future-students'
p132
aS'http://www.arizona.edu/athletics-recreation'
p133
aS'http://www.hr.arizona.edu/jobs'
p134
aS'http://www.arizona.edu/faculty-staff'
p135
aS'http://educatedibm.hotbox.ru/www-doverdirect-com.htm'
p136
aS'http://course.hotbox.ru/atrium-server-atrium-wustl-edu.htm'
p137
aS'http://frilledho.hotbox.ru/free-dtctonary--com.htm'
p138
aS'http://www.aolstalker.com/s/www.arizona.edu/'
p139
aS'http://www.aolstalker.com/s/email.uc.edu/'
p140
aS'/search?q=map+of+arizona&biw=975&bih=440&tbm=isch&tbo=u&source=univ&sa=X&ei=MTzPUq3YM-K_sQTKz4HADw&ved=0CCsQsAQ'
p141
aS'http://www.mapquest.com/maps?state=AZ'
p142
aS'http://geology.com/cities-map/arizona.shtml'
p143
aS'http://www.arizonaguide.com/arizona-travel-info/arizona-maps'
p144
aS'http://www.mapofarizona.net/'
p145
aS'http://www.google.com/'
p146
aS'http://www.google.com/analytics/'
p147
aS'http://usatoday30.usatoday.com/tech/news/2008-09-20-google-arizona_n.htm'
p148
aS'http://www.mapsofworld.com/usa/states/arizona/google-map.html'
p149
aS'/search?q=google&biw=975&bih=440&source=univ&tbm=nws&tbo=u&sa=X&ei=NzzPUsS3NtWzsQTMvIGADA&ved=0CEYQqAI'
p150
aS'http://www.last.fm/music/+free-music-downloads'
p151
aS'http://mp3.com/'
p152
aS'http://download-free-music.en.softonic.com/'
p153
aS'http://www.bearshare.com/'
p154
aS'http://www.jamendo.com/'
p155
aS'http://en.wikipedia.org/wiki/Let_Go_%28Avril_Lavigne_album%29'
p156
aS'http://www.youtube.com/watch?v=jFCA05N8_g8'
p157
aS'http://www.youtube.com/watch?v=AqajUg85Ax4'
p158
aS'http://www.amazon.com/Let-Go-Avril-Lavigne/dp/B000066NW0'
p159
aS'http://www.sing365.com/music/lyric.nsf/Avril-Lavigne-Let-Go-Album/67FB5B0F92A0D50248256BB30011F6CA'
p160
aS'http://www.billboard.com/charts/hot-100'
p161
aS'/search?q=top+songs&biw=975&bih=440&source=univ&tbm=nws&tbo=u&sa=X&ei=SjzPUr3kO_XIsASbv4KADA&ved=0CDUQqAI'
p162
aS'http://www.apple.com/itunes/charts/songs/'
p163
aS'http://www.vh1.com/shows/series/top_20_countdown/'
p164
aS'http://www.metrolyrics.com/top100.html'
p165
aS'http://www.azlyrics.com/lyrics/lmnt/juliet.html'
p166
aS'http://www.youtube.com/watch?v=oT-a6tHcHdk'
p167
aS'http://www.metrolyrics.com/hey-juliet-lyrics-lmnt.html'
p168
aS'http://www.lyricsmode.com/lyrics/l/lmnt/hey_juliet.html'
p169
aS'http://www.lyricsfreak.com/l/lmnt/hey+juliet_20223108.html'
p170
aS'http://www.freetranslation.com/'
p171
aS'http://translation2.paralink.com/'
p172
aS'http://translate.google.com/'
p173
aS'http://free-translation.imtranslator.net/'
p174
aS'http://freetranslation.imtranslator.net/'
p175
aS'http://www.azlyrics.com/i/icanmakeamesslikenobodysbusiness.html'
p176
aS'http://www.azlyrics.com/lyrics/icanmakeamesslikenobodysbusiness/goldrush.html'
p177
aS'http://www.azlyrics.com/lyrics/icanmakeamesslikenobodysbusiness/complications.html'
p178
aS'http://songmeanings.com/songs/view/3530822107858867094/'
p179
aS'http://www.youtube.com/watch?v=QGLzfeb-dWg'
p180
aS'http://www.northwestern.edu/'
p181
aS'http://www.northwestern.edu/admissions/'
p182
aS'http://maps.northwestern.edu/'
p183
aS'http://www.ugadm.northwestern.edu/'
p184
aS'http://www.northwestern.edu/hr/careers/'
p185
aS'http://xanga.com/'
p186
aS'http://www.xanga.com/groups/group.aspx?id=2027'
p187
aS'http://en.wikipedia.org/wiki/Xanga'
p188
aS'http://www.pinterest.com/knt92/quotes-lyrics-3/'
p189
aS'http://www.metrolyrics.com/mukutsuri-lyrics-worship-house.html'
p190
aS'http://news.blogs.cnn.com/category/immigration/'
p191
aS'http://globalpublicsquare.blogs.cnn.com/category/immigration/'
p192
aS'http://www.foxnews.com/us/immigration/'
p193
aS'http://topics.nytimes.com/top/reference/timestopics/subjects/i/immigration-and-emigration/'
p194
aS'http://hmcurrentevents.com/arizona-passes-tough-new-immigration-law/'
p195
aS'http://www.panicatthedisco.com/'
p196
aS'http://en.wikipedia.org/wiki/Panic%21_at_the_Disco'
p197
aS'https://www.facebook.com/panicatthedisco'
p198
aS'http://www.youtube.com/watch?v=vc6vs-l5dkc'
p199
aS'/search?q=panic+at+the+disco&biw=975&bih=440&source=univ&tbm=nws&tbo=u&sa=X&ei=eDzPUr7qFomosQTfjICADA&ved=0CEoQqAI'
p200
aS'http://www.azlyrics.com/p/panicatthedisco.html'
p201
aS'http://www.azlyrics.com/lyrics/panicatthedisco/iwritesinsnottragedies.html'
p202
aS'http://www.azlyrics.com/lyrics/panicatthedisco/nineintheafternoon.html'
p203
aS'http://www.azlyrics.com/lyrics/panicatthedisco/lyingisthemostfunagirlcanhavewithouttakingherclothesoff.html'
p204
aS'http://www.azlyrics.com/lyrics/panicatthedisco/theonlydifferencebetweenmartyrdomandsuicideispresscoverage.html'
p205
aS'http://www.phschool.com/atschool/paso/'
p206
aS'http://www.phschool.com/foreign_languages/'
p207
aS'http://www.pearsonschool.com/index.cfm?locator=PSZu6r&PMDBSUBCATEGORYID=24848&PMDBSITEID=2781&PMDBSUBSOLUTIONID=&PMDBSOLUTIONID=6724&PMDBSUBJECTAREAID=&PMDBCATEGORYID=813&PMDbProgramID=10026'
p208
aS'http://www.cassd63.org/eighthgradetextbooks'
p209
aS'http://pdf403.mijibooks.com/paso-a-paso-level-3-workbook-paperback-PDF-234401.pdf'
p210
aS'http://education.yahoo.com/reference/dict_en_es/'
p211
aS'http://www.spanishdict.com/'
p212
aS'http://dictionary.reverso.net/english-spanish/Spanish%20American'
p213
aS'http://www.merriam-webster.com/dictionary/Spanish%20American'
p214
aS'http://www.thefreedictionary.com/Spanish+America'
p215
aS'http://goggle.com/'
p216
aS'https://support.google.com/websearch/answer/166331?hl=en'
p217
aS'https://play.google.com/store/apps/details?id=com.google.android.apps.unveil&hl=en'
p218
aS'http://en.wikipedia.org/wiki/Goggles'
p219
aS'http://www.goggle-search-engine.org/'
p220
aS'/search?q=double-sided+shirts&biw=975&bih=440&source=univ&tbm=shop&tbo=u&sa=X&ei=mTzPUrSeBqvIsASe4IDoCw&ved=0CCkQsxg'
p221
aS'http://www.zazzle.com/double+sided+tshirts'
p222
aS'http://www.cafepress.com/+double-sided+t-shirts'
p223
aS'http://www.alibaba.com/showroom/double-sided-shirts.html'
p224
aS'/search?q=double-sided+shirts&biw=975&bih=440&tbm=isch&tbo=u&source=univ&sa=X&ei=mTzPUrSeBqvIsASe4IDoCw&ved=0CF8QsAQ'
p225
aS'http://unc.edu/'
p226
aS'http://admissions.unc.edu/'
p227
aS'http://my.unc.edu/'
p228
aS'http://library.unc.edu/'
p229
aS'http://www.unc.edu/prospective-students/'
p230
aS'http://www.uni.edu/becker/Spanish3.html'
p231
aS'/search?q=spanish+web+site&biw=975&bih=440&source=univ&tbm=nws&tbo=u&sa=X&ei=pjzPUqXNK8fJsQTliIL4Cw&ved=0CDUQqAI'
p232
aS'http://www.epa.gov/espanol/'
p233
aS'http://www.studyspanish.com/'
p234
aS'https://conjuguemos.com/'
p235
aS'/search?q=sliver+cellphone&biw=975&bih=440&source=univ&tbm=shop&tbo=u&sa=X&ei=rTzPUrSXA8mosQSWioH4Cw&ved=0CCsQsxg'
p236
aS'http://www.amazon.com/Motorola-ELITE-SLIVER-Bluetooth-Headset/dp/B005PVXKC4'
p237
aS'http://www.overstock.com/Electronics/Motorola-Mot-L7-Pink-Sliver-GSM-Cell-Phone/3343273/product.html'
p238
aS'http://www.aliexpress.com/price/sliver-cell-phone-price.html'
p239
aS'http://m.aliexpress.com/popular/sliver-cell-phone.html'
p240
aS'http://www.youtube.com/watch?v=XPjp6Kv4W7Y'
p241
aS'http://www.azlyrics.com/lyrics/joshkelley/almosthonest.html'
p242
aS'http://en.wikipedia.org/wiki/Almost_Honest'
p243
aS'http://www.sing365.com/music/lyric.nsf/Almost-Honest-lyrics-Josh-Kelley/C92514C77955D1704825705E000C1B97'
p244
aS'http://www.metrolyrics.com/almost-honest-lyrics-josh-kelley.html'
p245
aS'http://www.azlyrics.com/lyrics/joshkelley/almosthonest.html'
p246
aS'http://www.metrolyrics.com/almost-honest-lyrics-josh-kelley.html'
p247
aS'http://www.sing365.com/music/lyric.nsf/Almost-Honest-lyrics-Josh-Kelley/C92514C77955D1704825705E000C1B97'
p248
aS'http://songmeanings.com/songs/view/3530822107858560367/'
p249
aS'http://www.lyricsmania.com/almost_honest_lyrics_josh_kelley.html'
p250
aS'http://minus.com/'
p251
aS'http://en.wikipedia.org/wiki/Hyphen'
p252
aS'http://www.kiwisbybeat.com/minus.html'
p253
aS'http://www.m-nus.com/'
p254
aS'http://www.hyphenmagazine.com/'
p255
as.