ccollections
defaultdict
p1
(c__builtin__
list
p2
tRp3
S'20503720'
p4
(lp5
S'http://www.truevine.net/'
p6
aS'http://truevine.net/directory.html'
p7
aS'http://truevine.net/emailtransition.html'
p8
aS'http://www.truevine.net/contact.html'
p9
aS'http://truevine.net/techsupport.html'
p10
aS'http://en.wikipedia.org/wiki/Joab'
p11
aS'http://www.britannica.com/EBchecked/topic/304156/Joab'
p12
aS'http://hermeneutics.stackexchange.com/questions/2543/why-did-david-advise-solomon-to-kill-joab'
p13
aS'http://www.keyway.ca/htm2003/20031221.htm'
p14
aS'http://rcg.org/youth/articles/0401-twoj.html'
p15
aS'http://jobs.thetimes.co.uk/'
p16
aS'http://articles.timesofindia.indiatimes.com/2013-06-25/strategy/40184603_1_part-time-professionals-start-ups'
p17
aS'http://www.snagajob.com/find-jobs'
p18
aS'http://jobsearch.about.com/od/ptjoblistings/tp/ptjobs.htm'
p19
aS'http://jobsearch.about.com/od/parttimejobs/a/blptjob.htm'
p20
aS'http://www.biblearchaeology.org/post/2005/10/24/The-Bible-Archaeology-and-the-Study-of-Military-Affairs.aspx'
p21
aS'http://www.bible-archaeology.info/war.htm'
p22
aS'http://www.biblestudy.org/maps/map-of-military-victories-of-king-david.html'
p23
aS'http://www.livescience.com/38318-king-david-palace-found-israel.html'
p24
aS'http://www.gci.org/bible/hist/weapons'
p25
aS'http://www.enduringword.com/commentaries/1008.htm'
p26
aS'http://www.biblearchaeology.org/post/2005/10/24/The-Bible-Archaeology-and-the-Study-of-Military-Affairs.aspx'
p27
aS'http://www.gci.org/bible/hist/weapons'
p28
aS'http://books.google.com/books?id=WHY7q1u8mP4C&pg=PA77&lpg=PA77&dq=king+david%27s+battle+strategies&source=bl&ots=9XUou471oG&sig=KKtP9yjMxMWGlknllAu61IdwXbg&hl=en&sa=X&ei=6DzPUpSRAezLsQTw1YL4Cw&ved=0CDwQ6AEwAw'
p29
aS'http://www.biblestudy.org/maps/map-of-military-victories-of-king-david.html'
p30
aS'http://www.academia.edu/1788845/Intro_to_Judaism_and_Jewish_Studies_Syllabi_GSU_'
p31
aS'http://academicjobs.wikia.com/wiki/Jewish_Studies_2012-2013'
p32
aS'http://eteacherbiblical.com/faculty/joab-eichenberg-eilon-phd'
p33
aS'http://www.middlebury.edu/academics/jewish'
p34
aS'http://www.linkedin.com/in/eilon'
p35
aS'http://www.drudgereport.com/'
p36
aS'http://en.wikipedia.org/wiki/Matt_Drudge'
p37
aS'/search?q=matt+drudge&biw=975&bih=440&source=univ&tbm=nws&tbo=u&sa=X&ei=9DzPUoe2LKuhsAT8oIHoCw&ved=0CDoQqAI'
p38
aS'https://twitter.com/DRUDGE'
p39
aS'http://www.drudge.com/'
p40
aS'http://www.justborn.com/get-to-know-us'
p41
aS'http://www.justborn.com/'
p42
aS'http://www.justborn.com/get-to-know-us/our-philosophy'
p43
aS'http://www.justborn.com/get-to-know-us/our-history'
p44
aS'/search?q=just+born+family&biw=975&bih=440&tbm=isch&tbo=u&source=univ&sa=X&ei=-jzPUpPROOmnsQS_o4GgDA&ved=0CEAQsAQ'
p45
aS'http://www.nmrailrunner.com/'
p46
aS'http://www.nmrailrunner.com/rio-metro-schedules/train-schedule/train-weekday'
p47
aS'http://www.nmrailrunner.com/rio-metro-schedules/train-schedule/train-sunday'
p48
aS'http://www.nmrailrunner.com/rio-metro-schedules/train-schedule/train-saturday'
p49
aS'http://www.nmrailrunner.com/stations'
p50
aS'http://www.drudgereport.com/'
p51
aS'http://mattdrudge.com/'
p52
aS'http://www.topix.com/news/matt-drudge'
p53
aS'http://www.drudge.com/'
p54
aS'http://en.wikipedia.org/wiki/Matt_Drudge'
p55
aS'http://www.hannity.com/'
p56
aS'http://en.wikipedia.org/wiki/Sean_Hannity'
p57
aS'/search?q=sean+hannity&biw=975&bih=440&source=univ&tbm=nws&tbo=u&sa=X&ei=DT3PUquBH5e3sAS0nYH4Cw&ved=0CEEQqAI'
p58
aS'https://twitter.com/seanhannity'
p59
aS'http://www.foxnews.com/on-air/personalities/sean-hannity/bio/'
p60
aS'http://www.alan.com/'
p61
aS'http://en.wikipedia.org/wiki/Alan_Colmes'
p62
aS'http://en.wikipedia.org/wiki/Hannity_%26_Colmes'
p63
aS'http://radio.foxnews.com/category/talk/alan-colmes-talk-radio/'
p64
aS'http://radio.foxnews.com/podcast/the-alan-colmes-show/'
p65
aS'http://www.savagearms.com/'
p66
aS'http://www.thefreedictionary.com/savage'
p67
aS'http://www.michaelsavage.wnd.com/'
p68
aS'http://www.s2games.com/savage/'
p69
aS'http://en.wikipedia.org/wiki/Savage'
p70
aS'http://www.wildspiritwolfsanctuary.org/'
p71
aS'http://www.wildspiritwolfsanctuary.org/visit.php'
p72
aS'http://www.wildspiritwolfsanctuary.org/directions.php'
p73
aS'http://www.wildspiritwolfsanctuary.org/contact.php'
p74
aS'http://www.wildspiritwolfsanctuary.org/camping.php'
p75
aS'http://www.wildspiritwolfsanctuary.org/'
p76
aS'http://www.wildspiritwolfsanctuary.org/visit.php'
p77
aS'http://www.wildspiritwolfsanctuary.org/contact.php'
p78
aS'http://www.wildspiritwolfsanctuary.org/directions.php'
p79
aS'http://www.wildspiritwolfsanctuary.org/camping.php'
p80
aS'http://www.writerscollege.com/'
p81
aS'http://www.humber.ca/scapa/programs/school-writers/creative-writing-correspondence'
p82
aS'http://www.institutechildrenslit.com/'
p83
aS'http://www.correspondence.txstate.edu/students/course-offerings.html'
p84
aS'http://en.wikipedia.org/wiki/Famous_Writers_School'
p85
aS'http://www.homeaway.com/search/refined/new-mexico/region:1132/Property+Type:cabin'
p86
aS'http://www.flipkey.com/new-mexico-cabin-rentals/g28952/'
p87
aS'http://www.vrbo.com/vacation-rentals/usa/new-mexico'
p88
aS'http://www.redrivervacationrentals.com/'
p89
aS'http://www.tripadvisor.com/new-mexico-vacation-rentals.html'
p90
aS'http://www.homeaway.com/search/refined/new-mexico/region:1132/Property+Type:cabin'
p91
aS'http://www.flipkey.com/new-mexico-cabin-rentals/g28952/'
p92
aS'http://www.vrbo.com/vacation-rentals/usa/new-mexico'
p93
aS'http://www.redrivervacationrentals.com/'
p94
aS'http://cloudcroft.com/lodging'
p95
aS'http://allrecipes.com/'
p96
aS'http://allrecipes.com/recipe/new-mexico-green-chile-breakfast-burritos/'
p97
aS'http://www.foodnetwork.com/recipes-and-cooking/index.html?utm_source=twitterfeed&utm_medium=twitter'
p98
aS'http://www.simplyrecipes.com/'
p99
aS'/search?q=recipes&biw=975&bih=440&source=univ&tbm=nws&tbo=u&sa=X&ei=QD3PUsX6NK7hsASkwIHwCw&ved=0CFMQqAI'
p100
aS'http://allrecipes.com/recipe/hot-cross-buns-i/'
p101
aS'http://www.bbcgoodfood.com/recipes/2066661/hot-cross-buns'
p102
aS'http://www.simplyrecipes.com/recipes/hot_cross_buns/'
p103
aS'http://thepioneerwoman.com/cooking/2010/04/hot-cross-buns/'
p104
aS'http://www.joyofbaking.com/breakfast/HotCrossBuns.html'
p105
aS'/search?q=sweet+bun+recipes&biw=975&bih=440&tbm=isch&tbo=u&source=univ&sa=X&ei=Tj3PUp-mBJOgsASBvoDwCw&ved=0CCkQsAQ'
p106
aS'http://allrecipes.com/recipe/chinese-sweet-bun-dough/'
p107
aS'http://allrecipes.com/recipe/chinese-sweet-bun-dough/photo-gallery.aspx'
p108
aS'http://www.justapinch.com/recipes/bread/sweet-bread/the-best-sweet-yeast-roll-dough-i.html'
p109
aS'http://www.kingarthurflour.com/recipes/bread/sweet-yeast-breads/buns'
p110
aS'http://southernfood.about.com/od/cinnamonrolls/r/30627f.htm'
p111
aS'http://www.us.penguingroup.com/static/pages/publishersoffice/screeningroom/0910/getcreative/pdf/marmalade_buns_instructions.pdf'
p112
aS'http://www.ft.com/cms/s/0/c708b252-5529-11dd-ae9c-000077b07658.html'
p113
aS'http://www.food.com/recipe/marmalade-buns-171775'
p114
aS'http://thepioneerwoman.com/cooking/2009/04/orange-marmalade-rolls/'
p115
aS'http://easter.betterrecipes.com/easterkids-recipes.html'
p116
aS'http://www.food.com/slideshow/10-easter-treats-for-kids-174'
p117
aS'http://family.go.com/food/easter-dessert-recipes-pg/'
p118
aS'http://www.parenting.com/gallery/easy-easter-dinner-recipes'
p119
aS'http://www.kidspot.com.au/subsection+163+Easter-Recipes.htm'
p120
aS'http://allrecipes.com/recipe/resurrection-rolls/'
p121
aS'http://www.dltk-kids.com/recipes/resurrection_rolls.htm'
p122
aS'http://www.neighborfoodblog.com/2013/03/resurrection-rolls.html'
p123
aS'http://www.motherhoodonadime.com/kids/resurrection-cookies-printable-recipe/'
p124
aS'http://homegrownmom.com/creating-family-times/resurrection-rolls-an-easy-easter-treat/1689'
p125
aS'http://www.musicnotes.com/sheetmusic/mtd.asp?ppn=MN0051994'
p126
aS'http://www.onlinesheetmusic.com/chris-tomlin-a1735.aspx'
p127
aS'http://www.youtube.com/watch?v=cIrp2qjy18E'
p128
aS'http://ebookbrowsee.net/how-great-is-our-god-chris-tomlin-jesse-reeves-sheet-music-key-c-pdf-d233390780'
p129
aS'http://ebookbrowsee.net/piano-sheet-music-chris-tomlin-and-if-our-god-is-for-us-pdf-d385055691'
p130
aS'http://www.brentwoodbenson.com/search/search.do?menuid=12179'
p131
aS'http://www.halleonard.com/product/viewproduct.do?itemid=75723417'
p132
aS'http://www.halleonard.com/product/viewproduct.do?itemid=307362&promotion=568&subsiteid=68&'
p133
aS'http://books.google.com/books?id=3V3EAQAAQBAJ&pg=PT96&lpg=PT96&dq=how+great+is+our+god+chris+tomlin+folio&source=bl&ots=8Zk03rwfBn&sig=8p4y7OwRytWTK9dMNyHanz2_Jy8&hl=en&sa=X&ei=bz3PUtCwDvazsATg5YGwDA&ved=0CDoQ6AEwAw'
p134
aS'http://www.youtube.com/watch?v=FzEOU8H4cK4'
p135
aS'/search?q=sheet+music+how+great+is+our+god&biw=975&bih=440&tbm=isch&tbo=u&source=univ&sa=X&ei=dj3PUubZA8rlsASc84GQDA&ved=0CCkQsAQ'
p136
aS'http://www.musicnotes.com/sheetmusic/mtd.asp?ppn=MN0051994'
p137
aS'http://www.scribd.com/doc/18282715/How-Great-is-Our-God-Piano-Sheet-Music'
p138
aS'http://www.bcnm.com/UserFiles/File/Myra/Musid/How%20Great%20Is%20Our%20God%20LS%20Bb.pdf'
p139
aS'http://www.youtube.com/watch?v=M-U2cYdcxDE'
p140
aS'http://www.weather.com/'
p141
aS'http://www.weather.com/weather/tenday/Philadelphia+PA+USPA1276:1:US'
p142
aS'http://www.weather.com/weather/map/interactive/'
p143
aS'http://www.weather.com/maps/maptype/currentweatherusnational/uscurrentweather_large.html'
p144
aS'http://www.weather.com/services/mobilesplash.html'
p145
aS'http://www.indeed.com/l-Mount-Dora,-FL-jobs.html'
p146
aS'http://www.indeed.com/q-Part-Time-l-Mount-Dora,-FL-jobs.html'
p147
aS'http://jobs.monster.com/l-mount-dora,-fl.aspx'
p148
aS'http://mrilakecounty.com/'
p149
aS'http://www.girlforaday.com/'
p150
aS'http://jobs.saic.com/key/Mount-Dora-FL-32757-Government-jobs.html'
p151
aS'http://ci.mount-dora.fl.us/'
p152
aS'http://www.city-data.com/city/Mount-Dora-Florida.html'
p153
aS'http://www.indeed.com/q-Government-l-Tavares,-FL-jobs.html'
p154
aS'http://www.simplyhired.com/a/local-jobs/city/l-mount+dora,+fl'
p155
aS'http://en.wikipedia.org/wiki/William_Ewart_Gladstone'
p156
aS'http://en.wikipedia.org/wiki/Catherine_Gladstone'
p157
aS'http://www.bookrags.com/biography/william-ewart-gladstone/'
p158
aS'http://www.encyclopedia.com/topic/William_Ewart_Gladstone.aspx'
p159
aS'http://www.yourdictionary.com/william-ewart-gladstone'
p160
aS'http://www.thepeerage.com/p5932.htm'
p161
aS'http://en.wikipedia.org/wiki/Sir_John_Gladstone,_1st_Baronet'
p162
aS'http://genforum.genealogy.com/robertson/messages/7008.html'
p163
aS'http://books.google.com/books?id=IHfBV9mB_v4C&pg=PA4&lpg=PA4&dq=anne+mackenzie+robertson+gladstone&source=bl&ots=Meck60xAEo&sig=e1Cdgqfdjs0KxPGI-eZ8-EtTuoo&hl=en&sa=X&ei=lj3PUrKiLPOpsQS2lICQDA&ved=0CEAQ6AEwAw'
p164
aS'http://www.geni.com/people/Anne-Gladstone/6000000009206611402'
p165
aS'http://en.wikipedia.org/wiki/Klara_Hitler'
p166
aS'/search?q=mother+of+adolf+hitler&biw=975&bih=440&tbm=isch&tbo=u&source=univ&sa=X&ei=nT3PUqXdDPjMsQSumoKQDA&ved=0CEAQsAQ'
p167
aS'http://history1900s.about.com/od/hitleradolf/a/Hitler-Facts.htm'
p168
aS'http://www.historyplace.com/worldwar2/riseofhitler/mother.htm'
p169
aS'http://www.mnn.com/green-tech/research-innovations/stories/dna-tests-show-hitler-had-jewish-and-african-roots'
p170
aS'http://en.wikipedia.org/wiki/Charles_Darwin'
p171
aS'http://www.biography.com/people/charles-darwin-9266433'
p172
aS'http://www.bbc.co.uk/history/historic_figures/darwin_charles.shtml'
p173
aS'http://darwin-online.org.uk/timeline.html'
p174
aS'http://library.thinkquest.org/11273/darwin.html'
p175
aS'http://www.pinterest.com/pumpkinheads/inspirational-quotes-for-moms/'
p176
aS'http://www.thoughts-about-god.com/quotes/quotes-mothers.htm'
p177
aS'http://sayingimages.com/happy-mothers-day-inspiration-quotes-sayings-cards/'
p178
aS'http://www.mothersdaycelebration.com/fifty-inspirational-quotes.html'
p179
aS'http://www.beliefnet.com/Love-Family/Holidays/Mothers-Day/Inspirational-Quotes-About-Mothers.aspx'
p180
aS'http://www.juliabettencourt.com/devotionals.html'
p181
aS'http://childrensministry.com/bible-activities/devotions'
p182
aS'http://childrensministry.com/bible-activities/devotions/6-9-years'
p183
aS'http://www.desperatepreacher.com/kids4christ/results/obj.htm'
p184
aS'http://www.sermons4kids.com/hso.htm'
p185
aS'http://www.cbn.com/spirituallife/devotions/topic_mothers_day.aspx'
p186
aS'http://www.cbn.com/spirituallife/Devotions/noebel_mothers_love.aspx'
p187
aS'http://www.cbn.com/spirituallife/devotions/markland_mother.aspx'
p188
aS'http://faithfulprovisions.com/2012/04/30/mothers-day-devotions/'
p189
aS'http://www.crosswalk.com/special-coverage/mothers-day/'
p190
aS'http://www.homeschoolhowtos.com/'
p191
aS'http://www.homeschoolhowtos.com/blog'
p192
aS'/search?q=renee+ellison&biw=975&bih=440&tbm=isch&tbo=u&source=univ&sa=X&ei=vj3PUvqeJOK_sQTKz4HADw&ved=0CDsQsAQ'
p193
aS'http://www.amazon.com/Renee-Ellison/e/B006ESHIE8'
p194
aS'http://www.pinterest.com/toddles/'
p195
aS'https://bible.org/seriespage/lesson-11-influence-godly-mothers-2-timothy-15-314-17'
p196
aS'http://www.disciplemagazine.com/www/articles/143.476'
p197
aS'http://www.edgewoodcoc.org/TheFruitsofaGodlyMother%27sFaith.htm'
p198
aS'http://www.preeminenceofchrist.org/influence_of_godly_mothers.htm'
p199
aS'http://www.sermoncentral.com/sermons/influential-mothers-terry-laughlin-sermon-on-mothers-day-91262.asp'
p200
aS'http://www.apples4theteacher.com/holidays/mothers-day/poems-rhymes/'
p201
aS'http://skitguys.com/scripts/theme/mothers-day'
p202
aS'http://skitguys.com/blog/post/top-10-mothers-day-skits'
p203
aS'http://www.church-skits.com/tSpecialOccasions.html'
p204
aS'http://www.juliabettencourt.com/helps/skits.html'
p205
aS'http://skitguys.com/scripts/theme/mothers-day'
p206
aS'http://skitguys.com/blog/post/top-10-mothers-day-skits'
p207
aS'http://skitguys.com/mothers-day'
p208
aS'http://www.juliabettencourt.com/helps/skits.html'
p209
aS'http://newsfeed.time.com/2013/05/12/snls-5-best-skits-kristen-wiigs-greatest-hits/slide/happy-realistic-mothers-day/'
p210
aS'http://www.victoriassecret.com/'
p211
aS'http://www.victoriassecret.com/panties'
p212
aS'http://www.victoriassecret.com/bras'
p213
aS'http://www.victoriassecret.com/sale'
p214
aS'http://www.victoriassecret.com/beauty'
p215
aS'http://www.myspace.com/530383725/photos/823417'
p216
aS'https://www.facebook.com/pages/G-Stock/346663196909?sk=info'
p217
aS'http://www.youtube.com/watch?v=YLIR2uNpyXE'
p218
aS'http://www.hollander.com/brands/where-to-buy/'
p219
aS'http://engrus.com/k/%D1%8B%D0%B5%D1%81%D1%89%D1%8E%D1%81%D1%89%D1%8C%D1%80%D0%B5%D0%B5%D0%B7'
p220
aS'http://minus.com/'
p221
aS'http://en.wikipedia.org/wiki/Hyphen'
p222
aS'http://www.kiwisbybeat.com/minus.html'
p223
aS'http://www.m-nus.com/'
p224
aS'http://www.hyphenmagazine.com/'
p225
aS'http://www.foodnetwork.com/'
p226
aS'http://www.yelp.com/c/west-windsor-township-nj-us/restaurants'
p227
aS'http://www.yelp.com/search?find_desc=Indian+Restaurant&find_loc=West+Windsor+Township%2C+NJ'
p228
aS'http://businessfinder.nj.com/NJ-West-Windsor/Food-and-Dining'
p229
aS'http://businessfinder.nj.com/NJ-West-Windsor/Chinese-Food'
p230
aS'http://www.cars.com/'
p231
aS'http://www.imdb.com/title/tt0317219/'
p232
aS'http://www.carsdelivery.com/'
p233
aS'/search?q=cars&biw=975&bih=440&source=univ&tbm=nws&tbo=u&sa=X&ei=7z3PUpCjN-elsQS7u4GADA&ved=0CFIQqAI'
p234
aS'https://www.facebook.com/events/606004772751649/'
p235
aS'http://www.imdb.com/title/tt1186370/'
p236
aS'http://www.thefreedictionary.com/spread'
p237
aS'http://www.spreadtherestaurant.com/'
p238
aS'http://en.wikipedia.org/wiki/Spread_%28food%29'
p239
aS'http://en.wikipedia.org/wiki/Spread'
p240
aS'http://www.playboy.com/'
p241
aS'/search?q=playboy&biw=975&bih=440&source=univ&tbm=nws&tbo=u&sa=X&ei=-z3PUoOXN8fKsQSi-YCYBg&ved=0CDQQqAI'
p242
aS'http://en.wikipedia.org/wiki/Playboy'
p243
aS'http://www.youtube.com/user/playboy'
p244
aS'http://www.playboyenterprises.com/'
p245
aS'http://www.philadelphiagentlemensclub.com/'
p246
aS'http://en.wikipedia.org/wiki/Penthouse_%28magazine%29'
p247
aS'http://en.wikipedia.org/wiki/Penthouse_apartment'
p248
aS'http://en.wikipedia.org/wiki/Penthouse'
p249
aS'/search?q=penthouse&biw=975&bih=440&source=univ&tbm=nws&tbo=u&sa=X&ei=Aj7PUt0WpqGxBKTZgdgM&ved=0CEYQqAI'
p250
aS'http://www.hustler.com/'
p251
aS'http://www.hhretail.com/'
p252
aS'http://en.wikipedia.org/wiki/Hustler'
p253
aS'http://en.wikipedia.org/wiki/Hustler_%28disambiguation%29'
p254
aS'https://www.hustlerturf.com/'
p255
aS'http://www.costco.com/'
p256
aS'http://www.costco.com/warehouse/locator.aspx'
p257
aS'http://www.costco.com/online-offers.html'
p258
aS'http://www.costco.com/photo-center.html'
p259
aS'http://www.costco.com/computers.html'
p260
aS'http://community.wikidot.com/forum:minirecent-threads'
p261
aS'http://handbook.wikidot.com/forum:minirecent-threads'
p262
aS'http://community.wikidot.com/forum:minirecent-posts'
p263
aS'http://handbook.wikidot.com/forum:minirecent-posts'
p264
aS'http://www.apple.com/support/macmini/downloads/'
p265
aS'http://www.thefreedictionary.com/recent'
p266
aS'http://www.merriam-webster.com/dictionary/recent'
p267
aS'http://thesaurus.com/browse/recent'
p268
aS'http://search.cpan.org/recent'
p269
aS'http://dictionary.reference.com/browse/recent'
p270
aS'http://www.drudgereport.com/'
p271
aS'http://en.wikipedia.org/wiki/Matt_Drudge'
p272
aS'https://twitter.com/DRUDGE'
p273
aS'http://gawker.com/tag/matt-drudge'
p274
aS'http://www.drudge.com/'
p275
aS'http://jobs.thetimes.co.uk/'
p276
aS'http://jobsearch.about.com/od/ptjoblistings/tp/ptjobs.htm'
p277
aS'http://jobsearch.about.com/od/parttimejobs/a/blptjob.htm'
p278
aS'http://www.snagajob.com/find-jobs'
p279
aS'http://articles.timesofindia.indiatimes.com/2013-06-25/strategy/40184603_1_part-time-professionals-start-ups'
p280
as.