ccollections
defaultdict
p1
(c__builtin__
list
p2
tRp3
S'3406961'
p4
(lp5
S'http://www.cirquedusoleil.com/'
p6
aS'http://www.cirquedusoleil.com/en/home.aspx'
p7
aS'http://www.cirquedusoleil.com/en/shows/americas/usa/pennsylvania/philadelphia.aspx'
p8
aS'http://www.cirquedusoleil.com/en/shows/TOTEM/default.aspx'
p9
aS'http://www.cirquedusoleil.com/en/shows/quidam'
p10
aS'http://www.cirquedusoleil.com/En/shows/corteo/default.aspx'
p11
aS'/search?q=cirque+du+soleil+corteo&biw=975&bih=440&tbm=isch&tbo=u&source=univ&sa=X&ei=Oz7PUtUPpqOxBJbLgfgL&ved=0CDMQsAQ'
p12
aS'http://www.youtube.com/watch?v=z0a4M4cKjIk'
p13
aS'http://en.wikipedia.org/wiki/Corteo'
p14
aS'http://www.imdb.com/title/tt1190708/'
p15
aS'http://www.originaljoes.com/'
p16
aS'http://www.originaljoes.com/menu.htm'
p17
aS'http://www.yelp.com/biz/original-joes-restaurant-san-jose'
p18
aS'http://en.wikipedia.org/wiki/Original_Joe%27s'
p19
aS'https://www.facebook.com/pages/Original-Joes/267886883236172'
p20
aS'http://thesaurus.com/browse/reigning+supreme'
p21
aS'http://www.thefreedictionary.com/reign'
p22
aS'http://dictionary.reverso.net/english-cobuild/reign%20supreme'
p23
aS'https://www.facebook.com/reignsupremeofficial'
p24
aS'http://www.ldoceonline.com/dictionary/reign_2'
p25
aS'http://www.acwd.org/'
p26
aS'http://www.acwd.org/index.aspx?nid=113'
p27
aS'https://myaccount.acwd.org/'
p28
aS'http://www.acwd.org/index.aspx?NID=9'
p29
aS'http://www.acwd.org/directory.aspx'
p30
aS'http://www.ebay.com/'
p31
aS'http://www.ebay.com/motors'
p32
aS'http://www.ebay.com/electronics/cell-phone-pda'
p33
aS'http://deals.ebay.com/'
p34
aS'http://www.ebay.com/electronics'
p35
aS'http://www.equifax.com/'
p36
aS'http://www.econsumer.equifax.com/otc/showmyequifax.ehtml'
p37
aS'https://www.freeze.equifax.com/'
p38
aS'https://www.ai.equifax.com/'
p39
aS'http://www.equifax.com/about_equifax/en_us'
p40
aS'http://www.mapquest.com/'
p41
aS'http://www.mapquest.com/routeplanner'
p42
aS'http://www.mapquest.com/?le=t&s=name%3AFast+Food&vs='
p43
aS'http://m.mapquest.com/'
p44
aS'http://m.mapquest.com/maps'
p45
aS'http://courtnet.kycourts.net/'
p46
aS'https://kcoj.kycourts.net/CourtNet/'
p47
aS'http://www.kybar.org/778'
p48
aS'http://apps.courts.ky.gov/courtrecords/'
p49
aS'http://www.courts.mo.gov/casenet/'
p50
aS'http://www.zillow.com/homedetails/1453-Bridgeport-Ln-Manteca-CA-95336/15349275_zpid/'
p51
aS'http://www.zillow.com/homedetails/1441-Bridgeport-Ln-Manteca-CA-95336/15349274_zpid/'
p52
aS'http://www.zillow.com/homedetails/1450-Bridgeport-Ln-Manteca-CA-95336/15349283_zpid/'
p53
aS'http://www.zillow.com/homedetails/1492-Bridgeport-Ln-Manteca-CA-95336/2109786867_zpid/'
p54
aS'http://www.trulia.com/property/3138883706-1492-Bridgeport-Ln-Manteca-CA-95336'
p55
aS'http://www.mapquest.com/maps?city=Manteca&state=CA'
p56
aS'http://www.yellowpages.com/manteca-ca/yellow-pages-directory'
p57
aS'http://manteca.areaconnect.com/'
p58
aS'http://manteca.findlinks.com/'
p59
aS'http://www.healthgrades.com/group-directory/california-ca/manteca/north-street-family-practice-6bf5c547'
p60
aS'http://www.ci.manteca.ca.us/'
p61
aS'http://en.wikipedia.org/wiki/Manteca,_California'
p62
aS'http://www.mapquest.com/maps?city=Manteca&state=CA'
p63
aS'/search?q=manteca+ca&biw=975&bih=440&tbm=isch&tbo=u&source=univ&sa=X&ei=eT7PUovcO6essQSWh4HwDA&ved=0CEUQsAQ'
p64
aS'http://www.zillow.com/manteca-ca/'
p65
aS'http://www.zillow.com/homedetails/1453-Bridgeport-Ln-Manteca-CA-95336/15349275_zpid/'
p66
aS'http://www.zillow.com/homedetails/1450-Bridgeport-Ln-Manteca-CA-95336/15349283_zpid/'
p67
aS'http://www.zillow.com/homedetails/1492-Bridgeport-Ln-Manteca-CA-95336/2109786867_zpid/'
p68
aS'http://www.zillow.com/homedetails/1441-Bridgeport-Ln-Manteca-CA-95336/15349274_zpid/'
p69
aS'http://www.trulia.com/property/3138883706-1492-Bridgeport-Ln-Manteca-CA-95336'
p70
aS'http://www.zillow.com/homedetails/1453-Bridgeport-Ln-Manteca-CA-95336/15349275_zpid/'
p71
aS'http://www.zillow.com/homedetails/1450-Bridgeport-Ln-Manteca-CA-95336/15349283_zpid/'
p72
aS'http://www.zillow.com/homedetails/1441-Bridgeport-Ln-Manteca-CA-95336/15349274_zpid/'
p73
aS'http://www.zillow.com/homedetails/1444-Bridgeport-Ln-Manteca-CA-95336/15349284_zpid/'
p74
aS'http://www.trulia.com/property/3138883706-1492-Bridgeport-Ln-Manteca-CA-95336'
p75
aS'http://en.wikipedia.org/wiki/Alicia_Keys'
p76
aS'http://www.radiofacts.com/alicia-keys-is-a-girl-on-fire-as-she-rises-up-the-urban-ac-charts/'
p77
aS'http://www.biography.com/people/alicia-keys-9542485'
p78
aS'http://buenosaires48.icann.org/en/schedule/wed-dnssec/presentation-delegation-maintenance-20nov13-en.pdf'
p79
aS'https://www.facebook.com/pamela.keysis'
p80
aS'http://www.cyclingutah.com/sport-and-touring/road-sport-and-touring/a-tour-through-the-florida-keys/attachment/image00002-2/'
p81
aS'http://www.utsandiego.com/news/2013/Feb/06/alicia-keys-is-nba-all-star-halftime-performer/'
p82
aS'http://tax.utah.gov/commission-office/decisions'
p83
aS'http://www.4utah.com/content/news/top_stories/story/First-human-case-of-West-Nile-virus-of-2013/d/story/tHZJLe16f069gbJm122MPg'
p84
aS'http://www.chron.com/neighborhood/fortbend/article/Sugar-Land-woman-s-idea-to-eliminate-hotel-keys-4850089.php'
p85
aS'http://en.wikipedia.org/wiki/Alicia_Keys'
p86
aS'http://www.allaccess.com/net-news/archive/story/95657/rusty-keys-is-looking-for-new-opportunities'
p87
aS'http://eitonline.eit.ac.nz/mod/book/view.php?id=190454&chapterid=6392'
p88
aS'http://www.dailymail.co.uk/tvshowbiz/article-2419191/Alicia-Keys-walking-work-art-steps-statement-T-shirt-paisley-print-trousers-Rio.html'
p89
aS'http://www.dailymail.co.uk/tvshowbiz/article-2442256/Jennifer-Hudson-flashes-bra-Alicia-Keys-buttoned-screening-new-movie-NY-Film-Festival.html'
p90
aS'http://mistypes.net/get/?ac-formerly-kesis'
p91
aS'http://mistypes.net/get/?ac-formerlly-kesis'
p92
aS'http://engrus.com/k/%D1%84%D1%81+%D0%B0%D1%89%D0%BA%D1%8C%D1%83%D0%BA%D0%B4%D0%BD+%D0%BB%D1%83%D1%8B%D1%88%D1%8B'
p93
aS'http://www.jesuscallscanada.ca/'
p94
aS'http://www.jewsforjesus.ca/'
p95
aS'http://mistypes.net/get/?ac-formerly-kesis'
p96
aS'http://mistypes.net/get/?ac-formerlly-kesis'
p97
aS'http://engrus.com/k/%D1%84%D1%81+%D0%B0%D1%89%D0%BA%D1%8C%D1%83%D0%BA%D0%B4%D0%BD+%D0%BB%D1%83%D1%8B%D1%88%D1%8B'
p98
aS'http://www.jesuscallscanada.ca/'
p99
aS'http://www.jewsforjesus.ca/'
p100
aS'http://www.smithsonianmag.com/history-archaeology/The-Inside-Story-of-the-Controversial-New-Text-About-Jesus-170177076.html'
p101
aS'http://www.veromi.com/UT/Jesus-Rosa.aspx'
p102
aS'http://www.quickr.org/La%20Kesis/UT'
p103
aS'http://www.worldvitalrecords.com/Kesis'
p104
aS'http://books.google.com/books?id=NAESAQAAMAAJ&pg=RA1-PA54&lpg=RA1-PA54&dq=kesis+utah&source=bl&ots=HOeaeU_z4F&sig=flIrybU_R28Nwsr4GtKJ4Y-7wl0&hl=en&sa=X&ei=rD7PUuagJJDIsAS9g4KYDA&ved=0CEQQ6AEwBA'
p105
aS'http://tr.wikipedia.org/wiki/Ke%C5%9Fi%C5%9F'
p106
aS'http://www.youtube.com/watch?v=7xx3KqFJS4Y'
p107
aS'http://www.youtube.com/user/EthioOrthodox08'
p108
aS'http://www.youtube.com/watch?v=t04qsEksEuY'
p109
aS'http://www.liiku.fi/kesis'
p110
aS'http://mistypes.net/get/?ac-kesis'
p111
aS'https://www.facebook.com/rei.kesis'
p112
aS'https://www.facebook.com/public/Rei-Kesis'
p113
aS'http://www.dailymail.co.uk/sport/football/article-2381267/Inside-Jesus-Navass-bag-Manchester-City-jet-Munich.html'
p114
aS'http://www.adventistyearbook.org/ViewEntity.aspx?EntityID=13598'
p115
aS'http://www.youtube.com/playlist?list=PL725638972B325081'
p116
aS'http://www.ancestry.com/name-origin?surname=keisis'
p117
aS'http://keisis.deviantart.com/'
p118
aS'http://www.dailymail.co.uk/news/article-2356877/Drink-driver-Uldis-Keisis-licence-taken-years--leaves-court-gets-car.html'
p119
aS'http://www.kvantinemagija.lt/edgaras-keisis-is-rusijos-i-pasauli-ateis-viltis.html'
p120
aS'http://mistypes.net/get/?ac-kesys'
p121
aS'https://www.hud.ac.uk/news/2013/december/timeofdeathisthekeyforcoldcases.php'
p122
aS'https://www.library.auckland.ac.nz/databases/record/?record=NewZeaBusCasCol'
p123
aS'http://aliciakeys.com/'
p124
aS'http://www.ignou.ac.in/upload/Unit-6-60.pdf'
p125
aS'http://www.ancestry.com/1940-census/usa/Texas/A-C-Kesey_5hcmxd'
p126
aS'http://www.univie.ac.at/Anglistik/easyrider/data/KeseyPrs.htm'
p127
aS'http://download.sears.com/docs/spin_prod_787214612.pdf'
p128
aS'http://download.sears.com/docs/spin_prod_787214712.pdf'
p129
aS'https://business-school.exeter.ac.uk/about/whoswho/index.php?web_id=David_Kelsey'
p130
aS'http://www.alexplumbing.com/'
p131
aS'http://www.alpinegreen.net/'
p132
aS'http://rupcoeplumbing.com/'
p133
aS'http://www.jrmichalskiinc.com/'
p134
aS'http://www.russobroscoleman.com/'
p135
aS'https://twitter.com/keysus'
p136
aS'https://twitter.com/BlackKeysus'
p137
aS'https://twitter.com/FinnKeys'
p138
aS'https://twitter.com/AsherDeeWood'
p139
aS'http://www.pathofexile.com/forum/view-thread/11098'
p140
aS'http://www.keysysconsulting.com/'
p141
aS'http://www.keysyshealth.com/'
p142
aS'http://www.keysys.com/'
p143
aS'http://www.linkedin.com/company/keysys-health-llc'
p144
aS'https://www.facebook.com/pages/KEYSYS-Consulting/271354609246'
p145
aS'https://www.facebook.com/pages/Keys-Air-Conditioning/163444130351880'
p146
aS'http://www.youtube.com/watch?v=IlPaiFMS9UA'
p147
aS'http://www.bbb.org/southeast-texas/business-reviews/air-conditioning-contractors-and-systems/keys-a-c-and-services-in-port-arthur-tx-10017258'
p148
aS'http://www.goingaire.biz/'
p149
aS'http://www.replacementcarkeys.co.uk/'
p150
aS'http://talksport.com/radio/richard-keys-and-andy-gray/blog/2011-11-21/former-ac-milan-rangers-and-england-star-mark-hateley-studio'
p151
aS'http://www.act.org/'
p152
aS'http://www.univ.ox.ac.uk/content/papers-former-masters'
p153
aS'http://www.nbcnews.com/business/rihannas-former-home-gets-flipped-alicia-keys-likes-eddie-murphys-1C6710809'
p154
aS'http://www.bbb.org/southeast-texas/business-reviews/air-conditioning-contractors-and-systems/keys-a-c-and-services-in-port-arthur-tx-10017258'
p155
aS'http://talksport.com/radio/richard-keys-and-andy-gray/blog/2011-11-21/former-ac-milan-rangers-and-england-star-mark-hateley-studio'
p156
aS'http://www.act.org/'
p157
aS'http://www.univ.ox.ac.uk/content/papers-former-masters'
p158
aS'http://www.nbcnews.com/business/rihannas-former-home-gets-flipped-alicia-keys-likes-eddie-murphys-1C6710809'
p159
aS'http://www.bbb.org/southeast-texas/business-reviews/air-conditioning-contractors-and-systems/keys-a-c-and-services-in-port-arthur-tx-10017258'
p160
aS'http://www.parks.ca.gov/?page_id=455'
p161
aS'http://www.burney-falls.com/'
p162
aS'http://en.wikipedia.org/wiki/McArthur%E2%80%93Burney_Falls_Memorial_State_Park'
p163
aS'http://www.yelp.com/biz/mcarthur-burney-falls-state-park-burney'
p164
aS'http://www.reserveamerica.com/camping/Mcarthur_Burney_Falls_Mem_Sp/r/campgroundDetails.do?contractCode=CA&parkId=120054'
p165
aS'http://www.parks.ca.gov/?page_id=455'
p166
aS'http://www.burney-falls.com/'
p167
aS'https://www.facebook.com/media/set/?set=a.10152214686027203.1073741827.101502347202&type=3'
p168
aS'http://www.cqphotographics.com/#%21product/prd1/1469838851/upper-bernie-creek---bernie-falls-state-park'
p169
aS'http://www.yelp.com/biz/mcarthur-burney-falls-state-park-burney'
p170
aS'http://www.parks.ca.gov/?page_id=455'
p171
aS'http://www.burney-falls.com/'
p172
aS'http://en.wikipedia.org/wiki/McArthur%E2%80%93Burney_Falls_Memorial_State_Park'
p173
aS'http://www.yelp.com/biz/mcarthur-burney-falls-state-park-burney'
p174
aS'http://www.reserveamerica.com/camping/Mcarthur_Burney_Falls_Mem_Sp/r/campgroundDetails.do?contractCode=CA&parkId=120054'
p175
aS'http://www.dcnr.state.pa.us/stateparks/findapark/memoriallake/'
p176
aS'http://www.menloparkmuseum.org/'
p177
aS'http://www.ct.gov/deep/cwp/view.asp?a=2716&q=325214'
p178
aS'http://www.ct.gov/deep/cwp/view.asp?a=2716&q=325250'
p179
aS'http://www.putnampark.org/'
p180
aS'http://scholar.google.com/scholar?q=crail+v.+blakely&hl=en&as_sdt=6&as_vis=1&oi=scholart&sa=X&ei=ED_PUoCUDtSlsQT9p4GoDA&ved=0CCgQgQMwAA'
p181
aS'http://scocal.stanford.edu/opinion/crail-v-blakely-27730'
p182
aS'https://www.courtlistener.com/cal/8pFE/crail-v-blakely/cited-by/'
p183
aS'https://www.uakron.edu/dotAsset/aca3d70a-bdb8-462c-8445-ed5ba89ef44c.pdf'
p184
aS'http://books.google.com/books?id=0DbvVXi6ozoC&pg=SA17-PA29&lpg=SA17-PA29&dq=crail+v.+blakely&source=bl&ots=XVxikAXmro&sig=_sBbdt-BbSuml3lz6c3-rO55p-M&hl=en&sa=X&ei=ED_PUoCUDtSlsQT9p4GoDA&ved=0CEIQ6AEwAw'
p185
aS'http://newarknationalll.com/'
p186
aS'http://www.eteamz.com/newarknationalll/'
p187
aS'http://www.littleleague.org/page59384.aspx'
p188
aS'http://www.leaguelineup.com/miscinfo.asp?menuid=32&url=newarknationalll&sid=511936397'
p189
aS'http://www.leaguelineup.com/welcome.asp?sid=914821368&url=newarknationalll'
p190
aS'http://www.eteamz.com/newarknationalll/'
p191
aS'http://www.eteamz.com/cadistrict14llb/locations/'
p192
aS'http://www.newarkamerican.com/'
p193
aS'http://newarknationalll.com/'
p194
aS'http://www.active.com/newark-ca/baseball/baseball-leagues/newark-national-little-league-season-2012'
p195
aS'http://www.newtonnorthlittleleague.org/'
p196
aS'http://nnll.org/Org/CalendarView.aspx?d=H%2FPfu8LK%2BOStjvdXgXI7J6K0QsnSp8ba'
p197
aS'http://www.northnapleslittleleague.com/'
p198
aS'http://newarknationalll.com/'
p199
aS'http://www.eteamz.com/nnll/'
p200
aS'http://www.eteamz.com/newarknationalll/'
p201
aS'http://www.eteamz.com/newarknationalll/calendar/'
p202
aS'http://www.newarkamerican.com/'
p203
aS'http://newarknationalll.com/'
p204
aS'http://www.active.com/newark-ca/baseball/baseball-leagues/newark-national-little-league-season-2012'
p205
aS'http://www.eteamz.com/newarknationalll/'
p206
aS'http://www.eteamz.com/newarknationalll/calendar/'
p207
aS'https://www.eteamz.com/newarknationalll/locations/'
p208
aS'http://www.eteamz.com/newarknationalll/links/'
p209
aS'http://www.eteamz.com/newarknationalll/handouts/'
p210
aS'http://www.newarkamerican.com/'
p211
aS'http://www.eteamz.com/newarknationalll/'
p212
aS'http://www.eteamz.com/newarkamerican/'
p213
aS'http://www.eteamz.com/NewarkAmericanLL/locations/'
p214
aS'http://www.eteamz.com/cadistrict14llb/locations/'
p215
aS'/search?q=baseball+scorekeeper&biw=975&bih=440&source=univ&tbm=shop&tbo=u&sa=X&ei=Pj_PUs3QCIelsAS4pYGwDQ&ved=0CCkQsxg'
p216
aS'https://itunes.apple.com/us/app/iscore-baseball-softball-scorekeeper/id308630038?mt=8'
p217
aS'http://en.wikipedia.org/wiki/Baseball_scorekeeping'
p218
aS'https://www.gamechanger.io/'
p219
aS'http://www.amazon.com/Baseball-Scorekeeper-Stuart-Miller/dp/0811877922'
p220
aS'http://looneytunes.kidswb.com/'
p221
aS'http://looneytunes.kidswb.com/games'
p222
aS'http://www.cartoonnetwork.com/tv_shows/looneytunesshow/'
p223
aS'http://www.wbshop.com/category/wbshop_brands/looney+tunes.do'
p224
aS'http://www.youtube.com/watch?v=NU1sIxVGR9o'
p225
aS'http://www.aolstalker.com/s/madecky+v.+silver+trust/'
p226
aS'http://search-logs.com/user/3406961-cirque_du_soleil'
p227
aS'http://engrus.com/k/%D1%8C%D1%84%D0%B2%D1%83%D1%81%D0%BB%D0%BD+%D0%BC%D1%8E+%D1%8B%D1%88%D0%B4%D0%BC%D1%83%D0%BA+%D0%B5%D0%BA%D0%B3%D1%8B%D0%B5'
p228
aS'http://www.newspapers.com/newspage/27464767/'
p229
aS'http://www.newspapers.com/newspage/27445359/'
p230
aS'http://quicktake.morningstar.com/s/etf/analysis.aspx?t=SLV'
p231
aS'http://etfdailynews.com/2013/09/20/the-bullish-case-for-silver-etfs/'
p232
aS'http://etfdailynews.com/2013/12/26/the-bullish-case-for-gold-and-silver-miners/'
p233
aS'http://etfdailynews.com/2013/08/30/the-case-for-why-silver-is-better-than-gold/'
p234
aS'http://seekingalpha.com/article/1041951-numerous-ways-to-play-the-bullish-case-for-silver'
p235
aS'http://securities.stanford.edu/1046/SLV10_01/'
p236
aS'http://us.ishares.com/content/en_us/repository/resource/silver_faq.pdf'
p237
aS'http://adamabrahamslaw.com/'
p238
aS'http://en.wikipedia.org/wiki/Category:English_trusts_case_law'
p239
aS'http://en.wikipedia.org/wiki/Contract_Clause'
p240
aS'http://search-logs.com/user/3406961-cirque_du_soleil'
p241
aS'http://www.aolstalker.com/s/crail+v.+blakely/'
p242
aS'http://www.aolstalker.com/s/blakely+ga/'
p243
aS'http://books.google.com/books?id=MU5OAAAAYAAJ&pg=PA2223&lpg=PA2223&dq=silver+trust+crail+v.+blakely&source=bl&ots=imVc34hw-o&sig=HP3dMfJdF2IhKnopxn7tkw6SAkY&hl=en&sa=X&ei=Xj_PUvXcEo6-sQS-zoCoDA&ved=0CDEQ6AEwAw'
p244
aS'http://www.jameseducationcenter.com/articles/expert-testimony-objections/'
p245
aS'http://www.aolstalker.com/s/mudechi+v.+silver/'
p246
aS'http://engrus.com/k/%D1%8C%D0%B3%D0%B2%D1%83%D1%81%D1%80%D1%88+%D0%BC%D1%8E+%D1%8B%D1%88%D0%B4%D0%BC%D1%83%D0%BA'
p247
aS'http://search-logs.com/user/3406961-cirque_du_soleil'
p248
aS'http://www.vic.utoronto.ca/students/campuslife/Participation_Awards/silverV.htm'
p249
aS'http://www.imdb.com/name/nm0798799/'
p250
aS'http://www.vic.utoronto.ca/students/campuslife/Participation_Awards/silverV.htm'
p251
aS'http://engrus.com/k/%D1%8C%D1%88%D0%B2%D1%83%D1%81%D1%80%D1%88+%D0%BC%D1%8E+%D1%8B%D1%88%D0%B4%D0%BC%D1%83%D0%BA'
p252
aS'http://www.imdb.com/name/nm0798799/'
p253
aS'http://dailyreckoning.com/value-of-silver-vs-value-of-the-dollar/'
p254
aS'http://search-logs.com/user/3406961-cirque_du_soleil'
p255
aS'http://engrus.com/k/%D1%8C%D1%88%D0%B2%D1%83%D1%81%D1%80%D0%BD+%D0%BC%D1%8E+%D1%8B%D1%88%D0%B4%D0%BC%D1%83%D0%BA'
p256
aS'http://search-logs.com/user/3406961-cirque_du_soleil'
p257
aS'http://www.vic.utoronto.ca/students/campuslife/Participation_Awards/silverV.htm'
p258
aS'http://www.imdb.com/name/nm0798799/'
p259
aS'http://dailyreckoning.com/value-of-silver-vs-value-of-the-dollar/'
p260
aS'http://www.youtube.com/watch?v=imyCI8ztXOw'
p261
aS'http://www.youtube.com/watch?v=rhLsFF3trU4'
p262
aS'http://www.youtube.com/watch?v=0_k5bGJSh8Q'
p263
aS'http://www.youtube.com/watch?v=uEnmi4iQKfY'
p264
aS'http://www.youtube.com/watch?v=JuP3AEg3Pxo'
p265
aS'http://scocal.stanford.edu/opinion/crail-v-blakely-27730'
p266
aS'http://books.google.com/books?id=0DbvVXi6ozoC&pg=SA17-PA29&lpg=SA17-PA29&dq=crail+v.+blakely+8+cal.3d+744&source=bl&ots=XVxikAXnso&sig=d_Hjc3sPR1oX_2USRP8i1t6sQMY&hl=en&sa=X&ei=fj_PUvCgCdDksASD34DIDQ&ved=0CDEQ6AEwAQ'
p267
aS'http://books.google.com/books?id=n8EfrWXqbE0C&pg=SA11-PA26&lpg=SA11-PA26&dq=crail+v.+blakely+8+cal.3d+744&source=bl&ots=-TL5YQIuSB&sig=B-nVcq9cqiPhAr0iVHcJob3zhCM&hl=en&sa=X&ei=fj_PUvCgCdDksASD34DIDQ&ved=0CDYQ6AEwAg'
p268
aS'https://www.uakron.edu/dotAsset/aca3d70a-bdb8-462c-8445-ed5ba89ef44c.pdf'
p269
aS'http://caselaw.lp.findlaw.com/ca/cal3d/8.html'
p270
aS'http://us.ishares.com/content/en_us/repository/resource/silver_faq.pdf'
p271
aS'http://seekingalpha.com/symbol/SLV'
p272
aS'http://tobuyandsellsilver.com/buy-physical-silver/'
p273
aS'http://www.minyanville.com/businessmarkets/articles/comex-silver-silver-price-silver-silver/5/26/2011/id/34801'
p274
aS'http://www.buysilverbars.com/forms-of-bars/physical-silver-vs-other-investments/'
p275
aS'http://us.ishares.com/content/en_us/repository/resource/silver_faq.pdf'
p276
aS'http://seekingalpha.com/symbol/SLV'
p277
aS'http://tobuyandsellsilver.com/buy-physical-silver/'
p278
aS'http://www.minyanville.com/businessmarkets/articles/comex-silver-silver-price-silver-silver/5/26/2011/id/34801'
p279
aS'http://www.buysilverbars.com/forms-of-bars/physical-silver-vs-other-investments/'
p280
aS'http://seekingalpha.com/article/1928201-Is-The-U-S-Dollar-Bearishness-Bullish-For-Silver'
p281
aS'http://seekingalpha.com/article/1838912-is-the-silver-market-manipulated'
p282
aS'http://us.ishares.com/content/en_us/repository/resource/silver_faq.pdf'
p283
aS'http://us.ishares.com/content/en_us/repository/resource/prospectus/is_p_slv.pdf'
p284
aS'http://www.nasdaq.com/symbol/slv'
p285
aS'http://www.findlaw.com/casecode/'
p286
aS'http://www.findlaw.com/casecode/supreme.html'
p287
aS'http://lp.findlaw.com/'
p288
aS'http://www.findlaw.com/casecode/state.html'
p289
aS'http://findacase.com/'
p290
aS'http://www.aolstalker.com/s/radechi+v.+silver/'
p291
aS'http://engrus.com/k/%D0%BA%D1%84%D0%B2%D1%83%D1%81%D1%80%D1%88+%D0%BC%D1%8E+%D1%8B%D1%88%D0%B4%D0%BC%D1%83%D0%BA+%D0%B5%D0%BA%D0%B3%D1%8B%D0%B5'
p292
aS'http://engrus.com/k/%D0%BA%D1%84%D0%B2%D1%83%D1%81%D1%80%D1%88+%D0%BC%D1%8E+%D1%8B%D1%88%D0%B4%D0%BC%D1%83%D0%BA'
p293
aS'http://search-logs.com/user/3406961-cirque_du_soleil'
p294
aS'http://www.youtube.com/watch?v=Ze26bARRwuA'
p295
aS'http://www.ctemploymentlawblog.com/uploads/file/dismisscourt.pdf'
p296
aS'http://www.city-data.com/montgomery-county/A/Alton-Parkway-2.html'
p297
aS'http://www.youtube.com/watch?v=Ey_qh1pduDE'
p298
aS'http://de.linkedin.com/in/radecki'
p299
aS'http://laws.findlaw.com/10th/962297.html'
p300
aS'http://www.aolstalker.com/s/rodechi+v.+silver+trust/'
p301
aS'http://engrus.com/k/%D0%BA%D1%89%D0%B2%D1%83%D1%81%D1%80%D1%88+%D0%BC%D1%8E+%D1%8B%D1%88%D0%B4%D0%BC%D1%83%D0%BA+%D0%B5%D0%BA%D0%B3%D1%8B%D0%B5'
p302
aS'http://search-logs.com/user/3406961-cirque_du_soleil'
p303
aS'http://www.youtube.com/playlist?list=PL64B9716CF5823402'
p304
aS'https://archive.org/stream/catalogofcopyrig13libr/catalogofcopyrig13libr_djvu.txt'
p305
aS'http://www.aolstalker.com/s/radechi+v.+silver+trust/'
p306
aS'http://search-logs.com/user/3406961-cirque_du_soleil'
p307
aS'http://engrus.com/k/%D0%BA%D1%84%D0%B2%D1%83%D1%81%D1%80%D1%88+%D0%BC%D1%8E+%D1%8B%D1%88%D0%B4%D0%BC%D1%83%D0%BA+%D0%B5%D0%BA%D0%B3%D1%8B%D0%B5'
p308
aS'http://egorochkinjah.narod.ru/14.html'
p309
aS'http://europepmc.org/articles/PMC2520234/pdf/brmedj07368-0001.pdf'
p310
aS'http://www.aolstalker.com/s/radecki+v.+silver+trust/'
p311
aS'http://search-logs.com/user/3406961-cirque_du_soleil'
p312
aS'http://www.supremecourt.ohio.gov/rod/docs/pdf/9/2013/2013-ohio-2173.pdf'
p313
aS'http://engrus.com/k/%D0%BA%D1%84%D0%B2%D1%83%D1%81%D0%BB%D1%88+%D0%BC%D1%8E+%D1%8B%D1%88%D0%B4%D0%BC%D1%83%D0%BA+%D0%B5%D0%BA%D0%B3%D1%8B%D0%B5'
p314
aS'https://www.facebook.com/ajradecki9292?v=wall&story_fbid=226669847414372'
p315
aS'http://law.justia.com/cases/nebraska/supreme-court/1998/1294-1.html'
p316
aS'http://www.mtu.edu/honors/assets/docs/Peter_Radecki_Contract_1.pdf'
p317
aS'http://www.healthgrades.com/physician/dr-jeffrey-radecki-yypy8'
p318
aS'http://www.leagle.com/decision/19881255858F2d397_11199'
p319
aS'http://www.linkedin.com/pub/cherilyn-radecki/4/a15/243'
p320
aS'http://www.aolstalker.com/s/radecki+crail+v.+blakely/'
p321
aS'http://search-logs.com/user/3406961-cirque_du_soleil'
p322
aS'http://engrus.com/k/%D1%81%D0%BA%D1%84%D1%88%D0%B4+%D0%BC%D1%8E+%D0%B8%D0%B4%D1%84%D0%BB%D1%83%D0%B4%D0%BD+%D0%BA%D1%84%D0%B2%D1%83%D1%81%D0%BB%D1%88+%D0%BC%D1%8E+%D1%8B%D1%88%D0%B4%D0%BC%D1%83%D0%BA'
p323
aS'http://www.revenue.delaware.gov/unprop/up_09.pdf'
p324
aS'http://www.biowebspin.com/pubadvanced/citations/11032351/?type=related'
p325
aS'http://search-logs.com/user/3406961-cirque_du_soleil'
p326
aS'http://www.aolstalker.com/s/radecki+crail+v.+blakely/'
p327
aS'http://engrus.com/k/%D1%81%D0%BA%D1%84%D1%88%D0%B4+%D0%BC%D1%8E+%D0%B8%D0%B4%D1%84%D0%BB%D1%83%D0%B4%D0%BD+%D0%BA%D1%84%D0%B2%D1%83%D1%81%D0%BB%D1%88+%D0%BC%D1%8E+%D1%8B%D1%88%D0%B4%D0%BC%D1%83%D0%BA'
p328
aS'http://www.revenue.delaware.gov/unprop/up_09.pdf'
p329
aS'http://www.4crests.com/last-name-origin.html'
p330
as.