ccollections
defaultdict
p1
(c__builtin__
list
p2
tRp3
S'263127'
p4
(lp5
S'http://www.whitepages.com/reverse_phone'
p6
aS'http://www.anywho.com/'
p7
aS'http://www.anywho.com/reverse-lookup'
p8
aS'http://www.switchboard.com/'
p9
aS'http://www.411.com/'
p10
aS'http://yoheydaydreams.com/'
p11
aS'http://www.ancestry.com/name-origin?surname=yohey'
p12
aS'https://www.facebook.com/YoheyHorishita'
p13
aS'http://www.linkedin.com/pub/monroe-yohey/7/48/310'
p14
aS'http://www.wilsonelser.com/attorneys/alissa_m_yohey'
p15
aS'http://www.linkedin.com/pub/kenton-yohey/11/2a2/160'
p16
aS'http://www.linkedin.com/pub/dir/Kenton/Yohey'
p17
aS'/search?q=kenton+yohey&biw=975&bih=440&tbm=isch&tbo=u&source=univ&sa=X&ei=5j_PUtyHNOezsQTahIH4Cw&ved=0CDUQsAQ'
p18
aS'https://twitter.com/KentonYohey'
p19
aS'http://www.amwaywiki.com/Yohey,_Kenton_%26_Andrea'
p20
aS'http://www.whitepages.com/'
p21
aS'http://www.whitepages.com/person'
p22
aS'http://www.whitepages.com/business'
p23
aS'http://www.whitepages.com/reverse_phone'
p24
aS'http://www.whitepages.com/phone'
p25
aS'http://www.bagwelloil.com/'
p26
aS'http://www.bagwelloil.com/cust.html'
p27
aS'http://www.bagwelloil.com/old_trucks.html'
p28
aS'http://www.bagwelloil.com/products_services.html'
p29
aS'http://www.bagwelloil.com/customer_referral.html'
p30
aS'http://bhambicycle.com/'
p31
aS'http://bhambicycle.com/weekly-rides/'
p32
aS'http://bhambicycle.com/bicycles/'
p33
aS'http://bhambikeclub.org/'
p34
aS'http://www.birminghambikefestival.org/'
p35
aS'http://bhambikeclub.org/'
p36
aS'http://bhambikeclub.org/calendar/'
p37
aS'http://bhambikeclub.org/club-century/'
p38
aS'https://www.facebook.com/pages/Birmingham-Bicycle-Club/111712976890'
p39
aS'http://alabamabackroadscycling.wordpress.com/mountain-goat/'
p40
aS'http://www.fs.usda.gov/alabama'
p41
aS'http://www.fs.usda.gov/detail/alabama/about-forest/districts/?cid=fsbdev3_002555'
p42
aS'/search?q=talladega+national+forest&biw=975&bih=440&tbm=isch&tbo=u&source=univ&sa=X&ei=BkDPUpvFHo3NsQTnsYDgDA&ved=0CDwQsAQ'
p43
aS'http://en.wikipedia.org/wiki/Talladega_National_Forest'
p44
aS'http://www.toureastalabama.com/attraction/the-talladega-national-forest/'
p45
aS'http://www.mapquest.com/'
p46
aS'http://www.mapquest.com/routeplanner'
p47
aS'http://www.mapquest.com/maps?2a=201+East+Capitol+Street+SE&2c=Washington&2s=DC&2z=20003&form=directions'
p48
aS'http://m.mapquest.com/'
p49
aS'http://gasprices.mapquest.com/'
p50
aS'http://www.mapquest.com/'
p51
aS'http://m.mapquest.com/'
p52
aS'http://gasprices.mapquest.com/'
p53
aS'http://www.mapquest.com/routeplanner'
p54
aS'http://mobile.mapquest.com/'
p55
aS'http://en.wikipedia.org/wiki/Marion,_Alabama'
p56
aS'http://www.mapquest.com/maps?city=Marion&state=AL'
p57
aS'http://www.city-data.com/city/Marion-Alabama.html'
p58
aS'http://www.perrycountyalabamachamber.com/'
p59
aS'http://www.marionmilitary.edu/'
p60
aS'http://www.sleepinn.com/hotel-marion-alabama-AL390'
p61
aS'http://www.sleepinn.com/hotel-marion-alabama-AL390/Hotel-Photos'
p62
aS'http://www.sleepinn.com/hotel-marion-alabama-AL390/Hotel-Map'
p63
aS'http://www.sleepinn.com/'
p64
aS'http://www.tripadvisor.com/Hotel_Review-g30686-d2555915-Reviews-Sleep_Inn_Suites_Marion-Marion_Alabama.html'
p65
aS'http://teamevergreen.org/triple'
p66
aS'http://en.wikipedia.org/wiki/Coronary_artery_bypass_surgery'
p67
aS'http://www.triplebypass.org/'
p68
aS'http://www.webmd.com/heart-disease/treating-coronary-artery-bypass'
p69
aS'http://surgery.about.com/od/proceduresaz/f/TripleBypass.htm'
p70
aS'http://franklinsupplyinc.com/'
p71
aS'http://www.franklinsupplyinc.com/products.html'
p72
aS'http://www.franklinsupplyinc.com/contact.html'
p73
aS'http://www.franklinbuildingsupply.com/'
p74
aS'http://www.franklinbuildingsupply.com/locations-all'
p75
aS'/search?q=schwinn+paramount&biw=975&bih=440&tbm=isch&tbo=u&source=univ&sa=X&ei=MUDPUrK9Oc7KsQSPvYKIDg&ved=0CCkQsAQ'
p76
aS'http://www.ebay.com/bhp/schwinn-paramount'
p77
aS'http://schwinnparamount75th.com/'
p78
aS'http://sheldonbrown.com/chicago-schwinns.html'
p79
aS'http://www.raydobbins.com/ebay/bike-paramount/bike-paramount.htm'
p80
aS'http://www.whitepages.com/reverse_phone'
p81
aS'http://www.whitepages.com/2321/reverse_phone'
p82
aS'http://www.anywho.com/'
p83
aS'http://www.411.com/reverse_phone'
p84
aS'http://www.411.com/'
p85
aS'http://www.diabetes.org/'
p86
aS'http://www.diabetes.org/'
p87
aS'http://www.diabetes.org/'
p88
aS'http://www.diabetes.org/'
p89
aS'/search?q=american+diabetes+association&biw=975&bih=440&source=univ&tbm=nws&tbo=u&sa=X&ei=PkDPUv31M7G-sQTW2IBQ&ved=0CFgQqAI'
p90
aS'http://cyclepass.com/index_p.html'
p91
aS'http://www.northstarcalifornia.com/info/summer/mtn-biking-rates.asp'
p92
aS'http://bike.whistlerblackcomb.com/tickets-passes/passes/'
p93
aS'http://bike.whistlerblackcomb.com/tickets-passes/'
p94
aS'http://www.amazon.com/Cycling-Colorados-Mountain-Passes-Magsamen/dp/155591294X'
p95
aS'http://www.bikepedia.com/quickbike/BikeSpecs.aspx?year=2003&brand=Quintana+Roo&model=Kilo'
p96
aS'http://www.bikepedia.com/quickbike/BikeSpecs.aspx?year=2003&brand=Quintana+Roo&model=Tequilo'
p97
aS'http://www.bikeradar.com/us/gear/category/bikes/time-trial-triathlon/product/review-quintana-roo-tequilo-09-34483/'
p98
aS'http://www.bikeradar.com/us/gear/category/bikes/time-trial-triathlon/product/review-quintana-roo-tequilo-10-39505/'
p99
aS'/search?q=2003+quintana+roo+tequilo+tri+bike&biw=975&bih=440&tbm=isch&tbo=u&source=univ&sa=X&ei=TEDPUuq7CKbNsQSemoHgCw&ved=0CEkQsAQ'
p100
aS'http://www.cannondale.com/'
p101
aS'http://www.cannondale.com/bikes/'
p102
aS'http://www.cannondale.com/2013/bikes/mountain'
p103
aS'http://www.cannondale.com/bikes/archive/'
p104
aS'http://www.cannondale.com/dealer-locator/'
p105
aS'http://vistar.com/'
p106
aS'http://vistar.com/midatlantic'
p107
aS'http://vistar.com/products'
p108
aS'http://myvistar.vistar.com/'
p109
aS'http://vistar.com/AboutUs/Pages/Vistar.aspx'
p110
aS'http://www.gianteagle.com/'
p111
aS'http://www.gianteagle.com/Stores/'
p112
aS'http://www.gianteagle.com/Grocery-Store/Bakery/'
p113
aS'http://careers.gianteagle.com/'
p114
aS'http://www.gianteagle.com/Pharmacy/'
p115
aS'http://libertydistribution.com/'
p116
aS'http://beelocal.thebeehive.org/pennsylvania-dept-of-public-welfare-liberty-district-office/303517/philadelphia/pa/19125'
p117
aS'http://www.libertydistributors.com/'
p118
aS'http://www.libertyk12.org/'
p119
aS'http://www.liberty.k12.az.us/'
p120
aS'http://www.sessionfixtures.com/'
p121
aS'http://sessionfixtures.com/Category.aspx?path=%5CConcession'
p122
aS'http://sessionfixtures.com/Category.aspx?path=%5CFurnishings'
p123
aS'http://sessionfixtures.com/Category.aspx?path=%5CFood+Preparation'
p124
aS'http://sessionfixtures.com/Category.aspx?path=%5CTabletop'
p125
aS'http://www.sessionsusa.com/'
p126
aS'http://www.vipstylecars.com/forums/forumdisplay.php?64-Sessions-USA-ForJWorks'
p127
aS'http://www.blackcabsessions.com/tvshow.php'
p128
aS'http://www.blackcabsessions.com/?type=7'
p129
aS'http://www.youtube.com/user/SoulSessionsUSA'
p130
aS'http://www.sessionsusa.com/'
p131
aS'http://www.sessionsusa.com/products.htm'
p132
aS'http://www.sessionsusa.com/Catalog/Page21.pdf'
p133
aS'http://www.vipstylecars.com/forums/forumdisplay.php?64-Sessions-USA-ForJWorks'
p134
aS'http://www.blackcabsessions.com/tvshow.php'
p135
aS'http://www.quill.com/'
p136
aS'http://www.quill.com/inkandtonerfinder'
p137
aS'http://www.quill.com/copy-paper-multipurpose-paper-reams/cbc/228.html'
p138
aS'http://www.quill.com/quill-brand-office-supplies/cbu/5.html'
p139
aS'http://www.quill.com/filing-supplies-storage/cbu/27.html'
p140
aS'https://plus.google.com/115585634710045221585/about?gl=us&hl=en'
p141
aS'https://www.louortho.com/doctor-quill.asp'
p142
aS'http://www.healthgrades.com/physician/dr-george-quill-2y2bw'
p143
aS'http://www.healthgrades.com/physician/dr-george-quill-2y2bw/patient-ratings'
p144
aS'http://www.ratemds.com/doctor-ratings/2661/Dr-George+E.-Quill-St.+Matthews-KY.html'
p145
aS'http://www.owensboro.org/'
p146
aS'http://en.wikipedia.org/wiki/Owensboro,_Kentucky'
p147
aS'http://www.mapquest.com/maps?city=Owensboro&state=KY'
p148
aS'http://visitowensboro.com/'
p149
aS'http://www.owensboro.com/'
p150
aS'http://www.14news.com/category/157205/kentucky-headlines'
p151
aS'http://www.14news.com/'
p152
aS'http://www.messenger-inquirer.com/'
p153
aS'http://www.topix.com/city/owensboro-ky'
p154
aS'http://surfky.com/index.php/communities/daviess'
p155
aS'http://www.starbucks.com/'
p156
aS'http://www.starbucks.com/store-locator'
p157
aS'http://www.starbucks.com/store/15915'
p158
aS'http://www.starbucks.com/careers'
p159
aS'http://www.starbucks.com/careers/working-at-starbucks'
p160
aS'https://dennis-carpenter.com/'
p161
aS'http://dennis-carpenter.com/default.aspx?tab=cars'
p162
aS'http://dennis-carpenter.com/default.aspx?tab=tractors'
p163
aS'http://dennis-carpenter.com/truck67-79/c/14/'
p164
aS'http://dennis-carpenter.com/truck48-56/c/12/'
p165
aS'http://www.core-mark.com/'
p166
aS'http://www.eembc.org/coremark/'
p167
aS'http://en.wikipedia.org/wiki/Coremark'
p168
aS'http://en.wikipedia.org/wiki/Core-Mark'
p169
aS'http://finance.yahoo.com/q?s=CORE'
p170
aS'http://www.discountcoffee.com/'
p171
aS'http://www.discountcoffee.com/brand/qs/sturm-foods.htm'
p172
aS'http://www.discountcoffee.com/maxwell-house-special-delivery.htm'
p173
aS'http://www.discountcoffee.com/coffee-ground/folgers.htm'
p174
aS'http://www.discountcoffee.com/coffee-ground/cadillac.htm'
p175
aS'http://www.discountcoffee.com/'
p176
aS'http://www.discountcoffee.com/brand/qs/sturm-foods.htm'
p177
aS'http://www.discountcoffee.com/sale.htm'
p178
aS'http://www.discountcoffee.com/coffee-ground/folgers.htm'
p179
aS'http://www.discountcoffee.com/maxwell-house-special-delivery.htm'
p180
aS'http://www.bestwestern.com/'
p181
aS'http://book.bestwestern.com/bestwestern/US/PA/Fort-Washington-hotels/BEST-WESTERN-Fort-Washington-Inn/Hotel-Overview.do?propertyCode=39094'
p182
aS'http://www.bestwestern.com/reservations/hotels/directory.asp'
p183
aS'http://book.bestwestern.com/bestwestern/US/PA/Philadelphia-hotels/BEST-WESTERN-PLUS-Independence-Park-Hotel/Hotel-Overview.do?propertyCode=39080'
p184
aS'http://www.bestwestern.com/reservations/hotels/'
p185
aS'http://www.greensalescompany.com/'
p186
aS'http://www.greensalescompany.com/GreenSalesInventory.asp'
p187
aS'http://www.greensalescompany.com/Garage%20Sale.htm'
p188
aS'http://www.greensalescompany.com/Ford%20AboutGreen.htm'
p189
aS'http://www.greensalescompany.com/Ford%20Memorabilia.htm'
p190
aS'http://the-southern.org/'
p191
aS'http://www.southernwholesalers.org/'
p192
aS'https://www.facebook.com/pages/Southern-Wholesalers-Association/166123771294'
p193
aS'http://www.southernwholesalecars.com/'
p194
aS'http://www.manta.com/c/mm77zbg/southern-wholesale-grassland-of-mississippi-inc'
p195
aS'/aclk?sa=L&ai=CoWOGyEDPUpfuBurHsQefgIHQD-i4n_EBqOrm_CKMx-IECAUQAVDx38HbBWDJvsGM2KTsEcgBAaoEHE_Q29P_1PGK6zo7RQ7Tic1xcLSiTUahPU615lKgBhqAB_CO5heQBwM&sig=AOD64_1bWJw9ZoZ9JTFum8FPtpP2w9LgWg&xparam=d%3D2014-01-19%26n%3D1&ved=0CCoQuB0&adurl=http://www.google.com/hotels/ad%3Fl%3DMyrtle%2BBeach,%2BSouth%2BCarolina%26q%3Dmyrtle%2Bbeach%2Bhotels%26gl%3DUS%26cu_link%3D1'
p196
aS'http://www.tripadvisor.com/Hotels-g54359-Myrtle_Beach_South_Carolina-Hotels.html'
p197
aS'http://www.myrtlebeachhotels.com/'
p198
aS'http://www.expedia.com/Myrtle-Beach-Hotels.d601685.Travel-Guide-Hotels'
p199
aS'http://www.expedia.com/4Star-Myrtle-Beach-Hotels.s40-0-d601685.Travel-Guide-Filter-Hotels'
p200
aS'http://www.cityofmyrtlebeach.com/'
p201
aS'http://www.visitmyrtlebeach.com/'
p202
aS'http://en.wikipedia.org/wiki/Myrtle_Beach,_South_Carolina'
p203
aS'/search?q=myrtle+beach+sc&biw=975&bih=440&tbm=isch&tbo=u&source=univ&sa=X&ei=zkDPUpumFPOksQSN6YGgDA&ved=0CEgQsAQ'
p204
aS'http://www.tripadvisor.com/Tourism-g54359-Myrtle_Beach_South_Carolina-Vacations.html'
p205
aS'http://en.wikipedia.org/wiki/Tinker_Juarez'
p206
aS'http://tinkerjuarez.blogspot.com/'
p207
aS'https://www.facebook.com/tinker.juarez'
p208
aS'http://www.youtube.com/watch?v=EBsI75x9pcI'
p209
aS'http://www.cannondale.com/cze/news/cat/news-factory-racing/post/ageless-tinker-juarez-on-fire/'
p210
aS'http://www.weather.com/'
p211
aS'http://www.weather.com/maps/maptype/currentweatherusnational/uscurrentweather_large.html'
p212
aS'http://www.weatherchanel.com/'
p213
aS'http://weather.mobi/'
p214
aS'https://plus.google.com/+TheWeatherChannel'
p215
aS'http://www.weather.com/'
p216
aS'http://www.weather.com/maps/maptype/currentweatherusnational/uscurrentweather_large.html'
p217
aS'http://www.weather.com/services/mobilesplash.html'
p218
aS'http://www.weather.com/weather/tenday/Mar+del+Plata+Argentina+ARBA0054'
p219
aS'http://www.weather.com/newscenter/nationalforecast/'
p220
aS'http://www.weather.com/'
p221
aS'http://www.weather.com/maps/maptype/currentweatherusnational/uscurrentweather_large.html'
p222
aS'http://www.weather.com/weather/map/interactive/'
p223
aS'http://www.weather.com/weather/tenday/Philadelphia+PA+USPA1276:1:US'
p224
aS'http://www.weather.com/mobile/index.html?refer=rss_index'
p225
aS'http://www.joelosteen.com/'
p226
aS'https://www.joelosteen.com/Pages/VideoStreaming.aspx'
p227
aS'http://www.joelosteen.com/Pages/PrayTogether.aspx'
p228
aS'http://www.joelosteen.com/Pages/ThisWeeksMessage.aspx'
p229
aS'https://www.joelosteen.com/Pages/About.aspx'
p230
aS'http://www.joelosteen.com/'
p231
aS'http://en.wikipedia.org/wiki/Joel_Osteen'
p232
aS'http://www.lightsource.com/ministry/joel-osteen-ministries/'
p233
aS'https://twitter.com/JoelOsteen'
p234
aS'https://www.facebook.com/JoelOsteen'
p235
aS'https://www.kerrdrug.com/'
p236
aS'https://www.kerrdrug.com/about-kerr/contact-us/store-locator/'
p237
aS'https://www.kerrdrug.com/north-carolina-store-location/chapel-hill-nc-kerr-drug-store/'
p238
aS'https://www.kerrdrug.com/store-savings/weekly-specials/'
p239
aS'https://www.kerrdrug.com/about-kerr/contact-us/'
p240
aS'http://www.csnews.com/'
p241
aS'http://www.csnews.com/new-product-showcase.html'
p242
aS'http://www.csnews.com/page-about_us-5.html'
p243
aS'http://www.csnews.com/table-of-contents.html'
p244
aS'http://www.csnews.com/archive.html'
p245
aS'http://www.csnews.com/'
p246
aS'/search?q=cs+news&biw=975&bih=440&source=univ&tbm=nws&tbo=u&sa=X&ei=BkHPUvyINPTEsATukoHIDA&ved=0CDQQqAI'
p247
aS'http://www.cnsnews.com/'
p248
aS'http://www.cspnet.com/'
p249
aS'http://www.csdecisions.com/'
p250
aS'http://www.dispatch.com/'
p251
aS'http://www.dispatch.com/sports'
p252
aS'/search?q=columbus+dispatch&biw=975&bih=440&source=univ&tbm=nws&tbo=u&sa=X&ei=DUHPUuHWGamlsQS0qoDgDA&ved=0CDUQqAI'
p253
aS'http://www.cdispatch.com/'
p254
aS'http://www.legacy.com/obituaries/dispatch/'
p255
aS'http://www.bobevans.com/'
p256
aS'http://www.bobevans.com/menu/default'
p257
aS'http://www.bobevans.com/locations/default.aspx'
p258
aS'https://www.bobevans.com/Restaurant/Locate/'
p259
aS'http://employment.bobevans.com/'
p260
aS'http://www.indy.gov/'
p261
aS'http://en.wikipedia.org/wiki/Indianapolis'
p262
aS'http://visitindy.com/'
p263
aS'https://www.indystar.com/'
p264
aS'http://www.milb.com/index.jsp?sid=t484'
p265
aS'http://caribbeancovewaterpark.com/'
p266
aS'http://www.indy.gov/eGov/City/DPR/Amenities/Pages/Aquatics.aspx'
p267
aS'http://visitindy.com/indianapolis-sports-recreation-pools-water-parks'
p268
aS'http://visitindy.com/indianapolis-indy-parks-pools-aquatics-programs'
p269
aS'http://www.indywithkids.com/2012/03/8-indianapolis-places-you-can-go-swimming-right-now/'
p270
aS'http://www.indy.gov/eGov/City/DCE/Permits/Improvement_Location/Pages/pools.aspx'
p271
aS'http://www.yelp.com/search?cflt=swimmingpools&find_loc=Indianapolis%2C+IN'
p272
aS'http://visitindy.com/indianapolis-indy-parks-pools-aquatics-programs'
p273
aS'http://www.poolcityindy.com/'
p274
aS'http://www.yellowpages.com/indianapolis-in/public-swimming-pools'
p275
aS'http://www.ihg.com/holidayinn/hotels/us/en/global/reservations/hiselect'
p276
aS'http://www.ihg.com/holidayinn/hotels/us/en/east-windsor/ttnew/hoteldetail/directions'
p277
aS'http://www.ihg.com/holidayinn/hotels/us/en/east-windsor/ttnew/hoteldetail'
p278
aS'http://www.tripadvisor.com/Hotel_Review-g37209-d91484-Reviews-Caribbean_Cove_Hotel_Conference_Center-Indianapolis_Indiana.html'
p279
aS'http://www.tripadvisor.com/Hotel_Review-g46366-d98342-Reviews-Holiday_Inn_Clinton-Clinton_New_Jersey.html'
p280
aS'http://sharkiesinc.com/'
p281
aS'http://www.amazon.com/Sharkies-Organic-Energy-Sports-1-58-Ounce/dp/B00009WDTB'
p282
aS'http://www.rei.com/product/745005/sharkies-fruit-chews'
p283
aS'http://www.urbandictionary.com/define.php?term=Sharkie'
p284
aS'http://www.yelp.com/biz/sharkies-bar-and-thrifty-bottle-shop-state-college'
p285
aS'http://www.lildrugstore.com/'
p286
aS'http://www.lildrugstore.com/Our-Products/Our-Brands/'
p287
aS'http://www.lildrugstore.com/content/About-Us.aspx'
p288
aS'http://www.lildrugstore.com/Contact/'
p289
aS'http://www.lildrugstore.com/Our-Products/Convenience-Retailing/'
p290
aS'http://twp.lakewood.nj.us/'
p291
aS'http://en.wikipedia.org/wiki/Lakewood_Township,_New_Jersey'
p292
aS'http://www.lakewood.cc/'
p293
aS'/search?q=lakewood&biw=975&bih=440&source=univ&tbm=nws&tbo=u&sa=X&ei=P0HPUtvxIKfmsAS1xYGIDA&ved=0CEAQqAI'
p294
aS'http://www.milb.com/index.jsp?sid=t427'
p295
aS'/search?q=schwinn+bicycles&biw=975&bih=440&source=univ&tbm=shop&tbo=u&sa=X&ei=RUHPUrzpLIinsQTl5YDIDA&ved=0CCkQsxg'
p296
aS'http://www.schwinnbikes.com/'
p297
aS'http://www.schwinnbikes.com/bikes'
p298
aS'http://www.schwinn.com/'
p299
aS'http://www.walmart.com/c/kp/schwinn-bicycles'
p300
aS'http://www.cannondale.com/'
p301
aS'http://www.cannondale.com/bikes/'
p302
aS'http://www.cannondale.com/2013/bikes/mountain'
p303
aS'http://www.cannondale.com/bikes/archive/'
p304
aS'http://www.cannondale.com/dealer-locator/'
p305
aS'http://www.csnews.com/'
p306
aS'http://www.csnews.com/new-product-showcase.html'
p307
aS'http://www.csnews.com/page-about_us-5.html'
p308
aS'http://www.csnews.com/table-of-contents.html'
p309
aS'http://www.csnews.com/archive.html'
p310
aS'http://www.radio.com/'
p311
aS'http://en.wikipedia.org/wiki/Radio'
p312
aS'http://www.pandora.com/'
p313
aS'http://radiotuna.com/'
p314
aS'http://tunein.com/'
p315
aS'/search?q=fixed+gear+axle&biw=975&bih=440&source=univ&tbm=shop&tbo=u&sa=X&ei=XkHPUu7OMKvNsQTepYCADA&ved=0CCkQsxg'
p316
aS'http://www.fixedgeargallery.com/wheels/'
p317
aS'http://sheldonbrown.com/harris/fixed.html'
p318
aS'http://sheldonbrown.com/fixed-conversion.html'
p319
aS'http://sheldonbrown.com/harris/fixed-hubs.html'
p320
aS'http://www.centralcitycolorado.us/'
p321
aS'http://www.centralcitycolorado.com/'
p322
aS'http://en.wikipedia.org/wiki/Central_City,_Colorado'
p323
aS'/search?q=central+city+co&biw=975&bih=440&tbm=isch&tbo=u&source=univ&sa=X&ei=ZUHPUqiPCc-_sQSZxYHgCw&ved=0CEoQsAQ'
p324
aS'http://www.colorado.com/cities-and-towns/central-city'
p325
aS'https://bouldercolorado.gov/'
p326
aS'http://en.wikipedia.org/wiki/Boulder,_Colorado'
p327
aS'http://www.bouldercoloradousa.com/'
p328
aS'/search?q=boulder+co&biw=975&bih=440&tbm=isch&tbo=u&source=univ&sa=X&ei=a0HPUq60D67gsASsjICgDQ&ved=0CEwQsAQ'
p329
aS'http://www.city-data.com/city/Boulder-Colorado.html'
p330
aS'http://www.visitestespark.com/'
p331
aS'http://www.colorado.gov/cs/Satellite/TownofEstesPark/CBON/1251596047038'
p332
aS'http://estes-park.com/'
p333
aS'http://www.tripadvisor.com/Tourism-g60945-Estes_Park_Rocky_Mountain_National_Park_Colorado-Vacations.html'
p334
aS'/search?q=estes+park+co&biw=975&bih=440&tbm=isch&tbo=u&source=univ&sa=X&ei=cUHPUvTtJ43jsATvzIGwDA&ved=0CEgQsAQ'
p335
aS'http://www.cityofgolden.net/'
p336
aS'http://en.wikipedia.org/wiki/Golden,_Colorado'
p337
aS'http://visitgolden.com/'
p338
aS'/search?q=golden+co&biw=975&bih=440&tbm=isch&tbo=u&source=univ&sa=X&ei=d0HPUuHfJsivsASp3YHwCw&ved=0CEoQsAQ'
p339
aS'http://www.golden.com/'
p340
aS'http://www.pbd.com/'
p341
aS'http://finance.yahoo.com/q?s=PBD'
p342
aS'http://www.rcsb.org/'
p343
aS'http://www.invescopowershares.com/products/overview.aspx?ticker=pbd'
p344
aS'http://en.wikipedia.org/wiki/PBD'
p345
aS'http://www.purchasingpower.com/'
p346
aS'http://en.wikipedia.org/wiki/Purchasing_power'
p347
aS'http://en.wikipedia.org/wiki/Collective_buying_power'
p348
aS'http://www.investopedia.com/terms/b/buyingpower.asp'
p349
aS'http://www.thefreedictionary.com/Buying+power'
p350
aS'http://www.csdecisions.com/'
p351
aS'http://www.csdecisions.com/media-kit/'
p352
aS'http://www.csdecisions.com/about/'
p353
aS'http://www.csdecisions.com/categories/c-store-trends/'
p354
aS'http://www.csdecisions.com/contact-us/'
p355
as.