ccollections
defaultdict
p1
(c__builtin__
list
p2
tRp3
S'2192281'
p4
(lp5
S'http://tbo.com/'
p6
aS'http://tbo.com/news/'
p7
aS'http://tbo.com/weather/local/interactive-radar/'
p8
aS'http://tbo.com/sports/'
p9
aS'http://tbo.com/manage_subscription/'
p10
aS'http://www.yelp.com/search?find_desc=Dry+Cleaners&find_loc=Fort+Lauderdale%2C+FL'
p11
aS'http://www.yelp.com/search?cflt=drycleaninglaundry&find_loc=Fort+Lauderdale%2C+FL'
p12
aS'http://www.yelp.com/biz/dryclean-usa-fort-lauderdale-3'
p13
aS'http://miami.craigslist.org/csr/'
p14
aS'http://www.snagajob.com/job-search/w-fort+lauderdale,+fl/q-laundry+and+dry-cleaning+worker'
p15
aS'http://www.timeanddate.com/worldclock/city.html?n=820'
p16
aS'http://www.browardpalmbeach.com/'
p17
aS'http://www.miamiherald.com/'
p18
aS'http://localtimes.info/North_America/United_States/Florida/Fort_Lauderdale/'
p19
aS'http://www.sun-sentinel.com/'
p20
aS'http://www.sun-sentinel.com/news/broward/fort-lauderdale/'
p21
aS'http://www.sun-sentinel.com/'
p22
aS'http://www.tribunedirect.com/contact/ft-lauderdale/'
p23
aS'http://www.miamiherald.com/'
p24
aS'http://www.indeed.com/q-Tribune-Company-l-Fort-Lauderdale,-FL-jobs.html'
p25
aS'http://homes.yahoo.com/search/indiana/brookville/homes-for-sale'
p26
aS'http://www.zillow.com/brookville-ny/'
p27
aS'http://tampa.craigslist.org/hdo/roo/'
p28
aS'http://www.ziprealty.com/property/2719-BROOKVILLE-DR-VALRICO-FL-33596/18181937/detail'
p29
aS'http://www.tampabayhomehunt.com/idx/mls-t2607032-2719_brookville_dr_valrico_fl_33596'
p30
aS'http://www.kwsouthtampa.com/'
p31
aS'http://www.cbre.com/tampa'
p32
aS'http://www.cruiseamerica.com/'
p33
aS'http://www.zillow.com/tampa-fl/'
p34
aS'http://www.trulia.com/FL/Tampa/'
p35
aS'http://www.ryland.com/find-your-new-home/24-tampa.html'
p36
aS'http://www.cardelhomes.com/tampa/'
p37
aS'http://www.homesbywestbay.com/'
p38
aS'http://www.javichomes.com/'
p39
aS'http://classicbuilders.com/'
p40
aS'http://www.privacyguard.com/'
p41
aS'http://www.privacyguard.com/Frank'
p42
aS'http://www.privacyguard.com/content/credit-report-score.html'
p43
aS'http://www.privacyguard.com/content/contact-us.html'
p44
aS'http://www.privacyguard.com/content/credit-score.html'
p45
aS'https://chaseonline.chase.com/'
p46
aS'https://www.chase.com/'
p47
aS'http://www.reference.com/motif/business/washington-mutual-bank-locations'
p48
aS'http://en.wikipedia.org/wiki/Washington_Mutual'
p49
aS'http://www.keepandshare.com/htm/advice/banks/wamu/best_free_wamu_wam_amu_wmu_bank.php'
p50
aS'http://www.ebay.com/'
p51
aS'http://www.ebay.com/motors'
p52
aS'http://www.ebay.com/vrt/fashion/womens-clothing'
p53
aS'http://deals.ebay.com/'
p54
aS'http://www.ebay.com/electronics/cell-phone-pda'
p55
aS'http://autos.aol.com/used-list/make1-Saab/body-Convertible/'
p56
aS'http://www.autotrader.com/find/used-Saab-9_3-cars-for-sale.jsp'
p57
aS'http://www.cargurus.com/Cars/l-Used-Saab-Philadelphia-m50_L30895'
p58
aS'http://www.cargurus.com/Cars/l-Used-Saab-9-3-d496'
p59
aS'http://www.motortrend.com/used_cars/05/convertibles/saab/'
p60
aS'http://www.youtube.com/watch?v=V663DS1HYhY'
p61
aS'http://www.imdb.com/genre/adult'
p62
aS'http://www.reddit.com/r/AdultMovies'
p63
aS'http://www.sho.com/sho/movies/2/adult'
p64
aS'http://en.wikipedia.org/wiki/Pornographic_film'
p65
aS'http://tbo.com/'
p66
aS'http://tbo.com/news/'
p67
aS'http://tbo.com/weather/local/interactive-radar/'
p68
aS'http://tbo.com/sports/'
p69
aS'http://tbo.com/news/business/'
p70
aS'http://www.limewire.com/'
p71
aS'http://limewire-music.en.softonic.com/'
p72
aS'http://www.oldapps.com/limewire.php'
p73
aS'http://limewire.en.softonic.com/'
p74
aS'http://limewireofficial.com/'
p75
aS'http://homes.yahoo.com/search/indiana/brookville/homes-for-sale'
p76
aS'http://www.zillow.com/brookville-ny/'
p77
aS'http://www.ziprealty.com/property/2719-BROOKVILLE-DR-VALRICO-FL-33596/18181937/detail'
p78
aS'https://tampa.craigslist.org/hdo/jjj/'
p79
aS'http://www.pulte.com/communities/fl/brooksville/trillium/1883/index1.aspx'
p80
aS'http://www.remax.com/'
p81
aS'http://www.watsonrealtycorp.com/'
p82
aS'http://www.casabellajacksonville.com/'
p83
aS'http://www.trulia.com/FL/Jacksonville/'
p84
aS'http://www.zillow.com/jacksonville-fl/'
p85
aS'http://www.e90post.com/forums/showthread.php?t=686116'
p86
aS'http://www.m3post.com/forums/showthread.php?t=316193'
p87
aS'http://www.caranddriver.com/photos-10q4/369078/2011-bmw-x3-xdrive35i-side-view-mirror-european-spec-photo-369290'
p88
aS'http://www.caranddriver.com/photos-10q3/358368/2011-bmw-x3-xdrive20d-side-view-mirror-european-spec-photo-358598'
p89
aS'http://x3.xbimmers.com/forums/showthread.php?t=585138'
p90
aS'http://www.ebay.com/'
p91
aS'http://www.ebay.com/motors'
p92
aS'http://www.ebay.com/electronics/cell-phone-pda'
p93
aS'http://deals.ebay.com/'
p94
aS'http://www.ebay.com/electronics'
p95
aS'http://winmx-music.en.softonic.com/'
p96
aS'http://winmx-music.en.softonic.com/download'
p97
aS'http://www.winmxworld.com/'
p98
aS'http://en.wikipedia.org/wiki/WinMX'
p99
aS'http://patch.winmxconex.com/'
p100
aS'http://minus.com/'
p101
aS'http://en.wikipedia.org/wiki/Hyphen'
p102
aS'http://www.kiwisbybeat.com/minus.html'
p103
aS'http://www.m-nus.com/'
p104
aS'http://www.hyphenmagazine.com/'
p105
aS'http://www.zillow.com/tampa-fl/rent-houses/'
p106
aS'http://www.trulia.com/for_rent/Tampa,FL/'
p107
aS'http://www.realtor.com/homesforrent/Tampa_FL'
p108
aS'http://www.hoffmanrealty.com/'
p109
aS'http://www.thevintagelofts.com/?WT.srch=1&WT.mc_id=17999-TheVintageLofts-LocalGoogle'
p110
aS'/search?q=bmw+european+front+spoilers&biw=975&bih=440&source=univ&tbm=shop&tbo=u&sa=X&ei=IULPUuePFsXNsQS_4YH4Cw&ved=0CCkQsxg'
p111
aS'http://www.ebay.com/bhp/bmw-euro-bumper'
p112
aS'http://www.ebay.com/bhp/bmw-e36-front-bumper'
p113
aS'http://www.ebay.com/bhp/bmw-e30-bumper'
p114
aS'http://www.ebay.com/bhp/bmw-e30-front-valance'
p115
aS'/search?q=cellphone+on+ebay&biw=975&bih=440&source=univ&tbm=shop&tbo=u&sa=X&ei=J0LPUqnvMKbMsQTngYKADA&ved=0CCkQsxg'
p116
aS'http://www.ebay.com/sch/Cell-Phones-Smartphones-/9355/i.html'
p117
aS'http://popular.ebay.com/cell-phones/unlocked-cell-phone.htm'
p118
aS'http://www.ebay.com/electronics/cell-phone-pda'
p119
aS'http://www.ebay.com/bhp/cell-phones'
p120
aS'http://www.ebay.com/sch/Jaguar-/6272/i.html'
p121
aS'http://popular.ebay.com/passenger-vehicles/jaguar.htm'
p122
aS'http://www.ebay.com/sch/Cars-Trucks-/6001/i.html?_dcat=6001&Make=Jaguar'
p123
aS'http://www.ebay.com/motors/carsandtrucks/Jaguar'
p124
aS'http://www.ebay.co.uk/sch/Jaguar-/31358/i.html'
p125
aS'http://www.autotrader.com/find/Jaguar-cars-for-sale.jsp'
p126
aS'http://autos.yahoo.com/used-cars/jaguar-overview'
p127
aS'http://autos.yahoo.com/used-cars/overview/jaguar/'
p128
aS'http://www.cargurus.com/Cars/l-Used-Jaguar-m31'
p129
aS'http://autos.aol.com/used-list/make1-Jaguar/vcond-Used/'
p130
aS'http://www.privacyguard.com/'
p131
aS'http://www.privacyguard.com/content/credit-report-score.html'
p132
aS'http://www.privacyguard.com/Content.aspx?content=aboutFrank'
p133
aS'http://www.privacyguard.com/Frank'
p134
aS'http://www.privacyguard.com/content/credit-score-tracking.html'
p135
aS'http://www.privacyguard.com/'
p136
aS'http://www.privacyguard.com/content/credit-score.html'
p137
aS'http://www.privacyguard.com/content/contact-us.html'
p138
aS'http://www.privacyguard.com/Content.aspx?content=aboutFrank'
p139
aS'http://www.privacyguard.com/content/credit-report-score.html'
p140
aS'http://www.privacyguard.com/'
p141
aS'http://www.privacyguard.com/content/credit-report-score.html'
p142
aS'http://www.privacyguard.com/content/identity-theft-protection-service.html'
p143
aS'http://www.privacyguard.com/Frank'
p144
aS'http://www.privacyguard.com/breachshield-009'
p145
aS'http://www.ebay.com/bhp/wood-grain-steering-wheel'
p146
aS'http://stores.ebay.com/wood-steering-wheels'
p147
aS'http://popular.ebay.com/parts-accessories/steering-wheel.htm'
p148
aS'http://www.ebay.com/bhp/vintage-wood-steering-wheel'
p149
aS'http://www.ebay.com/bhp/momo-wood-steering-wheel'
p150
aS'http://autos.aol.com/cars-Ferrari-458+Italia-2013/overview/'
p151
aS'http://autos.aol.com/cars-Ferrari-458+Italia-2013/specs/'
p152
aS'http://autos.aol.com/cars-Ferrari-458+Italia-2012/pricing/'
p153
aS'http://autos.aol.com/cars-Ferrari-458+Italia-2012/specs/'
p154
aS'http://travel.aol.com/articles/how-to-plan-an-affordable-italy-vacation'
p155
aS'http://blog.aol.it/'
p156
aS'http://blog.aol.it/bloggers/aol-italia/'
p157
aS'http://blog.aol.it/category/aol-email/'
p158
aS'http://www.aol-italia.net/'
p159
aS'https://www.facebook.com/aolitalia'
p160
aS'http://www.ebay.it/'
p161
aS'http://annunci.ebay.it/'
p162
aS'http://annunci.ebay.it/motori/auto/'
p163
aS'http://popular.ebay.com/misc-e-j/italy.htm'
p164
aS'http://stores.ebay.com/1969-Italia-Boutique'
p165
aS'/search?q=stereo+system+on+ebay&biw=975&bih=440&source=univ&tbm=shop&tbo=u&sa=X&ei=ZkLPUquaJ6fKsAT6poGwDA&ved=0CCkQsxg'
p166
aS'http://www.ebay.com/sch/Home-Audio-Stereos-Components-/14969/i.html'
p167
aS'http://popular.ebay.com/consumer-electronics/home-audio-system.htm'
p168
aS'http://www.ebay.com/bhp/home-stereo-system'
p169
aS'http://www.ebay.com/sch/Car-Audio-/175716/i.html'
p170
aS'/search?q=fiat+x19+for+sale&biw=975&bih=440&tbm=isch&tbo=u&source=univ&sa=X&ei=bELPUvTPOM3nsATNpoGwDg&ved=0CCkQsAQ'
p171
aS'http://www.autotrader.com/find/used-Fiat-X1/9-cars-for-sale.jsp'
p172
aS'http://www.carsales.com.au/car/fiat/x19/'
p173
aS'http://www.youtube.com/watch?v=sk2gjb167T4'
p174
aS'http://www.autotraderclassics.com/car-article/Browse+Fiat+X1*9s+For+Sale-89549.xhtml'
p175
aS'http://www.ebay.com/sch/i.html?_kw=fiat+x19+sale'
p176
aS'http://www.ebay.com/bhp/fiat-x19'
p177
aS'http://www.ebay.com/sch/i.html?_kw=Fiat+X1+9+Bertone+X19'
p178
aS'http://popular.ebay.com/passenger-vehicles/fiat.htm'
p179
aS'http://www.ebay.com/bhp/fiat-x1-9-wheels'
p180
aS'http://www.ebay.com/bhp/wood-grain-steering-wheel'
p181
aS'http://stores.ebay.com/wood-steering-wheels'
p182
aS'http://popular.ebay.com/parts-accessories/steering-wheel.htm'
p183
aS'http://stores.ebay.com/Raptor-Trading'
p184
aS'http://www.ebay.com/bhp/vintage-wood-steering-wheel'
p185
aS'/search?q=wood+steering&biw=975&bih=440&tbm=isch&tbo=u&source=univ&sa=X&ei=gELPUoC-INSqsQTKyYHIDA&ved=0CCwQsAQ'
p186
aS'http://www.ebay.com/bhp/vintage-wood-steering-wheel'
p187
aS'http://www.ebay.com/bhp/wood-steering-wheel'
p188
aS'http://www.ebay.com/bhp/momo-wood-steering-wheel'
p189
aS'http://www.grantproducts.com/products/browse/steering-wheels'
p190
aS'http://www.ebay.com/bhp/wooden-shift-knob'
p191
aS'http://www.ebay.com/bhp/wood-shift-knob'
p192
aS'http://search.ebay.com/Lexus-RX330-Light-Wood-finish-Shift-Knob_W0QQfsiZ1'
p193
aS'http://www.ebay.com/bhp/universal-wood-shift-knob'
p194
aS'http://www.ebay.com/bhp/acura-wood-shift-knob'
p195
aS'http://www.ebay.com/bhp/saab-wheels'
p196
aS'http://shop.ebay.com/sis.html?_kw=Saab+9+3+15+10+Spoke+Alloy+Wheel+Rim+USED+SAAB+PARTS'
p197
aS'http://www.ebay.com/bhp/saab-wheels-tires'
p198
aS'http://www.ebay.com/bhp/saab-alloy-wheels'
p199
aS'http://www.ebay.com/bhp/saab-9-3-rims'
p200
aS'http://tbo.com/'
p201
aS'http://tbo.com/sports/bucs/'
p202
aS'http://tbo.com/sports/rays/'
p203
aS'http://tbo.com/news/'
p204
aS'http://tbo.com/weather/local/interactive-radar/'
p205
aS'https://www.facebook.com/athens.thessaloniki'
p206
aS'http://wink.com/canada-people-search'
p207
aS'http://www.cic.gc.ca/english/helpcentre/answer.asp?q=421&t=16'
p208
aS'http://www.classmates.com/registration/state.jsp?cType=school&canada=true'
p209
aS'http://www.newfriends4u.com/FriendshipAdverts/Friendship_Canada1.php'
p210
aS'http://www.trulia.com/FL/Spring_Hill/'
p211
aS'http://www.zillow.com/spring-hill-fl/'
p212
aS'http://www.zillow.com/spring-hill-fl/rent-houses/'
p213
aS'http://www.realtor.com/realestateandhomes-search/Spring-Hill_FL'
p214
aS'http://www.weichert.com/FL/Hernando/Spring_Hill/'
p215
aS'http://www.grantproducts.com/'
p216
aS'http://www.grantproducts.com/products/browse/steering-wheels'
p217
aS'http://www.grantproducts.com/oem'
p218
aS'http://www.grantproducts.com/products/browse/installation-kits/'
p219
aS'http://www.grantproducts.com/products/browse/steering-wheels/racing/'
p220
aS'http://search.ebay.com/ws/search/SaleSearch?fsi=1&satitle=FIAT+SPIDER+STEERING+WHEEL+HUB+ADAPTER+-+Mount+NARDI+or+MOMO+'
p221
aS'http://search.ebay.com/Fiat-850-124-Spider-Cpe-Dino-Steering-Wheel-Hub-Adapter_W0QQfsiZ1'
p222
aS'/search?q=fiat+spider+hub+adaptor&biw=975&bih=440&tbm=isch&tbo=u&source=univ&sa=X&ei=rkLPUsq7HdOxsASW0IHADw&ved=0CDgQsAQ'
p223
aS'http://www.fiatspider.com/f08/viewtopic.php?f=7&t=6378'
p224
aS'http://www.vickauto.com/newstore/index.php?main_page=product_info&products_id=1663'
p225
aS'http://www.adamshomes.com/'
p226
aS'http://www.adamshomes.com/florida'
p227
aS'http://www.adamshomes.com/alabama2/baldwin-county'
p228
aS'http://www.adamshomes.com/florida/pensacola'
p229
aS'http://www.adamshomes.com/alabama2/birmingham'
p230
aS'http://www.forrent.com/'
p231
aS'http://www.apartmentfinder.com/North-Carolina/Apex-Apartments/Beechridge-Apartments'
p232
aS'http://www.home.earthlink.net/%7Efortlauderdalecondo4rent/'
p233
aS'http://miami.craigslist.org/brw/apa/'
p234
aS'http://www.forrent.com/search-apartments-by-area/FL/South-Florida/Broward.php'
p235
aS'http://www.miamiherald.com/'
p236
aS'http://www.miamiherald.com/sports/'
p237
aS'http://www.miamiherald.com/sports/colleges/um/'
p238
aS'http://www.miamiherald.com/sports/football/'
p239
aS'http://www.miamiherald.com/sports/basketball/'
p240
aS'http://www.trulia.com/FL/Coral_Springs/'
p241
aS'http://www.zillow.com/coral-springs-fl/'
p242
aS'http://www.zillow.com/coral-springs-fl/rent-houses/'
p243
aS'https://plus.google.com/107404517298608446712/about?hl=en&socfid=web:lu:unknown:localgroupedresult&socpid=1'
p244
aS'https://plus.google.com/107312686579006367168/about?hl=en&socfid=web:lu:unknown:localgroupedresult&socpid=1'
p245
aS'http://www.topuniversities.com/university-rankings/world-university-rankings/2013'
p246
aS'http://www.topuniversities.com/university-rankings'
p247
aS'http://www.djmag.com/top100'
p248
aS'http://www.forbes.com/billionaires/'
p249
aS'http://www.atpworldtour.com/Rankings/Singles.aspx'
p250
aS'http://www.autotrader.com/'
p251
aS'http://www.carfax.com/used_car_classifieds/hotListingsSearch.cfx'
p252
aS'http://www.lawrencetoyota.com/index.htm'
p253
aS'http://www.princetonmini.com/'
p254
aS'http://www.hamiltonhonda.net/'
p255
aS'http://www.hillsideautony.com/'
p256
aS'http://www.mikeyautoinc.com/'
p257
aS'http://www.nemet.com/'
p258
aS'http://www.nemet.com/'
p259
aS'https://plus.google.com/101802163052643620667/about?hl=en&socfid=web:lu:unknown:localgroupedresult&socpid=1'
p260
aS'http://www.nps.gov/grca/'
p261
aS'http://en.wikipedia.org/wiki/Grand_Canyon'
p262
aS'http://www.grandcanyon.org/'
p263
aS'/search?q=grand+canyon&biw=975&bih=440&tbm=isch&tbo=u&source=univ&sa=X&ei=4kLPUo2VJefRsASX0YCIDg&ved=0CEMQsAQ'
p264
aS'http://www.gcu.edu/'
p265
aS'http://en.wikipedia.org/wiki/Grand_Canyon'
p266
aS'http://www.nps.gov/grca/'
p267
aS'http://www.nps.gov/grca/planyourvisit/whitewater-rafting.htm'
p268
aS'http://www.nps.gov/grca/naturescience/'
p269
aS'http://www.nps.gov/grca/faqs.htm'
p270
aS'http://www.carbuyers.com/'
p271
aS'http://www.carbuyers.com/terms.cfm'
p272
aS'http://www.carbuyers.com/other_publications.cfm'
p273
aS'http://www.carbuyers.com/result_listings.cfm?searchMake=HONDA'
p274
aS'http://www.carbuyers.com/result_listings.cfm?searchMake=TOYOTA'
p275
as.