ccollections
defaultdict
p1
(c__builtin__
list
p2
tRp3
S'837054'
p4
(lp5
S'http://www.sammontgomerytkd.com/'
p6
aS'http://www.sammontgomerytkd.com/node/19'
p7
aS'http://www.sammontgomerytkd.com/node/32'
p8
aS'http://www.sammontgomerytkd.com/node/437?page=7'
p9
aS'http://www.sammontgomerytkd.com/node/435?page=2'
p10
aS'http://www.sammontgomerytkd.com/'
p11
aS'http://www.yelp.com/biz/sam-montgomery-west-coast-tae-kwon-do-hayward'
p12
aS'http://www.eastbayexpress.com/oakland/sam-montgomery-west-coast-tae-kwon-do/Location?oid=1709955'
p13
aS'https://www.facebook.com/pages/Sam-Montgomery-West-Coast-Tae-Kwon-DO/111866855512327'
p14
aS'http://www.youtube.com/watch?v=VYwCtUoXIv4'
p15
aS'/search?q=books+on+all+the+mission&biw=975&bih=440&source=univ&tbm=shop&tbo=u&sa=X&ei=QyTPUoj1C5LUsAS0goD4Cw&ved=0CCkQsxg'
p16
aS'http://www.amazon.com/Movie-Mission-Deathstalker-Undercover-Brothers/dp/1442402660'
p17
aS'http://www.amazon.com/Must-Read-Missions-Books/lm/DSMSOYEATT3A'
p18
aS'http://www.yelp.com/biz/forest-books-san-francisco'
p19
aS'http://www.yelp.com/biz/borderlands-books-san-francisco'
p20
aS'/search?q=books+on+san+juan+bautista&biw=975&bih=440&source=univ&tbm=shop&tbo=u&sa=X&ei=SiTPUujGAamqsASFxoCYDQ&ved=0CCkQsxg'
p21
aS'http://www.arcadiapublishing.com/9780738547732/San-Juan-Bautista'
p22
aS'http://en.wikipedia.org/wiki/Mission_San_Juan_Bautista'
p23
aS'http://www.amazon.com/Mission-Juan-Bautista-Missions-California/dp/0823958795'
p24
aS'http://oldmissionsjb.org/contact.html'
p25
aS'http://www.arcadiapublishing.com/9780738547732/San-Juan-Bautista'
p26
aS'http://books.google.com/books?id=ZIr1V14zEyMC&pg=PA120&lpg=PA120&dq=books+on+san+juan+bautista%27s+authors&source=bl&ots=KKG0-a6L5t&sig=-Em_CFVgiGYvSZpbJFCFO7_xQiw&hl=en&sa=X&ei=USTPUurwA5TIsATNzIKADA&ved=0CDQQ6AEwAQ'
p27
aS'http://www.amazon.com/San-Juan-Bautista-Images-America/dp/0738547735'
p28
aS'http://www.amazon.com/San-Juan-Bautista-Gateway-Spanish/dp/0292776519'
p29
aS'http://books.google.com/books?id=tSK0WyZEHoYC&pg=PA79&lpg=PA79&dq=books+on+san+juan+bautista%27s+authors&source=bl&ots=fdMgJ25D4G&sig=kQK3jMWmUskP82i-OdhV5luvKSk&hl=en&sa=X&ei=USTPUurwA5TIsATNzIKADA&ved=0CEUQ6AEwBA'
p30
aS'http://www.arcadiapublishing.com/9780738547732/San-Juan-Bautista'
p31
aS'http://www.sanjuanbautista.edu/pub/LIST%20OF%20BOOKS%20Third%20and%20Fourth%20Year%202011-2012RevisedJun2011.pdf'
p32
aS'http://www.sanjuanbautista.edu/pub/First%20Year%20Book%20List%20-%2005-2011.pdf'
p33
aS'http://www.sanjuanbautista.edu/pub/LIST%20OF%20BOOKS2011-2012%20second%20year%20Revised%20May%202011.pdf'
p34
aS'http://books.google.com/books?id=tSK0WyZEHoYC&pg=PA132&lpg=PA132&dq=san+juan+bautista%27s+authors&source=bl&ots=fdMgJ25D4N&sig=L6RGjuY8-Yls8qa-Y8hkCifF2b0&hl=en&sa=X&ei=VyTPUu2AKrXJsQTG9IDwCw&ved=0CE8Q6AEwBA'
p35
aS'http://en.wikipedia.org/wiki/Mission_San_Juan_Bautista'
p36
aS'http://www.arcadiapublishing.com/9780738547732/San-Juan-Bautista'
p37
aS'https://www.facebook.com/pages/San-Juan-Bautista-City-Library/530771590281717'
p38
aS'http://www.san-juan-bautista.ca.us/PDFs/Library/2013-03_New_Materials.pdf'
p39
aS'http://www.san-juan-bautista.ca.us/PDFs/Library/2013-09_New_Materials.pdf'
p40
aS'/search?q=san+juan+bautista+books&biw=975&bih=440&source=univ&tbm=shop&tbo=u&sa=X&ei=ZSTPUuzkCIzesASB34GoDA&ved=0CCkQsxg'
p41
aS'http://www.arcadiapublishing.com/9780738547732/San-Juan-Bautista'
p42
aS'http://en.wikipedia.org/wiki/Mission_San_Juan_Bautista'
p43
aS'http://www.amazon.com/Mission-Juan-Bautista-Missions-California/dp/0823958795'
p44
aS'http://oldmissionsjb.org/contact.html'
p45
aS'/search?q=the+books+on+san+juan+bautista&biw=975&bih=440&source=univ&tbm=shop&tbo=u&sa=X&ei=ayTPUrzrPPC-sQSq1oKwDA&ved=0CCkQsxg'
p46
aS'http://www.arcadiapublishing.com/9780738547732/San-Juan-Bautista'
p47
aS'http://www.amazon.com/Mission-Juan-Bautista-Missions-California/dp/0823958795'
p48
aS'http://en.wikipedia.org/wiki/Mission_San_Juan_Bautista'
p49
aS'http://www.sanjuanbautistaca.com/clubs-n-orgs/index.html'
p50
aS'http://en.wikipedia.org/wiki/Mission_San_Juan_Bautista'
p51
aS'http://www.arcadiapublishing.com/9780738547732/San-Juan-Bautista'
p52
aS'http://www.sanjuanbautistaca.com/clubs-n-orgs/index.html'
p53
aS'http://www.amazon.com/Mission-Juan-Bautista-Missions-California/dp/0823958795'
p54
aS'http://gocalifornia.about.com/od/camissions/ss/mission-san-juan-bautista.htm'
p55
aS'/search?q=books+with+the+history+on+on+san+juan+bautista&biw=975&bih=440&source=univ&tbm=shop&tbo=u&sa=X&ei=eiTPUqy-EoqwsQT40ICYDA&ved=0CCkQsxg'
p56
aS'http://en.wikipedia.org/wiki/Mission_San_Juan_Bautista'
p57
aS'http://www.arcadiapublishing.com/9780738547732/San-Juan-Bautista'
p58
aS'http://www.sanjuanbautistaca.com/clubs-n-orgs/index.html'
p59
aS'http://www.oldmissionsjb.org/history.html'
p60
aS'http://oldmissionsjb.org/contact.html'
p61
aS'http://www.san-juan-bautista.ca.us/history.htm'
p62
aS'http://www.san-juan-bautista.ca.us/'
p63
aS'http://en.wikipedia.org/wiki/Mission_San_Juan_Bautista'
p64
aS'http://en.wikipedia.org/wiki/San_Juan_Bautista,_California'
p65
aS'/search?q=mission+san+juan+bautista+books&biw=975&bih=440&source=univ&tbm=shop&tbo=u&sa=X&ei=hyTPUo3nOtKzsASFyIDgDQ&ved=0CCkQsxg'
p66
aS'http://www.amazon.com/Mission-Juan-Bautista-Missions-California/dp/0823958795'
p67
aS'http://en.wikipedia.org/wiki/Mission_San_Juan_Bautista'
p68
aS'http://www.oldmissionsjb.org/history.html'
p69
aS'http://www.arcadiapublishing.com/9780738547732/San-Juan-Bautista'
p70
aS'http://en.wikipedia.org/wiki/Mission_San_Juan_Bautista'
p71
aS'http://www.escusd.k12.ca.us/mission_trail/SJBautista/MissionSanJuanBautista.html'
p72
aS'http://www.missionscalifornia.com/keyfacts/san-juan-bautista.html'
p73
aS'http://gocalifornia.about.com/od/camissions/ss/mission-san-juan-bautista.htm'
p74
aS'http://missiontour.org/bautista/'
p75
aS'http://oldmissionsjb.org/contact.html'
p76
aS'http://en.wikipedia.org/wiki/Mission_San_Juan_Bautista'
p77
aS'http://www.oldmissionsjb.org/'
p78
aS'http://www.missionscalifornia.com/keyfacts/san-juan-bautista.html'
p79
aS'http://www.parks.ca.gov/sjbshp/'
p80
aS'http://www.dmv.com/'
p81
aS'http://www.dmv.org/'
p82
aS'http://www.dmv.state.pa.us/'
p83
aS'/search?q=dmv.com&biw=975&bih=440&source=univ&tbm=nws&tbo=u&sa=X&ei=myTPUsSgMqe2sASt6oGgDg&ved=0CEQQqAI'
p84
aS'http://www.nysdmv.com/'
p85
aS'http://fastrac.com/'
p86
aS'http://en.wikipedia.org/wiki/FASTRAC'
p87
aS'http://en.wikipedia.org/wiki/Fastrac_%28engine%29'
p88
aS'https://www.bayareafastrak.org/'
p89
aS'https://www.facebook.com/fastracsats'
p90
aS'https://www.bayareafastrak.org/'
p91
aS'https://www.bayareafastrak.org/vector/forte/cgi_bin/forteisapi.dll?serviceName=ETCAccountWebSO&templateName=accounts/AccountLogin.html'
p92
aS'http://www.bayareafastrak.org/static/rts/validatetag.shtml'
p93
aS'https://www.bayareafastrak.org/vector/dynamic/violations/'
p94
aS'https://www.bayareafastrak.org/dynamic/contact/service_centers.shtml'
p95
aS'http://en.wikipedia.org/wiki/Bollywood'
p96
aS'/search?q=bollywood+india&biw=975&bih=440&source=univ&tbm=nws&tbo=u&sa=X&ei=riTPUvPhEcHNsQTx1ICoDA&ved=0CDQQqAI'
p97
aS'/search?q=bollywood+india&biw=975&bih=440&tbm=isch&tbo=u&source=univ&sa=X&ei=riTPUvPhEcHNsQTx1ICoDA&ved=0CEEQsAQ'
p98
aS'http://timesofindia.indiatimes.com/entertainment/hindi/bollywood/articlelistls/4724967.cms'
p99
aS'http://timesofindia.indiatimes.com/entertainment'
p100
aS'https://www.wellsfargo.com/'
p101
aS'https://www.wellsfargo.com/online-banking/'
p102
aS'https://www.wellsfargo.com/locator/'
p103
aS'https://www.wellsfargo.com/mortgage/'
p104
aS'https://www.wellsfargo.com/student/'
p105
aS'http://www.yahoo.com/'
p106
aS'http://mail.yahoo.com/'
p107
aS'https://login.yahoo.com/'
p108
aS'http://finance.yahoo.com/'
p109
aS'http://sports.yahoo.com/'
p110
aS'http://www.cheapair.com/'
p111
aS'http://lowestairfares.com/'
p112
aS'http://www.hotwire.com/air/index.jsp'
p113
aS'http://www.airfarewatchdog.com/'
p114
aS'http://www.discountairfare.com/'
p115
aS'http://www.united.com/'
p116
aS'https://www.united.com/web/en-Us/Content/reservations/default.aspx'
p117
aS'http://www.united.com/travel/checkin/start.aspx'
p118
aS'https://www.united.com/web/en-us/apps/travel/flightstatus/default.aspx'
p119
aS'https://www.united.com/web/en-US/content/mileageplus/awards/default.aspx'
p120
aS'http://www.runawaystage.com/'
p121
aS'http://www.runawaystage.com/auditions.html'
p122
aS'http://sacramentosidetracks.com/?tag=runaway-stage-productions'
p123
aS'http://www.sacbee.com/2012/08/10/4712534/runaway-hotline-has-many-calls.html'
p124
aS'http://www.yelp.com/biz/runaway-stage-productions-sacramento'
p125
aS'http://www.appian.com/bpm-videos/product/modern-work-platform-changing-world-video'
p126
aS'http://www.appian.com/bpm-videos/'
p127
aS'http://www.appian.com/bpm-videos/uncategorized/be-part-of-the-process'
p128
aS'http://www.appian.com/bpm-videos/bpm-software/appian-bpm-suite-video'
p129
aS'http://www.appian.com/bpm-customers/videos/cmegroup.jsp'
p130
aS'http://www.appian.com/bpm-videos/product/modern-work-platform-changing-world-video'
p131
aS'http://www.appian.com/bpm-videos/'
p132
aS'http://www.appian.com/bpm-customers/videos/cmegroup.jsp'
p133
aS'http://www.appian.com/bpm-videos/uncategorized/be-part-of-the-process'
p134
aS'http://www.youtube.com/watch?v=GtpFooei6QE'
p135
aS'http://disneychannel.disney.com/'
p136
aS'http://disneychannel.disney.com/games'
p137
aS'http://games.disney.com/disneychannel-dog-with-a-blog-stan-s-sneaky-blog'
p138
aS'http://disneychannel.disney.com/the-suite-life-on-deck'
p139
aS'http://games.disney.com/disneychannel-gravity-falls-mystery-shack-mystery'
p140
aS'http://www.teennick.com/shows/zoey-101/'
p141
aS'http://en.wikipedia.org/wiki/Zoey_101'
p142
aS'http://www.imdb.com/title/tt0415463/'
p143
aS'http://www.youtube.com/watch?v=XYvWDgx26M4'
p144
aS'http://www.nick.com/shows/zoey_101/index.jhtml'
p145
aS'http://www.lovehaight.org/links/secret_sidewalk/white_witch.html'
p146
aS'http://en.wikipedia.org/wiki/Niles_Canyon_ghost'
p147
aS'/search?q=the+witch+of+niles+canyon&biw=975&bih=440&tbm=isch&tbo=u&source=univ&sa=X&ei=7iTPUtvYGK_gsAS2h4KoDQ&ved=0CDgQsAQ'
p148
aS'http://www.youtube.com/watch?v=jC5kYYfa0Cg'
p149
aS'http://answers.yahoo.com/question/index?qid=20110613175345AAbfBg0'
p150
aS'http://www.lovehaight.org/links/secret_sidewalk/white_witch.html'
p151
aS'http://en.wikipedia.org/wiki/Niles_Canyon_ghost'
p152
aS'/search?q=the+witch+of+niles+canyon&biw=975&bih=440&tbm=isch&tbo=u&source=univ&sa=X&ei=9STPUsHIEaXmsASqmYHwCw&ved=0CDgQsAQ'
p153
aS'http://www.youtube.com/watch?v=jC5kYYfa0Cg'
p154
aS'http://answers.yahoo.com/question/index?qid=20110613175345AAbfBg0'
p155
aS'http://www.imdb.com/title/tt0469684/'
p156
aS'http://www.youtube.com/watch?v=_bF8VC8VT0Y'
p157
aS'http://www.youtube.com/watch?v=vvXlLAO6cjs'
p158
aS'http://www.youtube.com/watch?v=5Qy6t2Y9S5Y'
p159
aS'http://en.wikipedia.org/wiki/Bloody_Mary_%28film%29'
p160
aS'http://disneychannel.disney.com/'
p161
aS'http://disneychannel.disney.com/games'
p162
aS'http://disneychannel.disney.com/jessie'
p163
aS'http://disneychannel.disney.com/the-suite-life-on-deck'
p164
aS'http://games.disney.com/disneychannel-dog-with-a-blog-stan-s-sneaky-blog'
p165
aS'http://www.funnyjunk.com/'
p166
aS'http://www.funnyjunk.com/funny_pictures/'
p167
aS'http://www.funnyjunk.com/channels/'
p168
aS'http://www.funnyjunk.com/movies/'
p169
aS'http://www.funnyjunk.com/youtube/'
p170
aS'http://www.dot.state.wi.us/travel/driving-cond.htm'
p171
aS'http://tripcheck.com/'
p172
aS'http://www.cotrip.org/roadConditions.htm'
p173
aS'http://www.511mn.org/'
p174
aS'http://lb.511mn.org/mnlb/'
p175
aS'http://www.history.com/'
p176
aS'http://www.history.com/this-day-in-history'
p177
aS'http://en.wikipedia.org/wiki/History'
p178
aS'http://www.besthistorysites.net/'
p179
aS'http://www.nps.gov/inde/'
p180
aS'http://minus.com/'
p181
aS'http://en.wikipedia.org/wiki/Hyphen'
p182
aS'http://www.kiwisbybeat.com/minus.html'
p183
aS'http://www.m-nus.com/'
p184
aS'http://www.hyphenmagazine.com/'
p185
aS'http://www.xvideos.com/video909869/ass_delights_2'
p186
aS'http://www.tightdelights.com/'
p187
aS'http://www.xnxx.com/video909869/ass_delights_2'
p188
aS'http://www.perfectgirls.net/87851/Hot_tight_ass_moans_with_delight'
p189
aS'http://www.julesjordanvideo.com/movie/457/anal-delights-2.html'
p190
aS'http://en.wikipedia.org/wiki/International_Sport_Karate_Association'
p191
aS'http://www.sportmartialarts.com/2013-us-open-iska-world-martial-arts-championships-competitors-reach-new-heights/'
p192
aS'http://www.iska-europe.eu/what-is-iska.html'
p193
aS'http://usopen-karate.com/'
p194
aS'http://usopen-karate.com/index.php/iska-sport-mma-rules-for-2013/'
p195
aS'http://www.imdb.com/character/ch0196682/'
p196
aS'https://www.facebook.com/pages/Mrs-Bs-Homecooking/122448081158565'
p197
aS'http://www.yelp.com/biz/mrs-bs-home-cooking-montgomery'
p198
aS'http://www.urbanspoon.com/r/225/1094356/restaurant/Mrs-Bs-Home-Cooking-Montgomery'
p199
aS'http://www.songlyrics.com/the-chariot/mrs-montgomery-alabama-iii-lyrics/'
p200
aS'http://www.rootsweb.ancestry.com/%7Egagordo3/montgomery_family_obituaries.htm'
p201
aS'http://freepages.genealogy.rootsweb.ancestry.com/%7Erosdavies/SURNAMES/M/Montgomery.htm'
p202
aS'http://www.legacy.com/obituaries/houstonchronicle/obituary.aspx?page=lifestory&pid=119895336'
p203
aS'http://www.onlinebiographies.info/in/posey/montgomery-sb.htm'
p204
aS'http://schools.misd.org/default.aspx?name=mms.admin'
p205
aS'http://en.wikipedia.org/wiki/Poppy_Montgomery'
p206
aS'http://www.44daughters.com/'
p207
aS'http://acinderellastory.wikia.com/wiki/Sam_Montgomery'
p208
aS'http://www.legacy.com/obituaries/thecarrollnews/obituary.aspx?pid=168592843'
p209
aS'http://okgenweb.org/lawmen/pic/smontgomery.htm'
p210
aS'http://www.tmz.com/person/sam-champion/'
p211
aS'http://www.sammontgomerytkd.com/'
p212
aS'http://www.espn.co.uk/more/sport/story/250569.html'
p213
aS'http://www.huffingtonpost.com/2012/12/21/robin-roberts-sam-champion-wedding_n_2348569.html'
p214
aS'http://search-logs.com/user/837054-wwwsammontgomerytkdcom/2'
p215
aS'http://www.chucknorris.com/'
p216
aS'http://en.wikipedia.org/wiki/Chuck_Norris'
p217
aS'http://www.chucknorrisfacts.com/'
p218
aS'http://www.chucknorrisfacts.com/chuck-norris-top-50-facts'
p219
aS'http://www.starpulse.com/Actors/Norris,_Chuck/'
p220
aS'/search?q=steven+seagal&biw=975&bih=440&source=univ&tbm=nws&tbo=u&sa=X&ei=UCXPUpfTIoOwsATX54DgDA&ved=0CCwQqAI'
p221
aS'http://stevenseagal.com/'
p222
aS'http://en.wikipedia.org/wiki/Steven_Seagal'
p223
aS'http://www.imdb.com/name/nm0000219/'
p224
aS'http://www.biography.com/people/steven-seagal-9542595'
p225
aS'http://www.aolstalker.com/s/sacamento+news.com+shivan+vegum%27s+runaway+case/'
p226
aS'http://www.aolstalker.com/s/runaway/'
p227
aS'http://search-logs.com/user/837054-wwwsammontgomerytkdcom/2'
p228
aS'http://efimelvoronepyge.narod.ru/2.html'
p229
aS'http://www.makephpbb.com/boss/viewtopic.php?p=2765&mforum=boss'
p230
aS'http://www.aolstalker.com/s/sacramento+news.com+shivan+begum%27s+runaway+case/'
p231
aS'http://www.aolstalker.com/s/news+10+sacramento/'
p232
aS'http://search-logs.com/user/837054-wwwsammontgomerytkdcom/2'
p233
aS'http://www.seattleindian.com/seattle/news-latest.asp?id=25'
p234
aS'http://archives.ndtv.com/articles/2013-12.html'
p235
aS'http://www.localconditions.com/weather-reno-nevada/89501/traffic.php'
p236
aS'http://www.mynews4.com/'
p237
aS'http://www.ktvn.com/'
p238
aS'http://www.kolotv.com/'
p239
aS'http://www.rgj.com/'
p240
aS'http://en.wikipedia.org/wiki/Category:People_from_Fremont,_California'
p241
aS'http://en.wikipedia.org/wiki/Fremont,_California'
p242
aS'http://www.yelp.com/search?find_desc=The+Dental+People&find_loc=Fremont%2C+CA'
p243
aS'http://www.yelp.com/biz/suzanne-sablan-dds-fremont'
p244
aS'http://www.fremont-dentistry.com/'
p245
aS'https://myspace.com/'
p246
aS'https://myspace.com/signin'
p247
aS'https://myspace.com/mia'
p248
aS'https://myspace.com/deftones'
p249
aS'https://myspace.com/wearephoenix'
p250
aS'http://www.youtube.com/'
p251
aS'http://m.youtube.com/?hl=en&gl=US'
p252
aS'http://www.youtube.com/videos'
p253
aS'http://www.youtube.com/channel/UC-9-kyTW8ZkZNDHQJ6FgpwQ'
p254
aS'http://www.youtube.com/channel/HC-r1FlvvNFs0'
p255
aS'http://www.wwe.com/'
p256
aS'http://www.wwe.com/shows/raw'
p257
aS'http://shop.wwe.com/'
p258
aS'/search?q=wwe&biw=975&bih=440&source=univ&tbm=nws&tbo=u&sa=X&ei=fiXPUt6VMdTPsASR84HoCw&ved=0CDoQqAI'
p259
aS'http://en.wikipedia.org/wiki/WWE'
p260
aS'http://www.ticketmaster.com/'
p261
aS'http://www.ticketmaster.com/music'
p262
aS'http://www.ticketmaster.com/guides'
p263
aS'http://www.ticketmaster.com/section/sports'
p264
aS'http://www.ticketmaster.com/Dallas-Cowboys-tickets/artist/805931'
p265
aS'http://www.neopets.com/'
p266
aS'http://www.neopets.com/games/'
p267
aS'http://www.neopets.com/explore.phtml'
p268
aS'http://www.neopets.com/bank.phtml'
p269
aS'http://www.neopets.com/customise/'
p270
aS'http://www.yahoo.com/'
p271
aS'http://us.mail.yahoo.com/'
p272
aS'http://news.yahoo.com/'
p273
aS'http://finance.yahoo.com/'
p274
aS'http://my.yahoo.com/'
p275
aS'http://www.theonion.com/'
p276
aS'http://www.theonion.com/section/sports/'
p277
aS'http://www.theonion.com/features/news/'
p278
aS'http://www.theonion.com/video/'
p279
aS'http://www.theonion.com/video/sony-releases-new-stupid-piece-of-shit-that-doesnt,14309/'
p280
aS'https://myspace.com/'
p281
aS'https://myspace.com/deftones'
p282
aS'https://myspace.com/mia'
p283
aS'https://myspace.com/signin'
p284
aS'https://myspace.com/slayer'
p285
aS'https://disneyland.disney.go.com/'
p286
aS'https://disneyland.disney.go.com/disneyland-hotel/'
p287
aS'https://disneyland.disney.go.com/passes/blockout-dates/'
p288
aS'https://disneyland.disney.go.com/hotels/'
p289
aS'https://disneyland.disney.go.com/tickets/'
p290
aS'http://www.google.com/'
p291
aS'http://www.google.com/corporate/losangeles/'
p292
aS'http://www.google.com/about/jobs/locations/los-angeles/'
p293
aS'http://www.google.com/analytics/'
p294
aS'http://maps.google.com/'
p295
aS'http://en.wikipedia.org/wiki/Indira_Gandhi'
p296
aS'http://en.wikipedia.org/wiki/Assassination_of_Indira_Gandhi'
p297
aS'http://en.wikipedia.org/wiki/Feroze_Gandhi'
p298
aS'/search?q=indira+gandhi&biw=975&bih=440&source=univ&tbm=nws&tbo=u&sa=X&ei=sSXPUtzIHujSsASP0YDwCw&ved=0CDoQqAI'
p299
aS'http://www.sscnet.ucla.edu/southasia/History/Independent/Indira.html'
p300
aS'/search?q=the+indian+map&biw=975&bih=440&tbm=isch&tbo=u&source=univ&sa=X&ei=tyXPUrKCL4K3sATloYDwCw&ved=0CCkQsAQ'
p301
aS'http://www.mapsofindia.com/'
p302
aS'http://www.mapsofindia.com/maps/cities/'
p303
aS'http://www.mapsofindia.com/roads/'
p304
aS'http://www.nationsonline.org/oneworld/india_map.html'
p305
aS'http://en.wikipedia.org/wiki/List_of_Hindu_festivals'
p306
aS'http://en.wikipedia.org/wiki/Public_holidays_in_India'
p307
aS'http://www.calendarlabs.com/calendars/religious/hindu-calendar.php'
p308
aS'http://www.indiafestivaltampa.com/'
p309
aS'http://indiafestival.iacofcarolinas.org/'
p310
aS'http://en.wikipedia.org/wiki/List_of_Hindu_festivals'
p311
aS'http://en.wikipedia.org/wiki/Public_holidays_in_India'
p312
aS'http://www.calendarlabs.com/calendars/religious/hindu-calendar.php'
p313
aS'http://www.indiafestivaltampa.com/'
p314
aS'http://indiafestival.iacofcarolinas.org/'
p315
aS'/search?q=all+the+indian+festivals&biw=975&bih=440&tbm=isch&tbo=u&source=univ&sa=X&ei=yyXPUouLFamysASEzoH4Cw&ved=0CCkQsAQ'
p316
aS'http://en.wikipedia.org/wiki/List_of_Hindu_festivals'
p317
aS'http://en.wikipedia.org/wiki/Public_holidays_in_India'
p318
aS'http://stuti.myweb.uga.edu/edit6190project/allindia.htm'
p319
aS'http://festivals.indobase.com/'
p320
aS'http://www.expedia.com/Waikiki.d6048741.Destination-Travel-Guides'
p321
aS'http://www.expedia.com/Waikiki-Beach-Walk.d6167947.Destination-Travel-Guides'
p322
aS'http://www.expedia.com/Waikiki-Beach.d6001233.Destination-Travel-Guides'
p323
aS'http://www.marinahawaiivacations.com/'
p324
aS'http://www.extraholidays.com/honolulu-hawaii/royal-garden-at-waikiki.aspx?LID=GGLLOC&utm_medium=referral-GooglePlaces&utm_source=maps.Google.com&utm_campaign=SEO'
p325
aS'http://www.bbc.co.uk/news/world/asia/india/'
p326
aS'http://www.bbc.co.uk/news/world-asia-india-25527401'
p327
aS'http://www.bbc.co.uk/news/world-asia-india-25534144'
p328
aS'http://www.bbc.co.uk/news/world-asia-india-25663763'
p329
aS'http://www.bbc.co.uk/news/world-asia-india-25648285'
p330
aS'http://www.bbc.co.uk/news/science-environment-24729073'
p331
aS'http://www.bbc.co.uk/news/world-asia-india-24044091'
p332
aS'http://www.bbc.co.uk/news/world-asia-india-23908176'
p333
aS'http://www.bbc.co.uk/news/world-asia-india-22378366'
p334
aS'http://www.bbc.co.uk/news/business-23894907'
p335
aS'/search?q=bbc+indian+news+on+a+article&biw=975&bih=440&source=univ&tbm=nws&tbo=u&sa=X&ei=5SXPUpW4GqTisASqh4CgDA&ved=0CCkQqAI'
p336
aS'http://www.bbc.co.uk/news/world-asia-india-25663855'
p337
aS'http://www.bbc.co.uk/news/world-asia-india-25618163'
p338
aS'http://www.bbc.co.uk/news/world/asia/india/'
p339
aS'http://www.bbc.co.uk/news/world-asia-india-25663760'
p340
aS'http://www.travelocity.com/'
p341
aS'http://www.travelocity.com/Flights'
p342
aS'http://www.travelocity.com/Travel-Deals'
p343
aS'http://www.travelocity.com/Hotels'
p344
aS'http://www.travelocity.com/c/content/site/en/TRAVELOCITY/mobile/microsite/mobile/ipad.html'
p345
aS'http://www.runescape.com/'
p346
aS'http://www.runescape.com/community'
p347
aS'http://www.runescape.com/game.ws?j=1'
p348
aS'http://oldschool.runescape.com/'
p349
aS'http://www.runescape.com/game.ws'
p350
aS'http://disneychannel.disney.com/'
p351
aS'http://disneychannel.disney.com/games'
p352
aS'http://disneychannel.disney.com/teen-beach-movie'
p353
aS'http://disneychannel.disney.com/jessie'
p354
aS'http://disneychannel.disney.com/shows'
p355
aS'http://disney.go.com/disneychannel/videos/happy-mothers-day-0_oelarl4d'
p356
aS'http://www.youtube.com/watch?v=1IIggcaQT_E'
p357
aS'http://www.youtube.com/watch?v=rMsiQFxpkCc'
p358
aS'http://www.youtube.com/watch?v=r6tnoRvy0Fg'
p359
aS'http://www.youtube.com/watch?v=1zAsFCyaoU0'
p360
aS'http://www.sheraton-waikiki.com/'
p361
aS'http://www.starwoodhotels.com/sheraton/property/overview/index.html?propertyID=377'
p362
aS'http://www.tripadvisor.com/Hotel_Review-g60982-d87108-Reviews-Sheraton_Waikiki-Honolulu_Oahu_Hawaii.html'
p363
aS'http://www.yelp.com/biz/sheraton-waikiki-honolulu'
p364
aS'http://www.expedia.com/Oahu-Island-Hotels-Sheraton-Waikiki.h7385.Hotel-Information'
p365
aS'http://www.united.com/'
p366
aS'https://www.united.com/web/en-Us/Content/reservations/default.aspx'
p367
aS'https://www.united.com/web/en-US/content/mileageplus/awards/default.aspx'
p368
aS'https://www.united.com/web/en-us/apps/travel/flightstatus/default.aspx'
p369
aS'https://www.united.com/web/en-us/apps/booking/flight/searchRT.aspx'
p370
aS'http://www.hawaiianairlines.com/'
p371
aS'https://apps.hawaiianairlines.com/reservations/'
p372
aS'http://www.hawaiianairlines.com/aboutus/pages/contact-hawaiian.aspx'
p373
aS'http://www.hawaiianairlines.com/hawaiianmiles'
p374
aS'https://www.hawaiianairlines.com/specialoffers/pages/index.aspx'
p375
aS'http://www.cheapair.com/'
p376
aS'http://www.cheapair.com/air/'
p377
aS'http://www.cheapair.com/flights/Coast-to-Coast.htm'
p378
aS'https://www.cheapair.com/last-minute-airfare.htm'
p379
aS'https://www.cheapair.com/trips/'
p380
aS'http://www.yelp.com/biz/ocean-tower-hotel-at-waikiki-beach-honolulu'
p381
aS'http://www.edreams.com/offers/hotels-detail/3/america/840/US/united-states/0674/honolulu-hi/54926/ocean-tower-at-waikiki-beach/'
p382
aS'http://www.tripadvisor.com/ShowTopic-g29222-i37-k1347369-Aqua_Ocean_Tower_Hotel_on_Waikiki_Beach_1_hotel-Oahu_Hawaii.html'
p383
aS'http://www.tripadvisor.com/ShowUserReviews-g60982-d596760-r10809042-Hotel_Renew_by_Aston-Honolulu_Oahu_Hawaii.html'
p384
aS'http://www.urbanspoon.com/ps/37/9859/hawaii-aqua-ocean-tower-hotel-on-waikiki-beach-nearby-restaurants'
p385
aS'http://travel.yahoo.com/'
p386
aS'http://travel.yahoo.com/flights/las-vegas_LAS'
p387
aS'http://travel.yahoo.com/hotels'
p388
aS'http://ach.travel.yahoo.net/flights/GoToNewSearch.do?Service=YHOE'
p389
aS'http://www.bing.com/travel'
p390
aS'http://travel.yahoo.com/'
p391
aS'http://travel.yahoo.com/flights/las-vegas_LAS'
p392
aS'http://travel.yahoo.com/hotels'
p393
aS'http://ach.travel.yahoo.net/flights/GoToNewSearch.do?Service=YHOE'
p394
aS'http://www.bing.com/travel'
p395
aS'http://www.yahoo.com/'
p396
aS'http://mail.yahoo.com/'
p397
aS'https://login.yahoo.com/config/mail?.intl=uk&.src=ym'
p398
aS'/search?q=wwwyahoo.com&biw=975&bih=440&source=univ&tbm=nws&tbo=u&sa=X&ei=MSbPUtrhPOilsQTU6oCYDA&ved=0CEUQqAI'
p399
aS'http://math.nyu.edu/%7Ekhasilev/nyu-edu-www.yahoomail.com-login/'
p400
aS'http://www.neopets.com/'
p401
aS'http://www.neopets.com/games/'
p402
aS'http://www.neopets.com/explore.phtml'
p403
aS'http://www.neopets.com/bank.phtml'
p404
aS'http://www.neopets.com/quickref.phtml'
p405
aS'http://myscene.everythinggirl.com/'
p406
aS'http://myscene.everythinggirl.com/games/games.aspx'
p407
aS'http://myscene.everythinggirl.com/games/shoppingspree/'
p408
aS'http://myscene.everythinggirl.com/games/beauty_studio/'
p409
aS'http://myscene.everythinggirl.com/games/fashion_book/'
p410
aS'http://myscene.everythinggirl.com/games/fashion_book/'
p411
aS'http://myscene.everythinggirl.com/games/shoppingspree/'
p412
aS'http://myscene.everythinggirl.com/games/games.aspx'
p413
aS'http://myscene.everythinggirl.com/friends/chelsea/index.aspx?open=book'
p414
aS'http://myscene.everythinggirl.com/'
p415
aS'http://www.youtube.com/'
p416
aS'http://www.youtube.com/channel/UC-9-kyTW8ZkZNDHQJ6FgpwQ'
p417
aS'http://www.youtube.com/user/movies'
p418
aS'http://www.youtube.com/?gl=GB&hl=en-GB'
p419
aS'http://www.youtube.com/user/lifeinaday'
p420
aS'https://www.wellsfargo.com/'
p421
aS'https://www.wellsfargo.com/online-banking/'
p422
aS'https://www.wellsfargo.com/locator/'
p423
aS'https://www.wellsfargo.com/mortgage/'
p424
aS'https://www.wellsfargo.com/student/'
p425
aS'http://www.astonwaikikicircle.com/'
p426
aS'http://www.tripadvisor.com/Hotel_Review-g60982-d86984-Reviews-Aston_Waikiki_Circle_Hotel-Honolulu_Oahu_Hawaii.html'
p427
aS'http://www.yelp.com/biz/aston-waikiki-circle-hotel-honolulu'
p428
aS'http://www.astonhotels.com/resort/overview/aston-waikiki-circle-hotel'
p429
aS'http://www.booking.com/hotel/us/aston-waikiki-circle.html'
p430
aS'http://www.geocaching.com/profile/?guid=45094f67-fc56-4b92-bc0c-8653311c7d03'
p431
aS'http://wingbirdx.tumblr.com/post/68024079852/dan-leland-tom-and-brianna-discuss-the'
p432
aS'http://vimeo.com/49749038'
p433
aS'https://www.facebook.com/media/set/?set=a.599973186700328.1073741832.128795043818147&type=3'
p434
aS'http://www.pinterest.com/pin/60306082481828220/'
p435
aS'http://www.travelocity.com/'
p436
aS'http://www.travelocity.com/Flights'
p437
aS'http://www.travelocity.com/Hotels'
p438
aS'http://travel.travelocity.com/mystuff/MyTripsNewLookup.do'
p439
aS'http://travel.travelocity.com/flights/InitialSearch.do'
p440
aS'/search?q=boeing+757-200+jet&biw=975&bih=440&tbm=isch&tbo=u&source=univ&sa=X&ei=aybPUri4Ju_IsATc0oCIDA&ved=0CCkQsAQ'
p441
aS'http://www.seatguru.com/airlines/United_Airlines/information.php'
p442
aS'http://en.wikipedia.org/wiki/Boeing_757'
p443
aS'http://www.airliners.net/aircraft-data/stats.main?id=101'
p444
aS'http://www.united.com/web/en-US/content/travel/inflight/aircraft/757.aspx'
p445
aS'http://www.barbie.com/'
p446
aS'http://www.barbie.com/activities/fun_games/'
p447
aS'http://www.barbie.com/my-dreamhouse/'
p448
aS'http://www.barbie.com/activities/fashion/'
p449
aS'http://www.barbie.com/activities/fashion/barbie-design-play/'
p450
aS'/search?q=yhoo&biw=975&bih=440&source=univ&tbm=nws&tbo=u&sa=X&ei=dybPUuTOMcXisAS4h4KQDA&ved=0CDkQqAI'
p451
aS'http://finance.yahoo.com/q?s=YHOO'
p452
aS'http://www.google.com/finance?cid=658890'
p453
aS'http://money.cnn.com/quote/quote.html?symb=YHOO'
p454
aS'http://seekingalpha.com/symbol/YHOO'
p455
as.