ccollections
defaultdict
p1
(c__builtin__
list
p2
tRp3
S'3117578'
p4
(lp5
S'http://www.wonderlic.com/'
p6
aS'http://en.wikipedia.org/wiki/Wonderlic_Test'
p7
aS'http://espn.go.com/page2/s/closer/020228test.html'
p8
aS'http://footballiqscore.com/'
p9
aS'/search?q=wonderlic+test&biw=975&bih=440&tbm=isch&tbo=u&source=univ&sa=X&ei=_ULPUqHmBsnKsQSJ2ICQDA&ved=0CFcQsAQ'
p10
aS'http://www.wonderlic.com/'
p11
aS'http://en.wikipedia.org/wiki/Wonderlic_Test'
p12
aS'http://espn.go.com/page2/s/closer/020228test.html'
p13
aS'http://footballiqscore.com/'
p14
aS'/search?q=wonderlic+test&biw=975&bih=440&tbm=isch&tbo=u&source=univ&sa=X&ei=A0PPUu2CE_azsATg5YGwDA&ved=0CFQQsAQ'
p15
aS'http://www.whitepages.com/business/popular-cities/TX/Dallas'
p16
aS'http://www.whitepages.com/white-pages/dallas-tx'
p17
aS'http://www.whitepages.com/yellow-pages/dallas-tx'
p18
aS'http://www.bbb.org/dallas/business-reviews/advertising-directory-and-guide/business-white-pages-in-dallas-tx-90067054/complaints'
p19
aS'http://www.bbb.org/dallas/business-reviews/services-general/business-white-pages-in-dallas-tx-90031016'
p20
aS'http://lustrolite.com/'
p21
aS'http://www.diynetwork.com/videos/acrylic-shower-panels/82557.html'
p22
aS'http://forums.jlconline.com/forums/showthread.php?55376-Using-Acrylic-panels-for-shower-walls'
p23
aS'http://www.walmart.com/c/kp/acrylic-shower-wall-panels'
p24
aS'http://www.homedepot.com/b/Bath-Bath-Tubs-Showers-Whirlpool-Tubs-Bath-Tubs-Bath-Tub-Walls-Surrounds/Acrylic/N-5yc1vZbzakZ1z0zc5m'
p25
aS'http://www.tms.com/'
p26
aS'http://www.tms.va.gov/'
p27
aS'http://www.afford.com/'
p28
aS'http://tmsmanagementgroup.com/'
p29
aS'http://www.giftoflightstms.com/'
p30
aS'http://www.texasmotorspeedway.com/texas-motor-speedway-race-tickets/race-weekend-public-schedule'
p31
aS'http://texasmotorspeedway.com/'
p32
aS'http://www.nascar.com/en_us/sprint-cup-series/schedule/tracks/texas-motor-speedway.html'
p33
aS'http://en.wikipedia.org/wiki/Texas_Motor_Speedway'
p34
aS'http://www.ticketmaster.com/Texas-Motor-Speedway-tickets-Fort-Worth/venue/98553'
p35
aS'http://www.tivo.com/'
p36
aS'https://www.tivo.com/shop'
p37
aS'https://www.tivo.com/shop/detail/tivo-premiere'
p38
aS'http://support.tivo.com/'
p39
aS'http://www.tivo.com/discover/cable'
p40
aS'http://www.faram.com/products/detail.php?idC=4&idL=en&idSc=2&idP=8&idD='
p41
aS'http://www.faram.com/products/detail.php?idC=4&idL=en&idSc=2&idP=38&idD='
p42
aS'http://www.faram.com/products/detail.php?idL=en&idD=&idC=4&idSc=2&idP=7'
p43
aS'http://www.faram.com/products/detail.php?idC=4&idL=en&idSc=2&idP=41&idD=1'
p44
aS'http://www.faram.com/products/detail.php?idC=4&idL=en&idSc=2&idP=9&idD=1'
p45
aS'http://www.faram.com/'
p46
aS'http://www.faram.com/products/index.php?idD=1&idL=en&idC=4'
p47
aS'http://www.faram.com/products/detail.php?idL=en&idD=&idC=4&idSc=2&idP=7'
p48
aS'http://www.faram.com/download/index.php?idL=en&idD=1'
p49
aS'http://www.faram.com/products/detail.php?idC=4&idL=en&idSc=2&idP=38&idD='
p50
aS'http://www.faram.com/products/detail.php?idC=4&idL=en&idSc=2&idP=8&idD='
p51
aS'http://canadiane.hotbox.ru/office-goiam-org.htm'
p52
aS'http://linguisticspis.hotbox.ru/www-advantafinancialcorp-com.htm'
p53
aS'http://www.urbanrealm.com/buildings/219/AEGON_Visitor_Reception.html'
p54
aS'http://egorochkinjah.narod.ru/16.html'
p55
aS'http://www.lumicor.com/'
p56
aS'http://www.lumicor.com/products/decorative-resin-inserts'
p57
aS'http://www.lumicor.com/products/collections/textiles'
p58
aS'http://www.lumicor.com/contact-us'
p59
aS'http://www.lumicor.com/solutions/lumilight'
p60
aS'http://www.lakemap.com/'
p61
aS'http://www.sportsmansconnection.com/'
p62
aS'http://www.fishinghotspots.com/'
p63
aS'http://www.mytopo.com/products/lake-maps.cfm'
p64
aS'http://www.dec.ny.gov/outdoor/9920.html'
p65
aS'/search?q=grapevine+lake+map&biw=975&bih=440&tbm=isch&tbo=u&source=univ&sa=X&ei=SEPPUvvqIvKwsQS9koGADA&ved=0CCsQsAQ'
p66
aS'http://www.swf-wc.usace.army.mil/grapevine/Information/Maps.asp'
p67
aS'http://www.lake-grapevine.com/map/'
p68
aS'http://www.lake-grapevine.com/meadowmere-park-map/'
p69
aS'http://www.lake-grapevine.com/trails/'
p70
aS'http://www.searspartsdirect.com/partsdirect/brands/Onkyo-Parts'
p71
aS'http://www.onkyousa.com/Info/warranty.php?source=globalnav'
p72
aS'http://www.onkyousa.com/Support/'
p73
aS'http://www.encompassparts.com/brands/onk/Onkyo'
p74
aS'http://www.ebay.com/bhp/onkyo-parts'
p75
aS'http://www.break.com/findpix/priceless-420/'
p76
aS'http://adult.similarsites.com/site/priceless420.com'
p77
aS'http://thesaurus.com/browse/priceless420-images'
p78
aS'http://www.reference.com/motif/computers/priceless420-website'
p79
aS'http://www.fark.com/comments/87044/Priceless420com-Not-safe-for-work'
p80
aS'http://www.kmcwheels.com/'
p81
aS'http://www.kmcwheels.com/wheels?f=1'
p82
aS'http://www.kmcwheels.com/faq'
p83
aS'http://www.tirerack.com/wheels/kmc-wheels.jsp'
p84
aS'http://www.wheelpros.com/'
p85
aS'http://www.kmc.com/'
p86
aS'http://www.kmcwheels.com/'
p87
aS'http://www.kmcwheels.com/wheels?f=1'
p88
aS'http://www.kmcmusicorp.com/'
p89
aS'http://www.kmccontrols.com/'
p90
aS'http://www.kmcwheels.com/'
p91
aS'http://www.kmcwheels.com/wheels?f=1'
p92
aS'http://www.kmcwheels.com/team/bryce-menzies'
p93
aS'http://www.kmcwheels.com/news/112-kmc-wheels-launches-xd-series-rockstar-ii'
p94
aS'http://www.kmcwheels.com/team/ricky-johnson'
p95
aS'/search?q=lowering+springs+automotive&biw=975&bih=440&source=univ&tbm=shop&tbo=u&sa=X&ei=bkPPUv_SAevMsQSB1YKQDA&ved=0CCkQsxg'
p96
aS'http://www.autoanything.com/suspension-systems/20A50471A1.aspx'
p97
aS'http://www.youtube.com/watch?v=biOLaKSC0sM'
p98
aS'http://www.youtube.com/watch?v=Zq8d9gwCS1I'
p99
aS'http://www.andysautosport.com/lowering_springs.html'
p100
aS'/search?q=lowering+springs+2006+dodge+charger&biw=975&bih=440&source=univ&tbm=shop&tbo=u&sa=X&ei=dEPPUpTRMqXNsQSs-oC4DA&ved=0CCkQsxg'
p101
aS'http://www.autoanything.com/suspension-systems/Dodge/Charger/111A50469A50471A0A23A355A1.aspx'
p102
aS'http://www.ebay.com/bhp/dodge-charger-lowering-springs'
p103
aS'http://www.ebay.com/sch/i.html?_kw=dodge+charger+lowering+springs'
p104
aS'http://www.andysautosport.com/lowering_springs/dodge_charger.html'
p105
aS'http://www.kmcwheels.com/'
p106
aS'http://www.kmcwheels.com/wheels?f=1'
p107
aS'http://www.kmcwheels.com/news/112-kmc-wheels-launches-xd-series-rockstar-ii'
p108
aS'https://www.facebook.com/KMCWheels'
p109
aS'https://twitter.com/KMCWheels'
p110
aS'http://www.wheelpros.com/'
p111
aS'http://www.bigwheels.net/'
p112
aS'http://www.elementwheels.com/'
p113
aS'http://www.americanracing.com/'
p114
aS'http://www.rimtyme.com/'
p115
aS'http://www.nittotire.com/'
p116
aS'http://www.discounttire.com/dtcs/tires/nitto/home.do'
p117
aS'/search?q=nitto+tires&biw=975&bih=440&tbm=isch&tbo=u&source=univ&sa=X&ei=h0PPUv2_Fqu0sATF1YGgDA&ved=0CE0QsAQ'
p118
aS'http://www.bigotires.com/tire-brand-detail/nitto-tires'
p119
aS'http://www.4wheelparts.com/Tires/Jeep-Truck-Tires.aspx?t_c=13&t_s=536&t_pt=101509&Manufacturer_PQ=Nitto'
p120
aS'/search?q=toyo+tires&biw=975&bih=440&source=univ&tbm=shop&tbo=u&sa=X&ei=jUPPUtaEIYblsASo34CwDA&ved=0CCkQsxg'
p121
aS'http://toyotires.com/'
p122
aS'http://toyotires.com/tire/pattern/open-country-mt-off-road-maximum-traction-tires'
p123
aS'http://toyotires.com/tbr/overview'
p124
aS'http://toyotires.com/tire/pattern/open-country-at-ii-on-off-road-all-terrain-tires'
p125
aS'http://www.patternglass.com/lc.homepage.htm'
p126
aS'http://www.patternglass.com/eapgWhatIs/WhatIs.htm'
p127
aS'http://www.aolstalker.com/s/pattern+glass+wadd+63/'
p128
aS'http://www.wadestoneandglassworks.com/'
p129
aS'http://www.fbi.gov/about-us/lab/handbook-of-forensic-services-pdf'
p130
aS'http://www.aolstalker.com/s/pattern+glass+wadd+63/'
p131
aS'http://www.ebay.co.uk/sch/Pottery-Porcelain-Glass-/870/i.html'
p132
aS'http://www.tias.com/glass/brilliant-cut-and-crystal/'
p133
aS'http://www.tias.com/glass/pattern-glass/'
p134
aS'http://www.tias.com/glass/depression-glass/'
p135
aS'http://www.michelinman.com/'
p136
aS'http://www.michelinman.com/automotive-tires/automotive-tires-landing.page'
p137
aS'http://www.discounttire.com/dtcs/tires/michelin/home.do'
p138
aS'http://www.tirerack.com/tires/michelin/michelin-tires.jsp'
p139
aS'http://www.michelintruck.com/'
p140
aS'http://www.michelinman.com/'
p141
aS'http://www.michelinman.com/automotive-tires/automotive-tires-landing.page'
p142
aS'http://www.discounttire.com/dtcs/tires/michelin/home.do'
p143
aS'http://www.tirerack.com/tires/michelin/michelin-tires.jsp'
p144
aS'http://www.michelintruck.com/'
p145
aS'/search?q=hanson+door+pulls&biw=975&bih=440&source=univ&tbm=shop&tbo=u&sa=X&ei=rUPPUojIEbbLsQThl4LgAQ&ved=0CCkQsxg'
p146
aS'http://www.alhansen.com/prd.html'
p147
aS'http://www.restorationhardware.com/catalog/product/product.jsp?productId=prod1160222'
p148
aS'http://www.restorationhardware.com/catalog/product/product.jsp?productId=prod1283028'
p149
aS'http://www.restorationhardware.com/catalog/product/product.jsp?productId=prod1160204'
p150
aS'http://www.midwestwholesale.com/customer/miwhha/catalog/falcon.pdf'
p151
aS'http://www.aolstalker.com/s/falcon+gala+lever+latch/'
p152
aS'http://www.allegion.com/corp/en/brands/legge.html'
p153
aS'http://novapa.burst1.info/falcon-t301sq-satin-brass-grade-quantum-privacy-door-lever-with-backset-from-the-collection-t301sq-build'
p154
aS'https://buydoorhardwarenow.com/falcon_ma381p_apartment_lever'
p155
aS'http://www.yellowpages.com/alba-tx'
p156
aS'http://www.yellowpages.com/alba-tx/auto-repair-service'
p157
aS'http://www.yellowpages.com/alba-tx/granite'
p158
aS'http://www.yellowpages.com/alba-tx/restaurants'
p159
aS'http://www.yellowpages.com/alba-tx/skating-rinks'
p160
aS'http://emory.areaconnect.com/'
p161
aS'http://www.yellowpages.com/emory-tx/mip/emory-department-of-motor-vehicles-463525912'
p162
aS'http://www.yellowpages.com/emory-tx/brookshires'
p163
aS'http://www.yellowpages.com/emory-tx/attorneys'
p164
aS'http://www.yellowpagecity.com/US/TX/Alba/Yellow-Pages/'
p165
aS'http://www.yellowpages.com/alba-tx/lake-fork-rv-repair'
p166
aS'http://www.yellowpages.com/alba-tx/lake-fork-rv-and-boat-repair'
p167
aS'http://www.ets-systems.com/lakefork/services/rvservice.htm'
p168
aS'https://plus.google.com/116135635202845857764/about?hl=en&socfid=web:lu:unknown:localgroupedresult&socpid=1'
p169
aS'https://plus.google.com/113048770093122070853/about?hl=en&socfid=web:lu:unknown:localgroupedresult&socpid=1'
p170
aS'http://www.yellowpages.com/alba-tx/lake-fork-rv-repair'
p171
aS'http://www.ets-systems.com/lakefork/services/rvservice.htm'
p172
aS'http://www.ets-systems.com/rvservice/'
p173
aS'http://local.yahoo.com/info-18771241-lake-fork-rv-auto-alba?csz=Emory%2C+TX'
p174
aS'http://www.merchantcircle.com/business/Lake.Fork.RV.And.Auto.903-765-1128'
p175
aS'/search?q=motorguide+trolling+motors&biw=975&bih=440&source=univ&tbm=shop&tbo=u&sa=X&ei=1EPPUqywENPPsATX2oHgCw&ved=0CCkQsxg'
p176
aS'http://www.motorguide.com/'
p177
aS'http://www.motorguide.com/motor-selector'
p178
aS'http://www.ebay.com/bhp/motorguide-trolling-motor'
p179
aS'http://www.boats.net/parts/search/Merc2/Motorguide/parts.html'
p180
aS'/search?q=motorguide+trolling+motor&biw=975&bih=440&source=univ&tbm=shop&tbo=u&sa=X&ei=2kPPUqXLL_C-sQSq1oKwDA&ved=0CCkQsxg'
p181
aS'http://www.motorguide.com/'
p182
aS'http://www.motorguide.com/motor-selector'
p183
aS'http://www.ebay.com/bhp/motorguide-trolling-motor'
p184
aS'http://www.boats.net/parts/search/Merc2/Motorguide/parts.html'
p185
aS'http://www.txlottery.org/'
p186
aS'http://www.txlottery.org/export/sites/lottery/'
p187
aS'http://www.txlottery.org/export/sites/lottery/Games/Lotto_Texas/'
p188
aS'http://www.texaslotto.com/'
p189
aS'http://www.lottoreport.com/'
p190
aS'http://en.wikipedia.org/wiki/Dian_Fossey'
p191
aS'http://en.wikipedia.org/wiki/Gorillas_in_the_Mist'
p192
aS'http://www.biography.com/people/dian-fossey-9299545'
p193
aS'http://womenshistory.about.com/od/environment/a/dian_fossey.htm'
p194
aS'http://www.imdb.com/title/tt0095243/'
p195
aS'http://en.wikipedia.org/wiki/Travis_%28chimpanzee%29'
p196
aS'http://en.wikipedia.org/wiki/Bili_ape'
p197
aS'/search?q=killer+chimp&biw=975&bih=440&tbm=isch&tbo=u&source=univ&sa=X&ei=7UPPUvGSN6XUsATfxIGgDA&ved=0CD4QsAQ'
p198
aS'http://www.dailymail.co.uk/sciencetech/article-468644/From-myth-reality--meet-chimps-eat-lions.html'
p199
aS'http://www.youtube.com/watch?v=h7Grqik1J0g'
p200
aS'http://www.myfoxdfw.com/'
p201
aS'http://www.myfoxdfw.com/category/238838/tv-listings'
p202
aS'http://www.myfoxdfw.com/story/19266212/fox-4-mobile-tv-dyle'
p203
aS'http://www.myfoxdfw.com/category/233338/local-news'
p204
aS'http://www.myfoxdfw.com/category/236556/contact-us'
p205
aS'http://www.usalum.com/'
p206
aS'http://www.usalum.com/products/products.html'
p207
aS'http://www.usalum.com/products/series-400.html'
p208
aS'/search?q=us+aluminum+corp&biw=975&bih=440&source=univ&tbm=nws&tbo=u&sa=X&ei=-kPPUoqjEoi-sQTmsYKgDA&ved=0CEAQqAI'
p209
aS'http://www.linkedin.com/company/united-states-aluminum-corporation'
p210
aS'/search?q=deep+cycle+batteries&biw=975&bih=440&source=univ&tbm=shop&tbo=u&sa=X&ei=AETPUs-5KbiisASOi4H4Cw&ved=0CCkQsxg'
p211
aS'http://en.wikipedia.org/wiki/Deep_cycle_battery'
p212
aS'http://www.trojanbattery.com/'
p213
aS'http://www.walmart.com/ip/EverStart-Maxx-Group-Size-29-Marine-Battery/20531539'
p214
aS'http://www.solar-electric.com/deep-cycle-battery-faq.html'
p215
aS'http://www.mrn.com/'
p216
aS'http://www.mrn.com/stream.html'
p217
aS'http://www.mrn.com/Race-Series/NASCAR-Nationwide/Series-Home.aspx'
p218
aS'http://www.mrn.com/MRN-Radio/The-Week-Ahead-on-MRN.aspx'
p219
aS'https://www.mrn.com/Race-Series/NASCAR-Sprint-Cup/Series-Home.aspx'
p220
aS'http://dfw.cbslocal.com/station/1053-the-fan/'
p221
aS'http://dfw.cbslocal.com/category/sports/'
p222
aS'http://betaplayer.radio.com/player/1053-the-fan/'
p223
aS'http://tunein.com/radio/1053-The-Fan-s47360/'
p224
aS'http://streema.com/radios/The_Fan_KRLD_FM'
p225
aS'http://www.fxnetworks.com/'
p226
aS'http://www.fxnetworks.com/shows/'
p227
aS'http://www.fxnetworks.com/schedule'
p228
aS'http://vod.fxnetworks.com/'
p229
aS'http://www.fxnetworks.com/thebridge'
p230
aS'/search?q=grub+worms&biw=975&bih=440&tbm=isch&tbo=u&source=univ&sa=X&ei=GUTPUuv6LNagsQS7uoDwCw&ved=0CCwQsAQ'
p231
aS'http://insects.tamu.edu/fieldguide/bimg141.html'
p232
aS'http://www.ask.com/question/what-are-grub-worms'
p233
aS'http://www.ask.com/explore/how-get-rid-grub-worms'
p234
aS'http://voices.yahoo.com/lawn-care-rid-grub-worms-5652808.html'
p235
aS'http://www.aolstalker.com/s/www.precsionrepro.net/'
p236
aS'http://www.urldab.net/www.precisionrepro.net'
p237
aS'http://engrus.com/k/%D1%86%D1%86%D1%86%D1%8E%D0%B7%D0%BA%D1%83%D1%81%D1%8B%D1%88%D1%89%D1%82%D0%BA%D1%83%D0%B7%D0%BA%D1%89%D1%8E%D1%82%D1%83%D0%B5'
p238
aS'http://canadiane.hotbox.ru/office-goiam-org.htm'
p239
aS'http://egorochkinjah.narod.ru/16.html'
p240
aS'http://www.yellowpagecity.com/US/MA/Framingham/Printed+and+Etched+Circuits/Precsion+Repro+Graphics/1073867140/'
p241
aS'https://www.facebook.com/pages/Precsion-Repro-Graphics/116054331789528'
p242
aS'http://www.directorycentral.com/business/waltham/ma/precsion-repro-graphics-10735657.html'
p243
aS'http://www.yellowpages.com/waltham-ma/mip/precision-repro-graphics-15630645'
p244
aS'http://www.2findlocal.com/electronics-boston-ma-92.html'
p245
aS'http://www.precisionrepro.net/'
p246
aS'http://www.precisionrepro.net/contact-us.html'
p247
aS'http://www.precisionrepro.net/site-map.html'
p248
aS'http://precisereprographics.com/'
p249
aS'https://www.facebook.com/precisionrepro'
p250
aS'http://www.precisionrepro.net/'
p251
aS'http://www.precisionrepro.net/contact-us.html'
p252
aS'http://www.precisionrepro.net/site-map.html'
p253
aS'http://precisereprographics.com/'
p254
aS'https://www.facebook.com/precisionrepro'
p255
aS'/search?q=coleman+rv+airconditioners&biw=975&bih=440&source=univ&tbm=shop&tbo=u&sa=X&ei=OUTPUu74ObbLsQThl4LgAQ&ved=0CCkQsxg'
p256
aS'http://www.coleman-rv-air-conditioners.com/'
p257
aS'http://www.rvcomfort.com/rvp/'
p258
aS'http://www.pplmotorhomes.com/parts/coleman-rv-air-conditioner-parts.htm'
p259
aS'http://www.adventurerv.net/coleman-13500-btu-air-conditioner-with-ceiling-assembly-p-113.html'
p260
aS'https://www.osha.gov/oshstats/sicser.html'
p261
aS'http://www.naics.com/search.htm'
p262
aS'http://en.wikipedia.org/wiki/Standard_Industrial_Classification'
p263
aS'http://siccode.com/'
p264
aS'http://www.census.gov/epcd/www/sic.html'
p265
aS'http://www.sec.gov/info/edgar/siccodes.htm'
p266
aS'http://www.epa.gov/envirofw/html/sic_lkup.html'
p267
aS'http://en.wikipedia.org/wiki/Standard_Industrial_Classification'
p268
aS'http://www.naics.com/search.htm'
p269
aS'https://www.osha.gov/oshstats/sicser.html'
p270
aS'https://www.aa.com/'
p271
aS'http://www.aa.com/reservation/roundTripSearchAccess.do'
p272
aS'http://www.aa.com/reservation/flightCheckInViewReservationsAccess.do'
p273
aS'http://www.aa.com/gatesTimesSubmit.do'
p274
aS'http://www.aa.com/travelInformation/gatesTimesAccess.do'
p275
aS'http://www.yellowpages.com/dallas-tx'
p276
aS'http://www.whitepages.com/yellow-pages/dallas-tx'
p277
aS'http://www.whitepages.com/business/popular-cities/TX/Dallas'
p278
aS'http://www.yellow.com/dallas.html'
p279
aS'http://www.yellowbook.com/?where=dallas%2C+tx'
p280
aS'http://finance.yahoo.com/q?s=T'
p281
aS'http://money.cnn.com/quote/quote.html?symb=T'
p282
aS'https://twitter.com/'
p283
aS'http://www.google.com/finance?cid=33312'
p284
aS'http://www.t-mobile.com/'
p285
aS'http://www.whitepages.com/business/popular-cities/TX/Dallas'
p286
aS'http://www.yellowpages.com/dallas-tx'
p287
aS'http://www.yellowbook.com/?where=dallas%2C+tx'
p288
aS'http://www.metroplexdirectory.com/'
p289
aS'http://local.yahoo.com/TX/Dallas'
p290
aS'/search?q=sugatsune+door+pulls&biw=975&bih=440&source=univ&tbm=shop&tbo=u&sa=X&ei=Z0TPUoq7CvOosQSXjoDwCw&ved=0CCkQsxg'
p291
aS'http://sugatsune.com/'
p292
aS'http://sugatsune.com/products/'
p293
aS'http://sugatsune.com/sliding-folding-door-hardware/'
p294
aS'http://sugatsune.com/cabinet-handles-pulls-knobs/'
p295
as.