ccollections
defaultdict
p1
(c__builtin__
list
p2
tRp3
S'5080832'
p4
(lp5
S'http://www.craigslist.com/'
p6
aS'/search?q=craigslist.com&biw=975&bih=440&source=univ&tbm=nws&tbo=u&sa=X&ei=dETPUrH4II2-sQTdxID4BA&ved=0CDQQqAI'
p7
aS'http://philadelphia.craigslist.org/'
p8
aS'http://cnj.craigslist.org/'
p9
aS'http://newyork.craigslist.org/'
p10
aS'http://www.partyanimalsworld.com/'
p11
aS'http://www.partyanimalsworld.com/meet-the-party-animals/'
p12
aS'http://www.partyanimalinc.com/'
p13
aS'http://dancingpartyanimals.com/'
p14
aS'http://www.party-animal.co.uk/'
p15
aS'http://craigslisterotica.com/'
p16
aS'http://craigslisterotica.blogspot.com/'
p17
aS'http://craigslisterotica.blogspot.com/2011/10/all-locations-for-united-states-added.html'
p18
aS'http://forums.somethingawful.com/showthread.php?threadid=3446756'
p19
aS'http://getsomesuga.com/forums2/showthread.php?t=12029'
p20
aS'http://sportsmangement.com/'
p21
aS'http://www.sports-management.com/'
p22
aS'http://www.sportsmanagementworldwide.com/'
p23
aS'http://www.onuk-sportsmanagement.com/'
p24
aS'http://gpsportsmanagement.com/'
p25
aS'http://www.sports-management.com/'
p26
aS'http://www.sportsmanagementworldwide.com/'
p27
aS'http://www.sportsmanagementworldwide.com/courses'
p28
aS'http://www.sportsmanagementworldwide.com/courses/athlete-management-sports-agent/salaries'
p29
aS'http://www.sportsmanagement.co.uk/'
p30
aS'http://www.sportmanagment.com/'
p31
aS'http://www.sportmanagement.com/'
p32
aS'http://www.sportmanagement.com/careers.html'
p33
aS'http://www.ar-sportmanagement.com/'
p34
aS'http://www.sportsmanagementworldwide.com/'
p35
aS'http://www.craigslist.org/'
p36
aS'http://cnj.craigslist.org/apa/'
p37
aS'http://geo.craigslist.org/iso/us/nj'
p38
aS'http://cnj.craigslist.org/sub/'
p39
aS'http://philadelphia.craigslist.org/'
p40
aS'http://craigslisterotica.blogspot.com/'
p41
aS'http://craigslisterotica.blogspot.com/2011/10/all-locations-for-united-states-added.html'
p42
aS'http://www.forbes.com/2009/05/18/craigslist-erotica-ban-opinions-contributors-osborne.html'
p43
aS'http://nolacooks.wordpress.com/category/craigslist-erotica/'
p44
aS'http://bloodycunthair.blogspot.com/2008/10/my-new-hobby-amateur-craigslist-erotica.html'
p45
aS'http://geo.craigslist.org/iso/us/nj'
p46
aS'http://newjersey.craigslist.org/'
p47
aS'http://www.nj.com/craigslist-new-jersey/'
p48
aS'http://car.mitula.us/rav4-craigslist-new-jersey'
p49
aS'http://nj1015.com/tags/craigslist/'
p50
aS'http://www.craigslist.com/'
p51
aS'/search?q=www.craigslist.com&biw=975&bih=440&source=univ&tbm=nws&tbo=u&sa=X&ei=rkTPUpyXA8zMsQSh3YL4Cw&ved=0CDQQqAI'
p52
aS'http://philadelphia.craigslist.org/'
p53
aS'http://cnj.craigslist.org/'
p54
aS'http://newyork.craigslist.org/'
p55
aS'http://www.frostvalley.org/'
p56
aS'http://www.frostvalley.org/camp/overnight-camps/'
p57
aS'http://www.frostvalley.org/group-and-family-retreats/families/'
p58
aS'http://www.frostvalley.org/directions/maps/'
p59
aS'http://www.frostvalley.org/camp/day-camps/summer-day-camps/'
p60
aS'http://www.experian.com/'
p61
aS'http://www.experian.com/consumer/login.html'
p62
aS'http://www.experian.com/assistance/free-annual-credit-report.html'
p63
aS'http://www.experian.com/personal-credit/report-and-credit-score.html'
p64
aS'http://www.experian.com/help/'
p65
aS'http://www.google.com/'
p66
aS'http://www.google.com/analytics/'
p67
aS'/search?q=google&biw=975&bih=440&source=univ&tbm=nws&tbo=u&sa=X&ei=wETPUqLWHIvJsQTyg4KgDA&ved=0CDgQqAI'
p68
aS'http://maps.google.com/'
p69
aS'http://earth.google.com/'
p70
aS'http://www.b101radio.com/'
p71
aS'http://wcbsfm.cbslocal.com/'
p72
aS'http://en.wikipedia.org/wiki/WBEB'
p73
aS'http://tunein.com/radio/WCBS-FM-1011-s27759/'
p74
aS'http://tunein.com/radio/More-FM-1011-s27397/'
p75
aS'http://www.flynnohara.com/'
p76
aS'http://www.flynnohara.com/mordering.asp?nav=0401'
p77
aS'http://www.flynnohara.com/storeLocator.asp'
p78
aS'https://www.fando.net/'
p79
aS'https://www.fando.net/boysStore.asp?nav=0200'
p80
aS'http://www.flynncenter.org/'
p81
aS'http://www.flynncenter.org/calendar.html'
p82
aS'http://www.flynnohara.com/'
p83
aS'http://www.flynnohara.com/mordering.asp?nav=0401'
p84
aS'http://www.flynntix.org/'
p85
aS'http://local.yahoo.com/info-10861886-sunnywood-florist-chatham'
p86
aS'http://www.angieslist.com/companylist/us/nj/chatham/sunnywood-florist-reviews-3788092.htm'
p87
aS'http://sunnywoods.com/'
p88
aS'http://www.sbn.com/New-Jersey/Chatham/Listing/sunnywood-florist/_L1WSlq'
p89
aS'http://www.florist-flowers-roses-delivery.com/nj/chatham/sunnywood-florist-904.html'
p90
aS'http://www.google.com/'
p91
aS'http://mail.google.com/'
p92
aS'http://www.google.com/chrome/'
p93
aS'http://maps.google.com/'
p94
aS'http://news.google.com/'
p95
aS'/search?q=communion+poems&biw=975&bih=440&tbm=isch&tbo=u&source=univ&sa=X&ei=5UTPUvqzM-jesATDzYCQDQ&ved=0CCkQsAQ'
p96
aS'http://www.heavensinspirations.com/communion.html'
p97
aS'http://www.poetry-and-poems.com/communion-confirmation-poems.html'
p98
aS'http://scripturepoems.com/communionpoem.html'
p99
aS'http://www.trochia.org/trust/because-of-my-love-for-you-a-poem-of-communion/'
p100
aS'http://examples.yourdictionary.com/examples-of-poems.html'
p101
aS'http://examples.yourdictionary.com/types-of-poetry-examples.html'
p102
aS'http://www.pbs.org/newshour/extra/features/jan-june00/poetryboxformexamples.html'
p103
aS'/search?q=examples+of+poems&biw=975&bih=440&tbm=isch&tbo=u&source=univ&sa=X&ei=7ETPUu-WA6bNsQSemoHgCw&ved=0CDsQsAQ'
p104
aS'http://www.kathimitchell.com/poemtypes.html'
p105
aS'http://www.familyfriendpoems.com/family/daughter-poems.asp'
p106
aS'http://www.familyfriendpoems.com/family/mother-daughter-poems.asp'
p107
aS'/search?q=poems+about+daughters&biw=975&bih=440&tbm=isch&tbo=u&source=univ&sa=X&ei=8kTPUv2dHK6-sQSIooCgDA&ved=0CDsQsAQ'
p108
aS'http://www.pinterest.com/lillady505/poems-for-my-daughter/'
p109
aS'http://www.poemhunter.com/poems/daughter/'
p110
aS'http://www.thecatholicshop.com/daughter-poem-by-cottage-gardens-21758.html'
p111
aS'http://www.amazon.com/Precious-Moments-Holy-Communion-Personalize/dp/B00BLLNO2I'
p112
aS'http://dorothysgift.com/daughter-poems.html'
p113
aS'http://www.favorswithseeds.com/Articles.asp?ID=125'
p114
aS'http://angiesgiftcorner.com/creative_poems.htm'
p115
aS'http://www.ask.com/'
p116
aS'http://www.ask.com/question/askjeeves-com'
p117
aS'http://uk.ask.com/'
p118
aS'http://www.askjeeves.com/webtvmirror/index.asp'
p119
aS'http://en.wikipedia.org/wiki/Ask.com'
p120
aS'http://www.jcpenney.com/'
p121
aS'http://www.jcpenney.com/women/dept.jump?id=dept20000013'
p122
aS'http://www.jcpenney.com/clearance/dept.jump?id=dept20021210041'
p123
aS'http://www.jcpenney.com/kids/dept.jump?id=dept20000016'
p124
aS'http://www.jcpenney.com/shoes/dept.jump?id=dept20000018'
p125
aS'http://www.frescocarpetandupholstrycleaning.com/services'
p126
aS'http://www.frescocarpetandupholstrycleaning.com/about-0'
p127
aS'http://www.frescocarpetandupholstrycleaning.com/testimonials'
p128
aS'http://www.frescocarpetandupholstrycleaning.com/services/upholstery'
p129
aS'http://www.frescocarpetandupholstrycleaning.com/contact'
p130
aS'/search?q=easter+baking&biw=975&bih=440&tbm=isch&tbo=u&source=univ&sa=X&ei=EUXPUrqqK5PLsQS1w4LwCw&ved=0CCkQsAQ'
p131
aS'http://www.joyofbaking.com/other/EasterDessertsBaking.html'
p132
aS'http://www.bbcgoodfood.com/recipes/collection/easter-baking'
p133
aS'http://www.bakingmad.com/theme/easter-recipes/'
p134
aS'http://www.bbc.co.uk/food/collections/easter_baking'
p135
aS'http://en.wikipedia.org/wiki/Spelling_suggestion'
p136
aS'http://www.googleguide.com/spelling_corrections.html'
p137
aS'https://support.google.com/websearch/answer/1723?hl=en'
p138
aS'http://office.microsoft.com/en-us/word-help/automatically-correct-spelling-with-words-from-the-main-dictionary-HA010174790.aspx'
p139
aS'http://grammar.ccc.commnet.edu/grammar/spelling.htm'
p140
aS'http://hairstyles.com/'
p141
aS'http://www.latest-hairstyles.com/'
p142
aS'http://www.latest-hairstyles.com/short/'
p143
aS'http://www.latest-hairstyles.com/medium/'
p144
aS'http://www.latest-hairstyles.com/long/'
p145
aS'http://windows.microsoft.com/en-us/windows7/products/features/system-restore'
p146
aS'https://support.microsoft.com/kb/306084'
p147
aS'http://windows.microsoft.com/en-us/windows/what-is-system-restore'
p148
aS'http://en.wikipedia.org/wiki/System_Restore'
p149
aS'http://www.howtogeek.com/howto/windows-vista/using-windows-vista-system-restore/'
p150
aS'http://www.addictinggames.com/'
p151
aS'http://www.games.com/'
p152
aS'http://games.yahoo.com/'
p153
aS'http://www.gamestop.com/'
p154
aS'http://www.gamestop.com/'
p155
aS'http://www.craigslist.org/'
p156
aS'http://philadelphia.craigslist.org/'
p157
aS'http://newyork.craigslist.org/'
p158
aS'http://bham.craigslist.org/'
p159
aS'http://losangeles.craigslist.org/'
p160
aS'http://www.craigslist.org/'
p161
aS'http://sfbay.craigslist.org/'
p162
aS'http://newyork.craigslist.org/'
p163
aS'http://bham.craigslist.org/'
p164
aS'http://indianapolis.craigslist.org/'
p165
aS'http://www.qvc.com/'
p166
aS'http://www.qvc.com/ItemsRecentlyOnAirView?storeId=10251'
p167
aS'http://www.qvc.com/For-the-Home.category.0101.html?refine=1001298'
p168
aS'http://www.qvc.com/Electronics.category.0103.html?refine=1001300'
p169
aS'http://www.qvc.com/ITKWD.content.html'
p170
aS'http://www.sports-management.com/'
p171
aS'http://www.sportsmanagementworldwide.com/'
p172
aS'http://www.mgsportsmanagement.com/'
p173
aS'http://www.rocketsportsmanagement.com/'
p174
aS'http://wafelsportsmanagement.com/'
p175
aS'http://www.qsportsmanagement.com/'
p176
aS'http://www.qsportsmanagement.com/contact-us.html'
p177
aS'http://www.qsportsmanagement.com/about-us.html'
p178
aS'http://www.qsportsmanagement.com/clients.html'
p179
aS'http://www.qsportsmanagement.com/partners.html'
p180
aS'http://en.wikipedia.org/wiki/Immigration_to_the_United_States'
p181
aS'http://www.uscis.gov/'
p182
aS'http://www.nationalreview.com/article/350034/fact-based-immigration-discussion-thomas-sowell'
p183
aS'http://www.immigrationforum.org/'
p184
aS'http://www.visajourney.com/forums/'
p185
aS'http://single.comcraigslist.com/'
p186
aS'http://www.aolstalker.com/s/single.comcraigslist.com/'
p187
aS'http://nh.craigslist.org/w4m/'
p188
aS'https://dallas.craigslist.org/w4m/'
p189
aS'http://craigslist.com.sg/'
p190
aS'http://single.com/'
p191
aS'http://www.connectingsingles.com/'
p192
aS'https://www.facebook.com/pages/SINGLE-BULLET-THEORY/314758176624'
p193
aS'http://www.match.com/'
p194
aS'http://www.singleparentmeet.com/'
p195
aS'http://linguisticspis.hotbox.ru/www-southlandvinyl-com.htm'
p196
aS'http://course.hotbox.ru/corvette-accessories-com.htm'
p197
aS'http://enclosurene.hotbox.ru/www-turbo-tax-support-com.htm'
p198
aS'http://imhostereometry.hotbox.ru/www-salemmassachusettsnews-com.htm'
p199
aS'http://entrep.hotbox.ru/www-palmsudoku-com.htm'
p200
aS'http://www.match.com/online-dating/new-jersey/east-hanover/singles.html'
p201
aS'http://www.datehookup.com/Singles-NJ-East_Hanover.htm'
p202
aS'http://www.matchmaker.com/mm/dating/newjersey-easthanover.htm'
p203
aS'http://www.weekenddating.com/'
p204
aS'http://www.asianamericansingles.org/'
p205
aS'http://hanoversingles.com/'
p206
aS'http://www.datehookup.com/Singles-PA-Hanover.htm'
p207
aS'http://www.pof.com/personals/25136onlinedating.htm'
p208
aS'http://www.justsayhi.com/online_dating/hanover/pennsylvania'
p209
aS'http://www.perfectmatch.com/Dating/Ontario/Hanover-Singles.html'
p210
aS'http://www.alexa.com/siteinfo/easthanoverdating.com'
p211
aS'http://mingle2.com/online-dating/new-jersey/east-hanover'
p212
aS'http://www.match.com/online-dating/new-jersey/east-hanover/singles.html'
p213
aS'http://www.matchmaker.com/mm/dating/newjersey-easthanover.htm'
p214
aS'http://www.datehookup.com/Singles-NJ-East%20hanover-6.htm'
p215
aS'http://dating.com/'
p216
aS'http://www.datehookup.com/'
p217
aS'http://www.match.com/'
p218
aS'http://www.asiandating.com/'
p219
aS'http://www.ourtime.com/'
p220
aS'http://www.craigslist.org/'
p221
aS'http://cnj.craigslist.org/apa/'
p222
aS'http://geo.craigslist.org/iso/us/nj'
p223
aS'http://cnj.craigslist.org/sub/'
p224
aS'http://philadelphia.craigslist.org/'
p225
aS'http://www.datehookup.com/Singles-WI-Madison.htm'
p226
aS'http://www.datehookup.com/Singles-IN-Madison.htm'
p227
aS'http://www.madisonsingles.com/'
p228
aS'https://us.match.com/online-dating/wisconsin/madison/singles.html'
p229
aS'http://www.match.com/online-dating/wisconsin/madison/singles.html'
p230
aS'http://www.datehookup.com/Singles-WI-Madison.htm'
p231
aS'http://www.madisonsingles.com/'
p232
aS'http://www.meetup.com/Madison-Area-Single-Professionals/'
p233
aS'https://us.match.com/online-dating/wisconsin/madison/singles.html'
p234
aS'http://madison.singlesevents.com/?city=Madison&rid=86'
p235
aS'http://www.match.com/online-dating/new-jersey/east-hanover/singles.html'
p236
aS'http://www.datehookup.com/Singles-NJ-East_Hanover.htm'
p237
aS'http://mingle2.com/online_dating/new-jersey/east-hanover'
p238
aS'http://www.guyaneselinkup.diydating.com/'
p239
aS'http://www.weekenddating.com/'
p240
aS'http://www.craigslist.org/'
p241
aS'http://cnj.craigslist.org/apa/'
p242
aS'http://geo.craigslist.org/iso/us/nj'
p243
aS'http://cnj.craigslist.org/sub/'
p244
aS'http://philadelphia.craigslist.org/'
p245
aS'http://en.wikipedia.org/wiki/Hypertext_Transfer_Protocol'
p246
aS'http://www.w3.org/Protocols/'
p247
aS'http://www.w3.org/Protocols/rfc2616/rfc2616.html'
p248
aS'http://www.webopedia.com/TERM/H/HTTP.html'
p249
aS'http://www.apple.com/startpage/'
p250
aS'http://detroit.craigslist.org/pet/'
p251
aS'http://phoenix.craigslist.org/pet/'
p252
aS'http://nashville.craigslist.org/pet/'
p253
aS'http://sacramento.craigslist.org/pet/'
p254
aS'http://vancouver.en.craigslist.ca/pet/'
p255
aS'http://phoenix.craigslist.org/pet/'
p256
aS'http://detroit.craigslist.org/pet/'
p257
aS'http://denver.craigslist.org/pet/'
p258
aS'http://nashville.craigslist.org/pet/'
p259
aS'http://sacramento.craigslist.org/pet/'
p260
aS'http://www.duolingo.com/'
p261
aS'http://www.mtv.com/news/articles/1709069/man-of-steel-krypton-lingo-decoded.jhtml'
p262
aS'http://www.lingo.com/com/primustel/gu/presentation/shop/login.jsp'
p263
aS'http://search.dilbert.com/comic/Jargon'
p264
aS'http://books.google.com/books?id=0rlRSdu2qDoC&pg=PA56&lpg=PA56&dq=lingo.comhttp&source=bl&ots=0d09Ufm2rx&sig=tpZZmY6VyCJGzTBmU5A2U0g3krg&hl=en&sa=X&ei=tUXPUoCPAsWvsQTrhoGQDA&ved=0CEEQ6AEwBA'
p265
aS'http://www.easybib.com/'
p266
aS'http://en.wikipedia.org/wiki/Bibliography'
p267
aS'http://www.bibme.org/'
p268
aS'http://www.factmonster.com/homework/t8biblio.html'
p269
aS'http://www.sciencebuddies.org/science-fair-projects/project_bibliography.shtml'
p270
aS'http://www.diabetes.org/'
p271
aS'http://www.medicalnewstoday.com/info/diabetes/'
p272
aS'http://en.wikipedia.org/wiki/Diabetes_mellitus'
p273
aS'/search?q=diabetes&biw=975&bih=440&source=univ&tbm=nws&tbo=u&sa=X&ei=wUXPUumTFrPhsATbm4CIDA&ved=0CEoQqAI'
p274
aS'http://www.webmd.com/diabetes/default.htm'
p275
aS'http://www.sports-management.com/'
p276
aS'http://www.sportsmanagementworldwide.com/'
p277
aS'http://www.sportsmanagementworldwide.com/courses'
p278
aS'http://www.fostereasley.com/'
p279
aS'http://www.sportsmanagementresources.com/'
p280
aS'http://atlantichealthsystems.org/'
p281
aS'https://www.atlantichealth.org/'
p282
aS'http://www.atlantichealth.org/morristown/'
p283
aS'http://www.atlantichealth.org/overlook/'
p284
aS'https://careers-atlantichealth.icims.com/'
p285
aS'https://www.atlantichealth.org/'
p286
aS'http://www.atlantichealth.org/morristown/'
p287
aS'http://www.atlantichealth.org/newton'
p288
aS'http://www.atlantichealth.org/overlook/'
p289
aS'http://www.atlantichealth.org/atlantic/contact+us'
p290
aS'https://www.atlantichealth.org/'
p291
aS'http://www.atlantichealth.org/atlantic/medical+centers+and+specialties/'
p292
aS'http://www.atlantichealth.org/overlook/'
p293
aS'http://www.atlantichealth.org/atlantic/about+atlantic+health'
p294
aS'http://www.atlantichealth.org/atlantic/about+atlantic+health/atlantic+health+leadership'
p295
aS'https://www.atlantichealth.org/'
p296
aS'http://www.atlantichealth.org/morristown/'
p297
aS'http://www.atlantichealth.org/atlantic/secure+access+vpn'
p298
aS'http://www.atlantichealth.org/overlook/'
p299
aS'http://www.atlantichealth.org/atlantic/for+professionals/residents+%26+fellows/'
p300
aS'https://www.atlantichealth.org/'
p301
aS'http://www.atlantichealth.org/morristown/'
p302
aS'http://atlantichealthsystems.org/'
p303
aS'http://www.indeed.com/cmp/Atlantic-Health-Systems'
p304
aS'https://careers-atlantichealth.icims.com/'
p305
aS'http://www.ahs.com/'
p306
aS'http://www.ahs.com/service-center/request-service.jsp'
p307
aS'http://www.ahs.com/service-center/index-service-center.jsp'
p308
aS'http://www.ahs.com/includes/contact.jsp'
p309
aS'http://www.ahs.com/homeprotection/whats-covered.jsp'
p310
aS'https://www.atlantichealth.org/'
p311
aS'http://www.atlantichealth.org/morristown/'
p312
aS'http://www.atlantichealth.org/atlantic/about+atlantic+health'
p313
aS'http://www.atlantichealth.org/atlantic/medical+centers+and+specialties/'
p314
aS'http://www.atlantichealth.org/overlook/'
p315
aS'http://www.craigslist.org/'
p316
aS'http://bham.craigslist.org/'
p317
aS'http://losangeles.craigslist.org/'
p318
aS'http://newyork.craigslist.org/'
p319
aS'http://indianapolis.craigslist.org/'
p320
aS'http://www.craiglist.com/'
p321
aS'http://philadelphia.craigslist.org/'
p322
aS'http://southjersey.craigslist.org/'
p323
aS'http://philadelphia.craigslist.org/apa/'
p324
aS'http://newyork.craigslist.org/'
p325
aS'http://geo.craigslist.org/iso/us/nj'
p326
aS'http://newjersey.craigslist.org/'
p327
aS'http://cnj.craigslist.org/'
p328
aS'http://craigslistnewjersey.com/'
p329
aS'http://www.nj.com/craigslist-new-jersey/'
p330
aS'http://newjersey.craigslist.org/'
p331
aS'http://southjersey.craigslist.org/'
p332
aS'http://geo.craigslist.org/iso/us/nj'
p333
aS'http://cnj.craigslist.org/'
p334
aS'http://newjersey.craigslist.org/apa/'
p335
aS'http://newjersey.craigslist.org/'
p336
aS'http://newjersey.craigslist.org/apa/'
p337
aS'http://newjersey.craigslist.org/ofc/'
p338
aS'http://newjersey.craigslist.org/zip/'
p339
aS'http://newjersey.craigslist.org/fbh/'
p340
aS'http://www.aolstalker.com/s/wwweasthanoversinles.com/'
p341
aS'http://engrus.com/k/%D1%86%D1%86%D1%86%D1%83%D1%84%D1%8B%D0%B5%D1%80%D1%84%D1%82%D1%89%D0%BC%D1%83%D0%BA%D1%8B%D1%88%D1%82%D0%B4%D1%83%D1%8B%D1%8E%D1%81%D1%89%D1%8C'
p342
aS'http://www.worldxml.com/domain/o30916/'
p343
aS'http://domain.cunquan.com/domain/2008/1/31_257.html'
p344
aS'http://entrep.hotbox.ru/www-palmsudoku-com.htm'
p345
aS'http://mingle2.com/online-dating/new-jersey/east-hanover'
p346
aS'http://www.matchmaker.com/mm/dating/newjersey-easthanover.htm'
p347
aS'http://www.match.com/online-dating/new-jersey/east-hanover/singles.html'
p348
aS'http://www.datehookup.com/Singles-NJ-East_Hanover.htm'
p349
aS'http://www.eharmony.com/nj/east-hanover-singles'
p350
aS'http://craiglistny.com/'
p351
aS'http://newyork.craigslist.org/'
p352
aS'http://newyork.craigslist.org/cta/'
p353
aS'http://newyork.craigslist.org/i/apartments'
p354
aS'http://newyork.craigslist.org/aap/'
p355
aS'http://newyork.craigslist.org/'
p356
aS'http://newyork.craigslist.org/lgi/'
p357
aS'http://newyork.craigslist.org/brk/'
p358
aS'http://newyork.craigslist.org/cta/'
p359
aS'http://newyork.craigslist.org/i/apartments'
p360
aS'http://newyork.craigslist.org/'
p361
aS'http://newyork.craigslist.org/lgi/'
p362
aS'http://newyork.craigslist.org/aap/'
p363
aS'http://newyork.craigslist.org/cta/'
p364
aS'http://newyork.craigslist.org/mnh/'
p365
aS'http://www.craiglist.com/'
p366
aS'http://philadelphia.craigslist.org/'
p367
aS'http://southjersey.craigslist.org/'
p368
aS'http://newyork.craigslist.org/'
p369
aS'http://newjersey.craigslist.org/'
p370
aS'http://minus.com/'
p371
aS'http://en.wikipedia.org/wiki/Hyphen'
p372
aS'http://www.kiwisbybeat.com/minus.html'
p373
aS'http://www.m-nus.com/'
p374
aS'http://www.hyphenmagazine.com/'
p375
aS'http://home.howstuffworks.com/10-pool-maintenance-tips.htm'
p376
aS'http://www.thisoldhouse.com/toh/how-to/intro/0,,20051390,00.html'
p377
aS'http://www.sparklingpoolservices.com/'
p378
aS'http://centurypoolsnj.com/'
p379
aS'http://www.afterhourspoolservice.com/'
p380
as.