ccollections
defaultdict
p1
(c__builtin__
list
p2
tRp3
S'1636628'
p4
(lp5
S'http://www.diabetes.org/living-with-diabetes/complications/diabetes-phd/'
p6
aS'http://www.diabetes.org/diabetes-basics/prevention/new-risk-assessment-tool-phd.html'
p7
aS'http://www.iom.edu/%7E/media/Files/Activity%20Files/PublicHealth/HealthLiteracy/Petersen.pdf'
p8
aS'http://www.diabetesdaily.com/forum/testing-blood-sugar/21082-risk-assessment-tool/'
p9
aS'https://www.diabetesarchive.net/phd/profile/'
p10
aS'http://www.diabetes.org/'
p11
aS'http://www.diabetes.org/diabetes-basics/'
p12
aS'http://www.diabetes.org/in-my-community/'
p13
aS'http://www.diabetes.org/donate/'
p14
aS'http://www.diabetes.org/mfa-recipes/log-in/recipes-for-healthy-living.html'
p15
aS'http://www.diabetes.org/'
p16
aS'http://www.diabetes.org/diabetes-basics/'
p17
aS'http://www.diabetes.org/diabetes-basics/type-2/'
p18
aS'http://www.diabetes.org/food-and-fitness/'
p19
aS'http://www.diabetes.org/donate/'
p20
aS'http://www.beemak.com/'
p21
aS'http://www.beemak.com/brochure_holders.html'
p22
aS'http://www.beemak.com/home.html'
p23
aS'http://www.beemak.com/contact_us.html'
p24
aS'http://www.beemak.com/about_us.html'
p25
aS'http://www.short-fiction.co.uk/'
p26
aS'http://www.literotica.com/'
p27
aS'http://www.literotica.com/stories/'
p28
aS'http://www.talbotpress.com/'
p29
aS'https://www.facebook.com/SexySalwarMeriChutKaKhajana'
p30
aS'/search?q=color+baby+monitors&biw=975&bih=440&source=univ&tbm=shop&tbo=u&sa=X&ei=dEbPUr-gB-bisAS2joKIDA&ved=0CCkQsxg'
p31
aS'http://www.toysrus.com/family/index.jsp?categoryId=3243631'
p32
aS'http://www.amazon.com/Summer-Infant-Touch-Digital-Monitor/dp/B004B762AK'
p33
aS'http://www.walmart.com/ip/Summer-Infant-BestView-Digital-Color-Video-Baby-Monitor-28034/15443727'
p34
aS'http://www.buybuybaby.com/store/product/motorola-reg-digital-video-baby-monitor-with-3-5-inch-color-lcd-screen/134360'
p35
aS'/search?q=color+audio+and+video+wireless+cameras&biw=975&bih=440&source=univ&tbm=shop&tbo=u&sa=X&ei=e0bPUqPTBOersATsjIGYDA&ved=0CCkQsxg'
p36
aS'http://www.amazon.com/Mini-Gadgets-HS1450CCD-Wireless-Camera/dp/B0046U387M'
p37
aS'http://www.ebay.com/itm/2-4G-7-TFT-LCD-Receiver-Wireless-Color-Camera-Video-Audio-Digital-Baby-Monitor-/180901312134'
p38
aS'http://store.linksys.com/cameras/linksys-WVC80N_stcVVproductId84737621VVcatId554678VVviewprod.htm'
p39
aS'http://www.toysrus.com/buy/baby-video-monitors/motorola-digital-video-baby-monitor-with-2.8-color-screen-and-wireless-camera-mbp33-mbp33-12369631'
p40
aS'http://www.radioshack.com/'
p41
aS'https://www.radioshack.com/storeLocator3/index.jsp?clickid=rsk_header_storeLocator'
p42
aS'http://www.radioshack.com/category/index.jsp?categoryId=2032052'
p43
aS'http://www.radioshack.com/category/index.jsp?categoryId=4235714'
p44
aS'http://www.radioshack.com/category/index.jsp?categoryId=2032230'
p45
aS'http://models.com/client/loreal'
p46
aS'http://www.ispot.tv/ad/7oiG/loreal-superior-preference-featuring-julianne-moore'
p47
aS'http://www.ispot.tv/ad/7OTn/loreal-color-vibrancy-featuring-julianne-moore'
p48
aS'http://www.businessinsider.com/julianne-moore-the-new-face-of-loreal-2012-11'
p49
aS'/search?q=l%27oreal+hair+ad+actress&biw=975&bih=440&tbm=isch&tbo=u&source=univ&sa=X&ei=h0bPUoXuNIyzsATp3YCgDA&ved=0CEcQsAQ'
p50
aS'/search?q=l%27oreal+oscar+ads&biw=975&bih=440&tbm=isch&tbo=u&source=univ&sa=X&ei=jkbPUuj_CvKqsQThqoCADA&ved=0CCkQsAQ'
p51
aS'http://www.adweek.com/adfreak/50-ads-starring-oscar-winners-130593'
p52
aS'http://usatoday30.usatoday.com/money/advertising/2005-02-24-oscars-usat_x.htm'
p53
aS'http://www.pearltrees.com/t/des-pubs/50-ads-starring-oscar-winners/id2760191'
p54
aS'http://newsfeed.time.com/2012/02/03/too-perfect-rachel-weiszs-loreal-ad-banned-in-britain-for-being-misleading/'
p55
aS'/search?q=l%27oreal+and+salma+hayek&biw=975&bih=440&tbm=isch&tbo=u&source=univ&sa=X&ei=lEbPUsr2I66gsQT9lIHIDA&ved=0CCwQsAQ'
p56
aS'http://www.forbes.com/sites/clareoconnor/2012/05/03/billionaire-baby-daddy-drama-linda-evangelista-takes-fashion-mogul-francois-pinault-to-court/'
p57
aS'http://blog.zap2it.com/pop2it/2012/05/linda-evangelista-and-francois-henri-pinault-salma-hayeks-husband-strike-child-support-agreement.html'
p58
aS'http://www.cvs.com/search/Nuance-Salma-Hayek/_/N-3mZ5918uZ2k?pt=product&searchTerm=L%27Oreal+lipstick+baby+pinks'
p59
aS'http://www.ebay.com/itm/Lot-of-8-Rimmel-Loreal-Salma-Hayek-Brand-New-Make-Up-/171166526452?pt=LH_DefaultDomain_0&hash=item27da51ebf4'
p60
aS'http://www.lorealparisusa.com/'
p61
aS'http://www.lorealusa.com/'
p62
aS'/search?q=l%27oreal&biw=975&bih=440&source=univ&tbm=nws&tbo=u&sa=X&ei=mkbPUtzWJNOysQTyiIDADA&ved=0CEgQqAI'
p63
aS'http://www.loreal.com/'
p64
aS'http://www.loreal.com/dispatch.aspx'
p65
aS'/search?q=l%27oreal+oscar+hair+ads&biw=975&bih=440&tbm=isch&tbo=u&source=univ&sa=X&ei=oUbPUo39BMXlsASfyIK4DA&ved=0CCkQsAQ'
p66
aS'http://toronto.kijiji.ca/c-buy-and-sell-health-special-needs-Joico-Unite-LOreal-Professionnel-Oscar-Blandi-Goldwe-Hair-Spray-W0QQAdIdZ461558370'
p67
aS'http://www.examiner.com/article/live-from-the-l-oreal-paris-oscar-beauty-suite'
p68
aS'http://usatoday30.usatoday.com/money/advertising/2005-02-24-oscars-usat_x.htm'
p69
aS'http://www.huffingtonpost.com/news/loreal'
p70
aS'/search?q=l%27oreal+and+salma+hayek&biw=975&bih=440&tbm=isch&tbo=u&source=univ&sa=X&ei=p0bPUvrNI8jKsAS2tICIDw&ved=0CCwQsAQ'
p71
aS'http://www.forbes.com/sites/clareoconnor/2012/05/03/billionaire-baby-daddy-drama-linda-evangelista-takes-fashion-mogul-francois-pinault-to-court/'
p72
aS'http://blog.zap2it.com/pop2it/2012/05/linda-evangelista-and-francois-henri-pinault-salma-hayeks-husband-strike-child-support-agreement.html'
p73
aS'http://www.cvs.com/search/Nuance-Salma-Hayek/_/N-3mZ5918uZ2k?pt=product&searchTerm=L%27Oreal+lipstick+baby+pinks'
p74
aS'http://www.ebay.com/itm/Lot-of-8-Rimmel-Loreal-Salma-Hayek-Brand-New-Make-Up-/171166526452?pt=LH_DefaultDomain_0&hash=item27da51ebf4'
p75
aS'http://en.wikipedia.org/wiki/78th_Academy_Awards'
p76
aS'http://www.youtube.com/watch?v=TXDgJniLRKI'
p77
aS'http://www.imdb.com/title/tt0497318/fullcredits'
p78
aS'http://www.imdb.com/title/tt0497318/'
p79
aS'/search?q=78th+oscar+ads&biw=975&bih=440&tbm=isch&tbo=u&source=univ&sa=X&ei=rUbPUrGJM_TKsATig4GIDA&ved=0CEcQsAQ'
p80
aS'http://www.slhn.org/'
p81
aS'http://quakertown.slhn.org/Locations-Directions'
p82
aS'http://www.slhn.org/Medical-Education'
p83
aS'http://www.slhn.org/Jobs'
p84
aS'http://www.slhn.org/Find-Doctor'
p85
aS'http://www.stlukes-stl.com/'
p86
aS'http://www.stlukes-stl.com/careers/'
p87
aS'http://www.stlukes-stl.com/location/'
p88
aS'http://www.stlukes-stl.com/find-physician/'
p89
aS'http://www.stlukes-stl.com/remote-access/'
p90
aS'http://www.scotts.com/'
p91
aS'http://www.scotts.com/smg/templates/index.jsp?pageUrl=lawncareLanding'
p92
aS'http://www.scotts.com/smg/gocat2/lawn-care-products/cat10210019//'
p93
aS'http://www.scotts.com/smg/gocat2/scotts-lawn-and-garden-products/cat50016//'
p94
aS'http://www.scottslawnservice.com/'
p95
aS'https://www.usbank.com/'
p96
aS'https://www.usbank.com/internet_banking_logon/'
p97
aS'https://www.usbank.com/online-banking/internet-banking.html'
p98
aS'https://www.usbank.com/mortgage/'
p99
aS'https://www.usbank.com/locations/'
p100
aS'http://rewards.xbox.com/'
p101
aS'http://www.mycokerewards.com/'
p102
aS'https://www.scorecardrewards.com/'
p103
aS'http://www.marriott.com/rewards/rewards-program.mi'
p104
aS'https://www.rewards.com/'
p105
aS'http://en.wikipedia.org/wiki/Topanga,_California'
p106
aS'http://www.westfield.com/topanga/'
p107
aS'/search?q=topanga&biw=975&bih=440&tbm=isch&tbo=u&source=univ&sa=X&ei=0kbPUozLK8LhsAS12oH4DA&ved=0CD8QsAQ'
p108
aS'http://www.topangaonline.com/'
p109
aS'http://www.parks.ca.gov/?page_id=629'
p110
aS'http://www.everyjoe.com/2013/03/08/girls/danielle-fishel-maxim-pictures-topanga-naked/'
p111
aS'http://www.funnyordie.com/articles/d4fd5414ee/topanga-sex-tape'
p112
aS'http://www.evilbeetgossip.com/category/danielle-fishel/'
p113
aS'http://www.maxim.com/girls-of-maxim/danielle-fishel-profile'
p114
aS'http://www.ranker.com/list/hottest-danielle-fishel-photos/celeb-spotter'
p115
aS'http://www.fishwrapper.com/post/2013/10/23/danielle-fishel-anorexia-marriage-fat-overweight-bullying-shaming-awful/'
p116
aS'http://www.maxim.com/girls-of-maxim/danielle-topanga-fishel'
p117
aS'http://engrus.com/k/%D0%B2%D1%84%D1%82%D1%88%D1%83%D0%B4%D0%B4%D1%83+%D0%B0%D0%B3%D1%8B%D1%80%D1%83%D0%B4+%D1%82%D1%84%D0%BB%D1%83%D0%B2'
p118
aS'https://daniellefishel.fora.pl/'
p119
aS'http://www.imdb.com/name/nm0004918/'
p120
aS'http://www.everyjoe.com/2013/03/08/girls/danielle-fishel-maxim-pictures-topanga-naked/'
p121
aS'http://www.funnyordie.com/articles/d4fd5414ee/topanga-sex-tape'
p122
aS'http://www.evilbeetgossip.com/category/danielle-fishel/'
p123
aS'http://www.maxim.com/girls-of-maxim/danielle-fishel-profile'
p124
aS'http://www.break.com/findpix/danielle-fishel-naked/'
p125
aS'http://www.daniellefishel.sacone.com/'
p126
aS'http://www.aolstalker.com/s/www.daniellefishel.sacone.com/'
p127
aS'http://www.angelfire.com/ab/daniellefishel/linkexchange.html'
p128
aS'http://www.angelfire.com/ab/daniellefishel/webring.html'
p129
aS'http://engrus.com/k/%D1%86%D1%86%D1%86%D1%8E%D0%B2%D1%84%D1%82%D1%88%D1%83%D0%B4%D0%B4%D1%83%D0%B0%D1%88%D1%8B%D1%80%D1%83%D0%B4%D1%8E%D1%8B%D1%84%D1%81%D1%89%D1%82%D1%83%D1%8E%D1%81%D1%89%D1%8C'
p130
aS'http://www.craigslist.org/'
p131
aS'http://philadelphia.craigslist.org/'
p132
aS'http://nh.craigslist.org/'
p133
aS'http://cnj.craigslist.org/'
p134
aS'http://tampa.craigslist.org/'
p135
aS'http://stlouis.craigslist.org/'
p136
aS'http://stlouis.craigslist.org/apa/'
p137
aS'http://stlouis.craigslist.org/pet/'
p138
aS'http://stlouis.craigslist.org/cta/'
p139
aS'http://stlouis.craigslist.org/fua/'
p140
aS'http://en.wikipedia.org/wiki/Wildlife_management'
p141
aS'http://www.wildlifemanagementinstitute.org/'
p142
aS'/search?q=wildlife+management&biw=975&bih=440&tbm=isch&tbo=u&source=univ&sa=X&ei=_0bPUt7dCtOksQTE64GQDA&ved=0CFYQsAQ'
p143
aS'http://joomla.wildlife.org/index.php?option=com_content&task=view&id=43'
p144
aS'http://www.tpwd.state.tx.us/landwater/land/private/wildlife/'
p145
aS'http://mdc.mo.gov/sites/default/files/resources/2010/05/5354_3245.pdf'
p146
aS'http://mdc.mo.gov/about-us/about-regulations/wildlife-code-missouri'
p147
aS'http://mdc.mo.gov/about-us/about-regulations'
p148
aS'http://mdc.mo.gov/hunting-trapping/hunting-regulations'
p149
aS'http://cafnr.missouri.edu/academics/fisheries.php'
p150
aS'http://mdc.mo.gov/'
p151
aS'http://mdc.mo.gov/hunting-trapping'
p152
aS'http://mdc.mo.gov/hunting-trapping/bird-hunting'
p153
aS'http://mdc.mo.gov/hunting-trapping/deer-hunting'
p154
aS'http://mdc.mo.gov/fishing'
p155
aS'http://www.mccoyblossomfh.com/'
p156
aS'http://www.mccoyblossomfh.com/fh/facilities/home.cfm?&fh_id=10842'
p157
aS'http://www.legacy.com/obituaries/stltoday/obituary-funeralhome.aspx?fh=mccoy-blossom-funeral-home--cremation-center---troy&fhid=7392'
p158
aS'http://www.legacy.com/obituaries.asp?Page=FHDirections&FHIndex=7392'
p159
aS'https://www.facebook.com/pages/McCoy-Blossom-Funeral-Home-Cremation-Center/112929125386947'
p160
aS'http://www.mccoyblossomfh.com/'
p161
aS'http://www.legacy.com/obituaries.asp?Page=FHDirections&FHIndex=7392'
p162
aS'http://www.legacy.com/obituaries/stltoday/obituary-funeralhome.aspx?fh=mccoy-blossom-funeral-home--cremation-center---troy&fhid=7392'
p163
aS'http://www.mccoyblossomfunerals.com/fh/obituaries/obituary.cfm?o_id=2305347&fh_id=10842'
p164
aS'http://www.mccoyblossomfunerals.com/fh/obituaries/obituary.cfm?o_id=2100017&fh_id=10842'
p165
aS'http://www.mccoyblossomfh.com/'
p166
aS'http://www.mccoyblossomfh.com/fh/obituaries/home.cfm?&fh_id=10842'
p167
aS'http://www.mccoyblossomfh.com/fh/facilities/facilities_directions.cfm?page=1&fh_id=10842'
p168
aS'http://www.mccoyblossomfh.com/fh/info/home.cfm?&fh_id=10842'
p169
aS'http://www.mccoyblossomfh.com/fh/obituaries/obituary.cfm?o_id=2274123&fh_id=10842'
p170
aS'http://www.oah.org/site/assets/files/2624/advance_warehouse_shipping_storage_order_form.pdf'
p171
aS'https://www.paramountcs.com/documents/event457/Denver%20Debate%20Rate%20Card.pdf'
p172
aS'https://www.paramountcs.com/documents/event479/HFA-2013%20Service%20Kit.pdf'
p173
aS'http://engrus.com/k/%D0%B7%D1%84%D0%BA%D1%84%D1%8C%D1%89%D0%B3%D1%82%D0%B5%D1%81%D1%8B%D1%8E%D1%81%D1%89%D1%8C%D1%8E%D0%B2%D1%89%D1%81%D0%B3%D1%8C%D1%83%D1%82%D0%B5%D1%8B'
p174
aS'http://www.docstoc.com/docs/165384038/pdf-file-of-exhibitor-service-kit---IEEE-GLOBECOM-2013'
p175
aS'http://www.hertz.com/'
p176
aS'https://www.hertz.com/rentacar/location'
p177
aS'https://www.hertz.com/rentacar/specialoffers/index.jsp?targetPage=specialOffersPerCategoryView.jsp'
p178
aS'https://japan.hertz.com/rentacar/location/index.jsp?targetPage=locationDetailsView.jsp&eoag=PHLT11'
p179
aS'https://www.hertz.com/rentacar/vehicleguide/index.jsp?targetPage=vehicleGuideHomeView.jsp'
p180
aS'/search?q=squeeeeek+no+more&biw=975&bih=440&source=univ&tbm=shop&tbo=u&sa=X&ei=M0fPUo3jLLS-sQTw-IHIDA&ved=0CC4Qsxg'
p181
aS'http://www.homedepot.com/p/Squeeeeek-No-More-Stops-Floor-Squeaks-From-Above-the-Floor-3233/100662995'
p182
aS'http://www.123itsdone.com/'
p183
aS'http://www.amazon.com/Squeeeeek-More-Floor-Repair-Kit/dp/B0006IK8YE'
p184
aS'http://www.lowes.com/pd_9720-28488-3233_0__?productId=4441839'
p185
aS'http://en.wikipedia.org/wiki/Shawshank'
p186
aS'http://en.wikipedia.org/wiki/The_Shawshank_Redemption'
p187
aS'http://en.wikipedia.org/wiki/Ohio_State_Reformatory'
p188
aS'/search?q=shawshank+prison&biw=975&bih=440&tbm=isch&tbo=u&source=univ&sa=X&ei=OUfPUo3ZPKelsQTNuoDQDA&ved=0CEUQsAQ'
p189
aS'http://www.newsnet5.com/news/local-news/my-ohio/going-back-to-shawshank-the-prison-where-the-popular-film-was-produced'
p190
aS'http://pages.ebay.com/help/buy/watching-items.html'
p191
aS'http://pages.ebay.com/completedlistings/'
p192
aS'http://pages.ebay.com/help/search/questions/search-completed-listings.html'
p193
aS'http://pages.ebay.com/help/buy/about-view-item.html'
p194
aS'http://www.ecommercebytes.com/cab/abn/y13/m10/i17/s01'
p195
aS'http://en.wikipedia.org/wiki/Lewis_and_Clark_Expedition'
p196
aS'http://www.lclark.edu/'
p197
aS'/search?q=lewis+and+clark&biw=975&bih=440&tbm=isch&tbo=u&source=univ&sa=X&ei=TkfPUsalEauhsAT8oIHoCw&ved=0CDoQsAQ'
p198
aS'http://www.nationalgeographic.com/lewisandclark/'
p199
aS'http://www.pbs.org/lewisandclark/'
p200
aS'/search?q=lewis+and+clark+costumes&biw=975&bih=440&tbm=isch&tbo=u&source=univ&sa=X&ei=VEfPUr3cKcrJsASTwYD4DA&ved=0CCkQsAQ'
p201
aS'http://www.heritagecostumes.com.vhost.zerolag.com/Kids-Explorer-Costumes-c147/'
p202
aS'http://www.heritagecostumes.com/Boys-Colonial-Costumes-c120/'
p203
aS'http://platinumcost765.corecommerce.com/Meriwether-Lewis-p22.html'
p204
aS'http://www.pinterest.com/lensroto/celebrating-lewis-clark/'
p205
aS'/search?q=lewis+and+clark+uniforms&biw=975&bih=440&tbm=isch&tbo=u&source=univ&sa=X&ei=W0fPUovuB-_JsQS6qICgDA&ved=0CCkQsAQ'
p206
aS'http://www.history.army.mil/LC/The%20Mission/Facts/uniforms.htm'
p207
aS'http://lewis-clark.org/content/content-article.asp?ArticleID=549'
p208
aS'http://lewis-clark.org/content/content-channel.asp?ChannelID=325'
p209
aS'http://www.greatfallstribune.com/communities/lewisandclark/20030622/uniforms.pdf'
p210
aS'/search?q=lewis+and+clark+clothing&biw=975&bih=440&tbm=isch&tbo=u&source=univ&sa=X&ei=YUfPUp-6IaLUsATdzYCQDQ&ved=0CCkQsAQ'
p211
aS'http://www.greatfallstribune.com/communities/lewisandclark/20030622/uniforms.pdf'
p212
aS'http://www.gooutandplay.com/'
p213
aS'http://lewis-clark.org/content/content-article.asp?ArticleID=549'
p214
aS'http://franceshunter.wordpress.com/2010/02/11/what-did-lewis-clark-wear/'
p215
aS'http://auto.howstuffworks.com/car-driving-safety/accidents-hazardous-conditions/10-safe-driving-tips.htm'
p216
aS'http://www.nhtsa.gov/Driving+Safety'
p217
aS'http://www.nationwide.com/driving-safety-tips.jsp'
p218
aS'http://www.nsc.org/safety_road/'
p219
aS'http://www.roadtripamerica.com/forum/content.php?6-Defensive-Driving-Tips'
p220
aS'http://www.generalfilms.com/'
p221
aS'http://generalfilms.com/index.php/contact-us'
p222
aS'http://www.generalfilms.com/index.php/about-us'
p223
aS'http://www.indeed.com/q-GENERAL-FILMS,-INC.-l-Covington,-OH-jobs.html'
p224
aS'http://en.wikipedia.org/wiki/General_Film_Company'
p225
aS'https://www.aa.com/'
p226
aS'http://www.aa.com/reservation/roundTripSearchAccess.do'
p227
aS'http://www.aa.com/reservation/flightCheckInViewReservationsAccess.do'
p228
aS'http://www.aa.com/gatesTimesSubmit.do'
p229
aS'http://www.aa.com/travelInformation/gatesTimesAccess.do'
p230
aS'/search?q=soil+and+wildlife+management&biw=975&bih=440&source=univ&tbm=shop&tbo=u&sa=X&ei=ekfPUpvgOLCisATtloGADQ&ved=0CCkQsxg'
p231
aS'http://el.erdc.usace.army.mil/elpubs/pdf/trel99-11.pdf'
p232
aS'http://www.fws.gov/columbiawildlife/moistsoilreport.pdf'
p233
aS'http://www.jstor.org/stable/2423493'
p234
aS'http://edis.ifas.ufl.edu/ss468'
p235
aS'http://www.scouting.org/scoutsource/boyscouts/advancementandawards/meritbadges/mb-SOIL.aspx'
p236
aS'http://www.scouting.org/scoutsource/boyscouts/advancementandawards/meritbadges/mb-FAWM.aspx'
p237
aS'http://www.scouting.org/boyscouts/advancementandawards/meritbadges/wcons.aspx'
p238
aS'http://www.scouting.org/scoutsource/boyscouts/resources/conservationgoodturn.aspx'
p239
aS'http://meritbadge.org/wiki/index.php/Soil_and_Water_Conservation'
p240
aS'/search?q=hp+ipaq&biw=975&bih=440&source=univ&tbm=shop&tbo=u&sa=X&ei=h0fPUqTCLJK_sQS0ooKgDA&ved=0CCwQsxg'
p241
aS'http://welcome.hp.com/country/us/en/prodserv/handheld.html'
p242
aS'http://en.wikipedia.org/wiki/IPAQ'
p243
aS'http://popular.ebay.com/consumer-electronics/hp-ipaq.htm'
p244
aS'http://www.ebay.com/bhp/hp-ipaq-pocket-pc'
p245
aS'http://h20564.www2.hp.com/portal/site/hpsc/public/psi/troubleshootResults?sp4ts.oid=322916'
p246
aS'http://h20564.www2.hp.com/bizsupport/TechSupport/Document.jsp?lang=en&cc=us&taskId=110&prodSeriesId=322897&prodTypeId=215348&objectID=c00595366'
p247
aS'http://h20000.www2.hp.com/bizsupport/TechSupport/SupportTaskIndex.jsp?taskId=110&lang=en&cc=us&prodSeriesId=421399&prodTypeId=215348'
p248
aS'http://h20564.www2.hp.com/portal/site/hpsc/public/psi/troubleshootResults?sp4ts.oid=3544499'
p249
aS'http://h20564.www2.hp.com/portal/site/hpsc/public/psi/troubleshootResults?sp4ts.oid=322908'
p250
aS'http://www.eureka.mo.us/departments/parks-recreation/park-locations-amenities/'
p251
aS'http://www.mapquest.com/maps?name=Legion%20Park&address=333%20Bald%20Hill%20Rd&city=Eureka&state=MO&zipcode=63025'
p252
aS'http://www.mapquest.com/places/legion-park-eureka-mo-7998365'
p253
aS'https://foursquare.com/v/legion-park/4c86ccbad8086dcb47369d52'
p254
aS'http://local.yahoo.com/info-42899055-legion-park-eureka'
p255
aS'http://e-clubhouse.org/sites/newpark/'
p256
aS'http://www.eureka.mo.us/departments/parks-recreation/park-locations-amenities/'
p257
aS'http://www.foodlion.com/'
p258
aS'http://eureka-wildwood.patch.com/listings/lions-park-15'
p259
aS'http://www.loudonparks.com/parks.php'
p260
aS'http://www.eureka.mo.us/departments/parks-recreation/park-locations-amenities/'
p261
aS'http://www.eureka.mo.us/departments/parks-recreation/trail-plan/'
p262
aS'http://www.mapquest.com/maps?name=Legion%20Park&address=333%20Bald%20Hill%20Rd&city=Eureka&state=MO&zipcode=63025'
p263
aS'http://www.mapquest.com/places/legion-park-eureka-mo-7998365'
p264
aS'http://www.mapquest.com/maps?1c=Stlouis&1s=MO&1z=63131&2pn=Legion%20Park&2a=333%20Bald%20Hill%20Rd&2c=Eureka&2s=MO&2z=63025'
p265
aS'http://www.woodburn-or.gov/?q=events'
p266
aS'http://www.eureka.mo.us/visitors/special-city-wide-events/adult-easter-egg-hunt/'
p267
aS'http://www.easteregghuntsandevents.org/WI_Easter.php'
p268
aS'http://www.cityoflompoc.com/parks_rec/events/EasterEggHunt/'
p269
aS'http://www.wgfaradio.com/illianabulletinboard/events/index.php?com=detail&eID=13279&year=2013&month=3'
p270
aS'http://www.eureka.mo.us/visitors/special-city-wide-events/easter-egg-hunt/'
p271
aS'http://www.eureka.mo.us/residents/calendar-of-events/'
p272
aS'http://www.eureka.mo.us/residents/special-city-wide-events/'
p273
aS'http://www.eureka.mo.us/residents/homeowners-associations/'
p274
aS'http://www.easteregghuntsandevents.org/MO_Easter.php'
p275
aS'http://www.virtualriskmanager.net/'
p276
aS'https://uat.virtualriskmanager.net/global/driver/login.php?content=uk&lang=en&vrmcode=ids&dist=zfi'
p277
aS'http://www.virtualriskmanager.net/main/aboutus/patents.php'
p278
aS'http://www.virtualriskmanager.net/main/aboutus/europeanroadsafetycharter.php'
p279
aS'http://www.virtualriskmanager.net/mission/'
p280
aS'http://www.scouting.org/'
p281
aS'http://www.buckscountybsa.org/'
p282
aS'http://www.bsa-gnyc.org/'
p283
aS'http://www.ppbsa.org/'
p284
aS'http://www.scouting.org/'
p285
aS'http://www.lvacbsa.org/'
p286
aS'http://www.lvacbsa.org/'
p287
aS'http://www.lvacbsa.org/'
p288
aS'http://www.yellowpages.com/las-vegas-nv/boy-scout-shop'
p289
aS'https://foursquare.com/v/donald-w-reynolds-scouting-resource-center-las-vegas-area-boy-scouts/4b76c763f964a520925e2ee3'
p290
aS'http://www.superpages.com/'
p291
aS'http://www.aolstalker.com/s/yellowpages-int.superpages.com/'
p292
aS'http://www.aolstalker.com/s/yellowpages-int+superpages+com/0,360'
p293
aS'http://www.aolstalker.com/s/yellowpages-int+superpages+com/0,200'
p294
aS'http://www.aolstalker.com/s/yellowpages-int+superpages+com/0,480'
p295
aS'http://www.coleman.com/'
p296
aS'http://www.coleman.com/Products'
p297
aS'http://www.coleman.com/Products/8500/coolers'
p298
aS'http://www.coleman.com/Parts'
p299
aS'http://www.coleman.com/Products/31000/coleman-outlet-store'
p300
aS'http://www.stltoday.com/'
p301
aS'http://www.stltoday.com/sports/baseball/professional/'
p302
aS'http://www.stltoday.com/news/'
p303
aS'http://www.stltoday.com/sports/'
p304
aS'http://www.stltoday.com/sports/high-school/'
p305
aS'http://www.thepost-dispatchstore.com/'
p306
aS'http://www.thepost-dispatchstore.com/Cardinals_Products_s/8.htm'
p307
aS'http://www.thepost-dispatchstore.com/Cardinals_Products_s/8.htm?searching=Y&sort=5&cat=8&show=100&page=1'
p308
aS'http://www.thepost-dispatchstore.com/Post_Dispatch_Exclusives_s/1.htm'
p309
aS'http://www.thepost-dispatchstore.com/St_Louis_Cardinals_World_Champions_Replica_Rings_p/19440.htm'
p310
aS'http://vimeo.com/79704204'
p311
aS'http://celebslam.celebuzz.com/category/teri-hatcher/'
p312
aS'http://www.dailymotion.com/video/xceun7_all-teri-hatcher-nude-sex-scenes_redband'
p313
aS'http://www.dailymotion.com/video/x8kk88_teri-hatcher-naked-outside_redband'
p314
aS'http://www.xvideos.com/video125276/teri_hatcher_sex_tape_video_full_nude_scene_'
p315
aS'http://www.imdb.com/title/tt0109478/'
p316
aS'/search?q=the+cool+surface&biw=975&bih=440&tbm=isch&tbo=u&source=univ&sa=X&ei=50fPUvvYPK3NsQTV3YGwDA&ved=0CDAQsAQ'
p317
aS'http://www.youtube.com/watch?v=0QpwuYxWG4Q'
p318
aS'http://www.break.com/video/ugc/teri-hatcher-nude-in-the-cool-surface-2-651557'
p319
aS'http://www.metacafe.com/watch/466678/teri_hatcher_the_cool_surface/'
p320
aS'http://globalgrind.com/2013/05/15/every-nude-celebrity-photo-shoot-nsfw-photos/'
p321
aS'http://www.mandatory.com/2013/11/22/the-celebrity-nude-leaked-photos-report-card/'
p322
aS'http://www.buzzfeed.com/sextapes/the-21-most-important-leaked-celebrity-nudes-nsfw'
p323
aS'http://diaryofahollywoodstreetking.com/category/celebrity-leaked-photos/'
p324
aS'http://celebritynudes.tumblr.com/'
p325
aS'http://horizonfoodswest.com/'
p326
aS'http://www.horizonfoods.com/'
p327
aS'http://www.horizonfoodbrokers.com/'
p328
aS'http://horizonfoodgroup.com/'
p329
aS'http://newhorizonfoods.com/'
p330
aS'http://www.urbanspoon.com/r/28/321025/restaurant/St-Louis/West/Horizon-Foods-St-Louis'
p331
aS'http://www.bbb.org/minnesota/business-reviews/food-servicemanagement/new-horizon-foods-in-saint-louis-park-mn-96012868'
p332
aS'http://www.manta.com/c/mm7hx6k/new-horizon-foods'
p333
aS'http://twincities.citysearch.com/profile/726344910/st_louis_park_mn/new_horizon_foods.html'
p334
aS'http://www.dexknows.com/business_profiles/new_horizon_foods_inc-b413721'
p335
aS'http://newhorizonfoods.com/'
p336
aS'http://newhorizonfoods.com/index.cfm/contact-us'
p337
aS'http://www.newhorizonfoodsinc.com/'
p338
aS'http://horizonfoodgroup.com/'
p339
aS'http://horizonholding.com/'
p340
aS'http://newhorizonfoods.com/'
p341
aS'http://newhorizonfoods.com/index.cfm/contact-us'
p342
aS'http://www.newhorizonfoodsinc.com/'
p343
aS'http://horizonfoodgroup.com/'
p344
aS'http://horizonholding.com/'
p345
aS'http://www.lasvegas.com/'
p346
aS'http://www.lasvegas.com/knowthecode/'
p347
aS'http://www.visitlasvegas.com.au/'
p348
aS'http://www.visitlasvegas.com/?lang=fr'
p349
aS'http://www.vegas.com/'
p350
aS'http://www.stlouisarch.hyatt.com/'
p351
aS'http://www.hyattregencystlouis.com/'
p352
aS'http://www.tripadvisor.com/Hotel_Review-g44881-d112445-Reviews-Hyatt_Regency_St_Louis_at_The_Arch-Saint_Louis_Missouri.html'
p353
aS'http://www.hotels.com/ho114509/hyatt-regency-st-louis-at-the-arch-st-louis-united-states/'
p354
aS'http://www.yelp.com/biz/hyatt-regency-st-louis-at-the-arch-saint-louis-2'
p355
aS'http://www.alertdriving.com/'
p356
aS'http://www.alertdriving.com/login.php'
p357
aS'http://www.alertdriving.com/home/privacy-policy'
p358
aS'http://www.alertdriving.com/home/about'
p359
aS'http://www.alertdriving.com/home/why-alertdriving/industry-leader'
p360
aS'http://www.walkfit.com/'
p361
aS'http://www.walkfit.com/info.html'
p362
aS'http://www.youtube.com/watch?v=5sm8QDdCOaw'
p363
aS'http://www.amazon.com/Walk-Fit-Othotics-Phase4-Size/product-reviews/B0009VEZHY'
p364
aS'http://www.pissedconsumer.com/reviews-by-company/walkfit.html'
p365
aS'http://en.wikipedia.org/wiki/Boy_Meets_World'
p366
aS'http://www.imdb.com/title/tt0105958/'
p367
aS'http://www.imdb.com/title/tt2543796/'
p368
aS'/search?q=meets+world&biw=975&bih=440&source=univ&tbm=nws&tbo=u&sa=X&ei=J0jPUsuBBfTKsATig4GIDA&ved=0CEYQqAI'
p369
aS'http://boymeetsworld.wikia.com/wiki/Boy_Meets_World'
p370
aS'http://en.wikipedia.org/wiki/Seventh_Heaven'
p371
aS'http://en.wikipedia.org/wiki/7th_Heaven_%28TV_series%29'
p372
aS'/search?q=seventh+heaven&biw=975&bih=440&tbm=isch&tbo=u&source=univ&sa=X&ei=LUjPUo_jHMvHsASW-4CoDA&ved=0CDkQsAQ'
p373
aS'http://www.imdb.com/title/tt0115083/'
p374
aS'http://www.imdb.com/title/tt0018379/'
p375
aS'http://en.wikipedia.org/wiki/Beverley_Mitchell'
p376
aS'http://www.imdb.com/name/nm0005238/'
p377
aS'https://twitter.com/beverleymitchel'
p378
aS'http://www.usmagazine.com/celebrity-moms/news/jessica-biel-jokes-beverley-mitchell-wins-for-having-a-baby-201334'
p379
aS'http://celebritybabies.people.com/category/beverley-mitchell-blog/'
p380
aS'http://www.gossiprocks.com/forum/just-plain-scary/42700-beverly-mitchell-showing-tits-mackenzie-rosman-giving-finger.html'
p381
aS'http://celebslam.celebuzz.com/category/beverley-mitchell/'
p382
aS'http://www.youtube.com/watch?v=Qm8q6tb-n-8'
p383
aS'http://www.nudography.com/Celebrities/beverley_mitchell.aspx'
p384
aS'http://www.thecelebritypix.com/Beverly-Mitchell-Nude.html'
p385
aS'http://vimeo.com/79710991'
p386
aS'http://www.mrskin.com/catherine-hicks-nude-c683.html'
p387
aS'http://books.google.com/books?id=dMMP94fw3mgC&pg=PA250&lpg=PA250&dq=catherine+hicks+nude&source=bl&ots=0QS11bgJmw&sig=v689O7dwk7ltea77OXfM8GkTcF4&hl=en&sa=X&ei=QEjPUvjFJKTlsASOxoDwCw&ved=0CDUQ6AEwAg'
p388
aS'http://www.thecelebritypix.com/Catherine-Hicks-Nude.html'
p389
aS'http://www.nudography.com/Celebrities/catherine_hicks.aspx'
p390
aS'http://www.puritan.com/'
p391
aS'http://www.puritan.com/categories'
p392
aS'http://www.puritan.com/multivitamins-067'
p393
aS'http://www.puritan.com/super-sale-829'
p394
aS'http://www.puritan.com/co-q-10-055'
p395
aS'http://www.rci.com/'
p396
aS'http://www.rci.com/RCI/prelogin/rdMain.do?promo=TMB07NAENUSAllRDDec12012013'
p397
aS'https://www.rci.com/RCI/prelogin/contactUs.do'
p398
aS'http://www.rci.com/PointsPlatinum'
p399
aS'http://www.rci.com/RCI/prelogin/aboutUs.do'
p400
aS'http://www.sixflags.com/national/promotions/partnermarketplace.aspx'
p401
aS'http://www.sixflags.com/national/tickets/promocode.aspx?merchant'
p402
aS'http://www.sixflags.com/national/footernav/coke.aspx'
p403
aS'http://www.retailmenot.com/view/sixflags.com'
p404
aS'http://www.coupons.com/coupon-codes/six-flags/'
p405
aS'http://www.schnucks.com/'
p406
aS'http://stlouisonthecheap.com/tag/six-flags-st-louis/'
p407
aS'http://www.have-fun-in-the-usa.com/Six-Flags-St-Louis-Coupons-and-Discounts.html'
p408
aS'http://answers.yahoo.com/question/?qid=20070517132429AAJsaXI'
p409
aS'http://www.reddit.com/r/StLouis/comments/ul0mw/cheapest_way_to_get_six_flags_tickets/'
p410
aS'http://www.schnucks.com/'
p411
aS'http://www.schnucks.com/stores/'
p412
aS'http://www.schnucks.com/pharmacy'
p413
aS'http://www.schnucks.com/employment/'
p414
aS'http://www.schnucks.com/coupons.asp'
p415
aS'http://www.schnucks.com/'
p416
aS'http://stlouisonthecheap.com/tag/six-flags-st-louis/'
p417
aS'http://answers.yahoo.com/question/?qid=20070517132429AAJsaXI'
p418
aS'http://www.reddit.com/r/StLouis/comments/ul0mw/cheapest_way_to_get_six_flags_tickets/'
p419
aS'http://www.have-fun-in-the-usa.com/Six-Flags-St-Louis-Coupons-and-Discounts.html'
p420
aS'https://www.nationalcar.com/'
p421
aS'https://www.nationalcar.com/resRentalInfo.do'
p422
aS'https://www.nationalcar.com/hotDealsTemplate.do?msg=national-new-york-city-car-rental'
p423
aS'https://www.nationalcar.com/hotDeals.do'
p424
aS'https://www.nationalcar.com/locSearch.do'
p425
aS'http://www.hertz.com/'
p426
aS'https://www.hertz.com/rentacar/location'
p427
aS'https://www.hertz.com/rentacar/specialoffers/index.jsp?targetPage=specialOffersPerCategoryView.jsp'
p428
aS'https://japan.hertz.com/rentacar/location/index.jsp?targetPage=locationDetailsView.jsp&eoag=PHLT11'
p429
aS'https://www.hertz.com/rentacar/misc/index.jsp?targetPage=UScareers.jsp'
p430
aS'http://www.southwest.com/'
p431
aS'http://www.southwest.com/flight/retrieveCheckinDoc.html'
p432
aS'http://travel.southwest.com/'
p433
aS'http://www.southwest.com/flight?int=GNAVBOOKAIR'
p434
aS'http://www.southwest.com/flight/request-schedule.html?int=GSUBNAV-AIR-SCHEDULES'
p435
aS'http://www.metrostlouis.org/'
p436
aS'http://www.metrostlouis.org/PlanYourTrip/MapsSchedules.aspx'
p437
aS'http://www.metrostlouis.org/PlanYourTrip/MetroBusPDFSchedules.aspx'
p438
aS'http://tripplanner.metrostlouis.org/'
p439
aS'http://www.metrostlouis.org/PlanYourTrip/MapsSchedules/MetroLink.aspx'
p440
aS'http://www.timeanddate.com/calendar/?year=2007&country=1'
p441
aS'http://www.timeanddate.com/calendar/?year=2007&country=9'
p442
aS'/search?q=2007+calendar&biw=975&bih=440&tbm=isch&tbo=u&source=univ&sa=X&ei=hkjPUoDnBOexsQSrpoC4DA&ved=0CDgQsAQ'
p443
aS'http://www.calendarlabs.com/online-calendar.php?y=2007'
p444
aS'http://www.calendardate.com/2007.php'
p445
aS'http://www.stltoday.com/lifestyles/columns/joe-holleman/dierdorf-hart-s-to-close-may/article_0eb23baa-48c0-5b45-9415-e4a1ca5c19c5.html'
p446
aS'http://www.yelp.com/biz/dierdorf-and-harts-steakhouse-saint-louis'
p447
aS'http://www.bizjournals.com/stlouis/blog/2013/04/dierdorf-harts-to-end-30-year-run.html'
p448
aS'http://www.urbanspoon.com/r/28/320619/restaurant/St-Louis/Dierdorf-Harts-Westport-Maryland-Heights'
p449
aS'http://www.tripadvisor.com/Restaurant_Review-g44881-d441472-Reviews-Dierdorf_Harts_Steakhouse-Saint_Louis_Missouri.html'
p450
aS'http://www.yelp.com/biz/dierdorf-and-harts-steakhouse-saint-louis'
p451
aS'http://www.allmenus.com/mo/maryland-heights/54261-dierdorf--harts/menu/'
p452
aS'http://www.stlmag.com/Blogs/Relish/April-2013/Dierdorf-Harts-Closing-Exact-Date-Uncertain/'
p453
aS'http://www.urbanspoon.com/cities/28-st-louis/restaurants/320619-dierdorf-hart-s-westport/menu'
p454
aS'http://www.urbanspoon.com/r/28/320619/restaurant/St-Louis/Dierdorf-Harts-Westport-Maryland-Heights'
p455
aS'/search?q=coleman+sleeping+bags&biw=975&bih=440&source=univ&tbm=shop&tbo=u&sa=X&ei=mUjPUpqpGtC1sAS6r4CwDA&ved=0CCkQsxg'
p456
aS'http://www.coleman.com/Products/9000/sleeping-bags'
p457
aS'http://www.amazon.com/b?node=2204498011'
p458
aS'http://www.target.com/c/sleeping-bags-bedding-camping-outdoors-sports/coleman/-/N-5xt5wZ5xwy5'
p459
aS'http://www.walmart.com/browse/camping/sleeping-bags/coleman/4125_4128_133173/YnJhbmQ6Q29sZW1hbgieie'
p460
as.