ccollections
defaultdict
p1
(c__builtin__
list
p2
tRp3
S'4965445'
p4
(lp5
S'http://engrus.com/k/%D0%B5%D1%80%D1%83+20%D0%BC%D1%88%D0%B4%D0%B4%D1%84%D0%BF%D1%83+20%D0%B5%D0%BA%D1%83%D1%8B%D0%B5%D0%B4%D1%83+20%D0%BF%D1%89%D0%B0%D0%B0%D1%8B%D0%B5%D1%89%D1%86%D1%82+20%D1%82%D1%80'
p6
aS'http://www.aolstalker.com/s/north+20conway+20nh/'
p7
aS'http://www.aolstalker.com/s/world+20golf+20village/'
p8
aS'http://www.aolstalker.com/4965445.html'
p9
aS'http://ikiovohmintseva.pochta.ru/13.html'
p10
aS'http://www.villagetrestle.com/'
p11
aS'http://villagetrestle.com/about.html'
p12
aS'http://www.villagetrestle.com/contact.html'
p13
aS'http://villagetrestle.com/menu.html'
p14
aS'http://www.villagetrestle.com/photo_gallery.html'
p15
aS'http://engrus.com/k/%D1%89%D1%81%D0%B5%D1%89%D0%B8%D1%83%D0%BA%D1%8B%D1%89%D1%82%D1%8B+20%D1%82%D1%80'
p16
aS'http://www.aolstalker.com/s/north+20conway+20nh/'
p17
aS'http://www.aolstalker.com/4965445.html'
p18
aS'http://gbook.arcor.de/tp/home/gaestebuch/guest.php?pagename=126067&start=370'
p19
aS'http://ikiovohmintseva.pochta.ru/13.html'
p20
aS'http://www.octobersons.com/band.htm'
p21
aS'http://www.octobersons.com/nhweddings.html'
p22
aS'https://www.facebook.com/pages/October-Sons/17837953284'
p23
aS'http://www.last.fm/music/October+Sons'
p24
aS'http://www.lowellrocks.com/artist/http:october-sons'
p25
aS'http://www.aolstalker.com/s/the+20song+20+22fallen+22/'
p26
aS'http://engrus.com/k/%D0%B5%D1%80%D1%83+20%D1%8B%D1%89%D1%82%D0%BF+20+22%D0%B0%D1%84%D0%B4%D0%B4%D1%83%D1%82+22'
p27
aS'http://www.kcrw.com/getSongList?show_id=program%3Ae24&channel_id=kcrwmusic'
p28
aS'http://www.kcrw.com/getSongList?show_id=ap100705rem_disc_two_fables_&channel_id=kcrwmusic'
p29
aS'http://www.kcrw.com/getSongList?show_id=ap100712frazey_ford_obadiah&channel_id=kcrwmusic'
p30
aS'http://www.youtube.com/watch?v=zQi0xTtAQA4'
p31
aS'http://en.wikipedia.org/wiki/Fallen_%28Sarah_McLachlan_song%29'
p32
aS'http://en.wikipedia.org/wiki/Fallen_Angels_%28song%29'
p33
aS'http://en.wikipedia.org/wiki/Fallen_%28M%C3%BDa_song%29'
p34
aS'http://en.wikipedia.org/wiki/Fallen_%28Volbeat_song%29'
p35
aS'http://engrus.com/k/%D0%B4%D1%88%D1%8B%D0%B5%D1%83%D1%82+20%D0%B5%D1%89+20%D1%8B%D1%89%D1%82%D0%BF+20+22%D0%B0%D1%84%D0%B4%D0%B4%D1%83%D1%82+22+20%D0%B8%D0%BD+20%D1%8B%D1%84%D0%BA%D1%84%D1%80+20%D1%8C%D1%81%D0%B4%D1%84%D1%81%D1%80%D0%B4%D1%84%D1%82'
p36
aS'http://www.aolstalker.com/s/the+20song+20+22fallen+22/'
p37
aS'http://www.aolstalker.com/s/lyrics+20of+20song/'
p38
aS'http://ikiovohmintseva.pochta.ru/13.html'
p39
aS'http://www.chillingeffects.org/notice.cgi?sID=927215'
p40
aS'http://www.last.fm/music/Sarah+McLachlan/_/Fallen'
p41
aS'http://www.youtube.com/watch?v=LWsM5CAsafs'
p42
aS'http://www.elyrics.net/read/s/sarah-mcLachlan-lyrics/fallen-lyrics.html'
p43
aS'http://www.metrolyrics.com/fallen-lyrics-sarah-mclachlan.html'
p44
aS'http://www.jango.com/music/Sarah+McLachlan'
p45
aS'http://www.ebay.com/'
p46
aS'http://www.ebay.com/motors'
p47
aS'http://www.ebay.com/electronics/cell-phone-pda'
p48
aS'http://deals.ebay.com/'
p49
aS'http://www.ebay.com/electronics'
p50
aS'http://engrus.com/k/%D0%B4%D0%BD%D0%BA%D1%88%D1%81%D1%8B+20%D0%B8%D0%BD+20%D0%BE%D0%B3%D0%B2%D1%84%D1%8B+20%D0%B7%D0%BA%D1%88%D1%83%D1%8B%D0%B5'
p51
aS'http://edoqs.com/judas-priest'
p52
aS'http://www.renegaderetro.com/test25/now-playing/Playlist/J.html?start=100'
p53
aS'http://www.renegaderetro.com/jupgrade/index.php?option=com_sam2joom&view=Playlist&letter=J&limitstart=100'
p54
aS'http://www.retroradionetwork.com/renegaderetro/index.php?option=com_sam2joom&view=Playlist&letter=J&artist=Jackson%20Browne&limitstart=100'
p55
aS'http://www.azlyrics.com/j/judaspriest.html'
p56
aS'http://www.darklyrics.com/j/judaspriest.html'
p57
aS'http://www.lyricsfreak.com/j/judas+priest/'
p58
aS'http://www.metrolyrics.com/judas-priest-lyrics.html'
p59
aS'http://www.sing365.com/music/lyric.nsf/Judas-Priest-lyrics/19A53B980678288F4825699D0029D2DD'
p60
aS'http://mp3crops.biz/music/mp3/drive_20by_20train.html'
p61
aS'http://mp3cropx.com/music/id/mp3/NDYtMTAxMw/_20Train_20Drive_20by.html'
p62
aS'http://mp3cropx.com/music/id/mp3/MDE/_20Train_20Drive_20by.html'
p63
aS'http://www.aolstalker.com/s/lyrics+20by+20train/'
p64
aS'http://www.mp3skull.ch/mp3/mp3_phpsearchmp3drive_20by_20train.html'
p65
aS'http://www.azlyrics.com/t/train.html'
p66
aS'http://www.azlyrics.com/lyrics/train/50waystosaygoodbye.html'
p67
aS'http://www.metrolyrics.com/drive-by-lyrics-train.html'
p68
aS'http://www.metrolyrics.com/train-lyrics.html'
p69
aS'http://www.youtube.com/watch?v=Iq2Htzaddys'
p70
aS'http://www.youtube.com/watch?v=g5M7DSgvFaE'
p71
aS'http://www.youtube.com/watch?v=wdfbP4oXfzs'
p72
aS'http://www.youtube.com/user/rustycadillacs'
p73
aS'https://www.facebook.com/rustycadillacs'
p74
aS'https://twitter.com/rustycadillacs'
p75
aS'http://engrus.com/k/%D1%8B%D1%80%D1%83%D1%82%D1%84%D1%82%D1%88%D0%BF%D1%84%D1%82%D1%8B+20%D1%8C%D1%88%D0%B4%D0%B0%D1%89%D0%BA%D0%B2+20%D1%82%D1%80'
p76
aS'http://www.aolstalker.com/s/north+20conway+20nh/'
p77
aS'http://www.aolstalker.com/s/shenanigans/'
p78
aS'http://www.aolstalker.com/4965445.html'
p79
aS'http://ikiovohmintseva.pochta.ru/13.html'
p80
aS'https://plus.google.com/100806966501265340839/about?gl=us&hl=en'
p81
aS'http://www.menupix.com/nashua/restaurants/610258/Shenanigans-Restaurant-and-Bar-Milford-NH'
p82
aS'http://www.whitepages.com/business/shenanigans-milford-nh'
p83
aS'http://www.mapquest.com/places/shenanigans-restaurant-bar-milford-nh-272922923'
p84
aS'http://local.yahoo.com/info-43226813-shenanigans-milford'
p85
aS'http://www.journalism.co.uk/news/20-search-tips-and-tools-for-journalists/s2/a553736/'
p86
aS'http://www.20search.com/image.php'
p87
aS'http://www.ask.com/question/top-20-search-engines'
p88
aS'http://www.techradar.com/us/news/internet/20-search-engines-that-do-something-different-912541'
p89
aS'http://search-industry-updates.blogspot.com/2013/06/top-20-seach-engines-list.html'
p90
aS'http://www.zabasearch.com/'
p91
aS'http://people.yahoo.com/'
p92
aS'http://www.anywho.com/'
p93
aS'http://www.whitepages.com/'
p94
aS'http://www.whowhere.com/'
p95
aS'http://www.birthdatabase.com/'
p96
aS'https://www.dobsearch.com/people-finder/search-dob.php'
p97
aS'http://www.ask.com/question/how-do-i-find-a-person-s-date-of-birth-for-free'
p98
aS'http://www.ask.com/question/how-can-i-find-out-a-date-of-birth-for-free'
p99
aS'http://stevemorse.org/birthday/privateeye.html'
p100
aS'http://www.aolstalker.com/s/fsnneweng.com/'
p101
aS'http://engrus.com/k/%D0%B0%D1%8B%D1%82%D1%82%D1%83%D1%86%D1%83%D1%82%D0%BF%D1%8E%D1%81%D1%89%D1%8C'
p102
aS'http://engrus.com/k/%D1%86%D1%86%D1%86%D1%8E%D0%B0%D1%8B%D1%82%D1%82%D1%83%D1%86%D1%83%D1%82%D0%BF%D1%8E%D1%81%D1%89%D1%8C'
p103
aS'http://www.dbstalk.com/topic/164392-comcast-philadelphia/page-113'
p104
aS'http://www.analysepages.com/fsnnewengland.com'
p105
aS'http://engrus.com/k/%D1%86%D1%86%D1%86%D1%8E%D0%B0%D1%8B%D1%82%D1%82%D1%83%D1%86%D1%83%D1%82%D0%BF%D1%8E%D1%81%D1%89%D1%8C'
p106
aS'http://engrus.com/k/%D0%B0%D1%8B%D1%82%D1%82%D1%83%D1%86%D1%83%D1%82%D0%BF%D1%8E%D1%81%D1%89%D1%8C'
p107
aS'http://www.aolstalker.com/s/fsnneweng.com/'
p108
aS'http://www.analysepages.com/fsnnewengland.com'
p109
aS'http://www.domain-history.info/domain/20078/21_158.html'
p110
aS'http://www.simplyhired.com/salaries-k-win-20a-20car-jobs.html'
p111
aS'http://www.simplyhired.com/a/jobtrends/trend/q-win+20a+20car'
p112
aS'http://flipacars.com/wallpapers/?q=%3Fq%3Dford%2520model%2520a%2520town%2520car'
p113
aS'http://www.photos.com/images-photo/car'
p114
aS'http://www.reachandteach.com/gw_fpres/presentationNotes.xml'
p115
aS'http://contests.about.com/od/sweepstakeslistings/tp/topcarsweeps.htm'
p116
aS'https://www.chevrolet.com/color-run-win-car.html'
p117
aS'http://www.ultracontest.com/Category/Win-A-Car-Contest/3932'
p118
aS'http://www.sweepstakesfanatics.com/car-sweepstakes/'
p119
aS'http://www.cosmopolitan.com/sweepstakes/24821'
p120
aS'http://www.csnne.com/'
p121
aS'http://en.wikipedia.org/wiki/Comcast_SportsNet_New_England'
p122
aS'http://en.wikipedia.org/wiki/Fox_Sports_Networks'
p123
aS'http://msn.foxsports.com/nfl/team/new-england-patriots/67054?q=new-england-patriots'
p124
aS'http://www.foxsportslocal.com/'
p125
aS'http://www.csnne.com/'
p126
aS'http://www.fsnnewengland.com.ipaddress.com/'
p127
aS'http://www.statmoz.com/domain/fsnnewengland.com'
p128
aS'http://www.websiteinsights.net/site/check?url=www.fsnnewengland.com'
p129
aS'http://www.thecab.tv/php/regionalsystemdirectory/regionaldirectory.php?id=48'
p130
aS'http://engrus.com/k/%D1%8B%D1%80%D1%84%D1%86%D1%82%D1%83%D1%83+20%D0%B7%D1%83%D1%84%D0%BB+20%D1%82%D1%80'
p131
aS'http://www.360cities.net/krpano/image_page_embed/lakehouse-06.xml?html5=true'
p132
aS'http://www.alltravels.com/united-states/photos-230272-64'
p133
aS'http://www.theultimatecampingguide.com/sitemap.xml'
p134
aS'http://www.makephpbb.com/boss/viewtopic.php?p=2404&mforum=boss'
p135
aS'http://www.shawneepeak.com/'
p136
aS'http://www.shawneepeak.com/tickets/maine-lift-tickets/'
p137
aS'http://www.shawneepeak.com/tickets/'
p138
aS'http://www.shawneepeak.com/dining/lodging/'
p139
aS'http://www.shawneepeak.com/mountain/'
p140
aS'http://skihiveloghome.webs.com/apps/documents/'
p141
aS'http://dictionary.reference.com/browse/shavano%2520peak'
p142
aS'http://www.fs.usda.gov/wps/portal/fsinternet/%21ut/p/c4/04_SB8K8xLLM9MSSzPy8xBz9CP0os3gDfxMDT8MwRydLA1cj72BTJw8jAwjQL8h2VAQAzHJMsQ%21%21?navtype=BROWSEBYSUBJECT&recid=18112&actid=&navid=110000000000000&pnavid=&ss=110605&position=&ttype=recarea&pname=Shawnee%2520National%2520Forest%2520%2520-%2520Colquhoun%2520Peak%2520Trail%2520'
p143
aS'http://www.fs.usda.gov/wps/portal/fsinternet/%21ut/p/c4/04_SB8K8xLLM9MSSzPy8xBz9CP0os3gDfxMDT8MwRydLA1cj72BTJw8jAwjQL8h2VAQAzHJMsQ%21%21?navtype=BROWSEBYSUBJECT&recid=18160&actid=&navid=110000000000000&pnavid=&ss=110605&position=&ttype=recarea&pname=Shawnee%2520National%2520Forest%2520%2520-%2520Pyramid%2520Peak%2520Trail%2520'
p144
aS'http://www.fs.usda.gov/wps/portal/fsinternet/%21ut/p/c4/04_SB8K8xLLM9MSSzPy8xBz9CP0os3gDfxMDT8MwRydLA1cj72BTJw8jAwjQL8h2VAQAzHJMsQ%21%21?navtype=BROWSEBYSUBJECT&recid=17996&actid=&navid=110000000000000&pnavid=&ss=110605&position=&ttype=recarea&pname=Shawnee%2520National%2520Forest%2520%2520-%2520Kendall%2520Peak%2520Lakes%2520Trail%2520'
p145
aS'http://www.shawneepeak.com/'
p146
aS'http://www.shawneepeak.com/tickets/maine-lift-tickets/'
p147
aS'http://www.shawneepeak.com/tickets/'
p148
aS'http://www.shawneepeak.com/mountain/'
p149
aS'http://www.shawneepeak.com/dining/lodging/'
p150
aS'http://www.rustycadillacs.fourfour.com/'
p151
aS'http://rustycadillacs.fourfour.com/home'
p152
aS'http://rustycadillacs.fourfour.com/page:history'
p153
aS'http://www.bandmix.com/rustycadillacs/'
p154
aS'http://www.bandarchive.com/the-rusty-cadillacs/'
p155
aS'http://www.tower.com/tower_search/search_1.cfm?keywords=paul%20furdon'
p156
aS'http://engrus.com/k/%D0%B5%D1%89%D1%8C+20%D0%B0%D0%B3%D0%BA%D0%B2%D1%89%D1%82'
p157
aS'http://books.google.com/books?id=Hu4tAAAAIAAJ&pg=PA311&lpg=PA311&dq=tom+20furdon&source=bl&ots=eidlE9cNzN&sig=ZZRofY2_SlM6qSpLYIruFFVqYLQ&hl=en&sa=X&ei=Z0nPUqD3HuG-sQTvqoD4Aw&ved=0CDMQ6AEwAg'
p158
aS'http://books.google.com/books?id=ZHZBAAAAYAAJ&pg=RA1-PA81&lpg=RA1-PA81&dq=tom+20furdon&source=bl&ots=T6hjB1CG4A&sig=xvm6w1P-eBTyvkBOlpp-XBMZJaE&hl=en&sa=X&ei=Z0nPUqD3HuG-sQTvqoD4Aw&ved=0CDgQ6AEwAw'
p159
aS'http://www.researchgate.net/publication/19734741_The_dependence_of_splicing_efficiency_on_the_length_of_3%27_exon/file/9fcfd509bb851ae0aa.pdf'
p160
aS'https://www.facebook.com/tom.furdon'
p161
aS'https://www.facebook.com/public/Tom-Furdon'
p162
aS'http://names.whitepages.com/connecticut/thomas/furdon'
p163
aS'http://www.advancedbackgroundchecks.com/d/tom-furdon/883330942'
p164
aS'http://www.advancedbackgroundchecks.com/d/tom-furdon/15474423'
p165
aS'http://engrus.com/k/%D0%B2%D1%89%D1%83%D1%8B+20%D1%84+201997+20%D1%82%D1%88%D1%8B%D1%8B%D1%84%D1%82+20%D1%8C%D1%84%D1%87%D1%88%D1%8C%D1%84+20%D1%80%D1%84%D0%BC%D1%83+20%D1%84%D1%88%D0%BA%D0%B8%D1%84%D0%BF%D1%8B'
p166
aS'http://www.aolstalker.com/s/blood+20type+20a/0,40'
p167
aS'http://www.aolstalker.com/4965445.html'
p168
aS'http://www.2carpros.com/web_sitemap_2cp_098.xml.gz'
p169
aS'http://www.gzxb120.com/snow/automotivegz-2.xml.gz'
p170
aS'http://autos.yahoo.com/nissan/maxima/1997/gle/safety.html'
p171
aS'http://search.ebay.com/AIR-BAG-Nissan-Maxima-1997-97-1998-98-99-Driver-Side_W0QQfsiZ1'
p172
aS'http://www.partshotlines.com/parts/nissan/maxima/air-bag.html'
p173
aS'http://www.youtube.com/watch?v=bnn_MbDiZGk'
p174
aS'http://www.edmunds.com/nissan/maxima/history.html'
p175
aS'http://www.progressive.com/'
p176
aS'http://blogs.wsj.com/cio/2013/02/20/auto-insurers-bank-on-big-data-to-drive-new-business/'
p177
aS'http://www.thetoptens.com/best-auto-insurance-companies/'
p178
aS'http://www.forbes.com/sites/jimgorzelany/2012/05/11/auto-insurance-companies-with-the-most-satisfied-customers/'
p179
aS'http://www.iaai.com/liveauctioninternetbidding.aspx'
p180
aS'http://www.progressive.com/auto/'
p181
aS'http://www.progressive.com/'
p182
aS'http://www.progressive.com/online-customer-service/'
p183
aS'http://onlineservice3.progressive.com/SelfService.Web/SelfService.aspx?Page=Login.AuthenticateUser&QueryStringSetKey=SessionGateway&OfferingID=SelfService&SessionStart=TRUE'
p184
aS'http://www.progressive.com/insurance-choices/'
p185
aS'http://www.progressive.com/auto/'
p186
aS'http://www.progressive.com/'
p187
aS'http://www.progressive.com/online-customer-service/'
p188
aS'http://www.progressive.com/insurance-choices/'
p189
aS'http://www.progressive.com/claims/'
p190
aS'https://www.usaa.com/'
p191
aS'https://www.usaa.com/inet/ent_logon/Logon'
p192
aS'https://www.usaa.com/inet/pages/insurance_main_page'
p193
aS'https://www.usaa.com/inet/pages/bank_main'
p194
aS'https://www.usaa.com/inet/pages/car_buying_services_products'
p195
aS'http://www.patentim.com/all.asp?Fnumber=33&page=758'
p196
aS'http://www.patentim.com/showmessage.asp?id=28315&Fnumber=33&SunId=0'
p197
aS'http://engrus.com/k/%D1%86%D1%83%D1%84%D0%B5%D1%80%D1%83%D0%BA+20%D0%B0%D1%89%D0%BA%D1%83%D1%81%D1%84%D1%8B%D0%B5+20%D1%88%D1%82+20%D0%BA%D1%88%D1%81%D1%80%D1%8C%D1%89%D1%82%D0%B2+20%D0%BC%D1%88%D0%BA%D0%BF%D1%88%D1%82%D1%88%D1%84'
p198
aS'http://www.aolstalker.com/s/local+20news+kingstown+20virginia/'
p199
aS'http://www.trapezum.com/trapezum.com_sitemap.xml.old'
p200
aS'http://www.weather.com/weather/today/Richmond+VA+USVA0652'
p201
aS'http://www.weather.com/weather/tenday/USVA0652'
p202
aS'http://www.weather.com/weather/5-day/Richmond+VA+USVA0652:1:US'
p203
aS'http://www.weather.com/weather/tenday/23219'
p204
aS'http://www.wunderground.com/US/va/richmond.html'
p205
aS'http://www.aolstalker.com/s/local+20news+kingstown+20virginia/'
p206
aS'http://www.aolstalker.com/s/zip+20code/'
p207
aS'http://www.aolstalker.com/s/texas+20family+20code/'
p208
aS'http://www.fandango.com/regalcommonwealthcenterstadium2026imax_aaowm/theaterpage'
p209
aS'http://www.trapezum.com/trapezum.com_sitemap.xml.old'
p210
aS'http://www.zip-codes.com/city/va-richmond.asp'
p211
aS'http://www.city-data.com/zipmaps/Richmond-Virginia.html'
p212
aS'http://www.zipmap.net/Virginia/Richmond_city.htm'
p213
aS'http://www.zipmap.net/Virginia/Richmond_city/Richmond.htm'
p214
aS'http://richmondva.areaconnect.com/zip2.htm?city=Richmond&'
p215
aS'http://mistypes.net/get/?address-20for-20richmond-20international-20speedway-20virginia'
p216
aS'http://engrus.com/k/%D1%84%D0%B2%D0%B2%D0%BA%D1%83%D1%8B%D1%8B+20%D0%B0%D1%89%D0%BA+20%D0%BA%D1%88%D1%81%D1%80%D1%8C%D1%89%D1%82%D0%B2+20%D1%88%D1%82%D0%B5%D1%83%D0%BA%D1%82%D1%84%D0%B5%D1%88%D1%89%D1%82%D1%84%D0%B4+20%D1%8B%D0%B7%D1%83%D1%83%D0%B2%D1%86%D1%84%D0%BD+20%D0%BC%D1%88%D0%BA%D0%BF%D1%88%D1%82%D1%88%D1%84'
p217
aS'http://www.aolstalker.com/s/local+20news+kingstown+20virginia/'
p218
aS'http://www.aolstalker.com/s/hr+20international/'
p219
aS'http://www.aolstalker.com/4965445.html'
p220
aS'http://www.rir.com/'
p221
aS'http://www.rir.com/About-The-Track/Contact-Us.aspx'
p222
aS'http://www.richmondracewaycomplex.com/'
p223
aS'http://www.nascar.com/en_us/nationwide-series/schedule/tracks/richmond-international-raceway.html'
p224
aS'http://en.wikipedia.org/wiki/Richmond_International_Raceway'
p225
aS'http://engrus.com/k/%D1%80%D1%89%D0%B5%D1%83%D0%B4%D1%8B+20%D1%84%D0%BC%D1%84%D1%88%D0%B4%D1%84%D0%B8%D0%B4%D1%83+20%D1%88%D1%82+20%D0%BA%D1%88%D1%81%D1%80%D1%8C%D1%89%D1%82%D0%B2+20%D0%BC%D1%88%D0%BA%D0%BF%D1%88%D1%82%D1%88%D1%84'
p226
aS'http://www.aolstalker.com/s/local+20news+kingstown+20virginia/'
p227
aS'http://www.aolstalker.com/s/ww+hotels/0,3240'
p228
aS'http://www.industryintel.com/web_sitemap_002.xml'
p229
aS'http://www.alltravels.com/united-states/virginia/jessup-farm-acres/videos-347092'
p230
aS'/aclk?sa=L&ai=CmqNOzUnPUrS_ONDj6QG-1IHQBOi4n_EBqOrm_CKMx-IECAUQAVCZj5qO_P____8BYMm-qI3spLQRyAEBqgQcT9CHPMEJ3682LGIiUJGsad8xGnF7BPmlBmnVS6AGGoAH8I7mF5AHAw&sig=AOD64_35nDI39h2UFEDn1vSyLXrlTi2h8g&xparam=d%3D2014-01-19%26n%3D1&ved=0CDsQuB0&adurl=http://www.google.com/hotels/ad%3Fl%3DRichmond,%2BVirginia%26q%3Dhotels%2Bavailable%2Bin%2Brichmond%2Bvirginia%26gl%3DUS%26cu_link%3D1'
p231
aS'http://www.expedia.com/Richmond-Hotels.d601761.Travel-Guide-Hotels'
p232
aS'http://www.tripadvisor.com/Hotels-g60893-Richmond_Virginia-Hotels.html'
p233
aS'http://www.hotels.com/de1449447/hotels-richmond-virginia/'
p234
aS'http://www.kayak.com/Richmond-Hotels.30756.hotel.ksp'
p235
aS'http://www.expedia.com/'
p236
aS'http://www.expedia.com/Flights'
p237
aS'http://www.expedia.com/Hotel-Search'
p238
aS'http://www.expedia.com/Hotels'
p239
aS'http://www.expedia.com/Cars'
p240
aS'http://engrus.com/k/%D1%8B%D1%84%D1%82%D0%B2%D0%B7%D1%88%D0%B7%D1%83%D0%BA+20%D1%88%D1%82%D1%82+20%D1%89%D0%B4%D0%B2+20%D1%8B%D1%84%D0%BD%D0%B8%D0%BA%D1%89%D1%89%D0%BB+20%D1%81%D0%B5'
p241
aS'http://www.aolstalker.com/s/red+20roof+20inn/'
p242
aS'http://www.aolstalker.com/s/sandpiper.com/'
p243
aS'http://ikiovohmintseva.pochta.ru/13.html'
p244
aS'http://www.tripadvisor.com/Hotel_Review-g33878-d119858-Reviews-Econo_Lodge_Inn_Suites_Old_Saybrook-Old_Saybrook_Connecticut.html'
p245
aS'http://www.yelp.com/biz/sandpiper-motor-inn-old-saybrook'
p246
aS'http://www.yelp.com/biz/econo-lodge-inn-and-suites-old-saybrook'
p247
aS'http://www.econolodge.com/hotel-old_saybrook-connecticut-CT053'
p248
aS'http://travel.yahoo.com/p-hotel-386501-econo_lodge_inn_and_suites_old_saybrook-i'
p249
aS'http://www.simplyhired.com/salaries-k-gillette-20stadium-20sports-jobs.html'
p250
aS'http://www.wordnik.com/words/Gillette%2520Stadium'
p251
aS'http://www.jigsawplanet.com/?rc=embedpuzzle&pid=2a91981b0285'
p252
aS'http://www.jigsawplanet.com/?rc=emailpuzzle&pid=2a91981b0285'
p253
aS'http://s136.photobucket.com/user/larryF1313/library/Gillette%20Stadium'
p254
aS'http://www.gillettestadium.com/'
p255
aS'http://en.wikipedia.org/wiki/Gillette_Stadium'
p256
aS'http://www.patriots.com/gillette-stadium/'
p257
aS'http://espn.go.com/travel/stadium/_/s/nfl/id/17/gillette-stadium'
p258
aS'http://www.ticketmaster.com/Gillette-Stadium-tickets-Foxborough/venue/8759'
p259
as.