ccollections
defaultdict
p1
(c__builtin__
list
p2
tRp3
S'3042199'
p4
(lp5
S'http://www.youtube.com/watch?v=HFepIN0bQAM'
p6
aS'http://www.youtube.com/watch?v=LaEoHgBq1O0'
p7
aS'http://www.youtube.com/watch?v=42OLjr_6b5c'
p8
aS'http://www.youtube.com/watch?v=G86KHv2sBzI'
p9
aS'http://r-ww-r.net/'
p10
aS'http://disneychannel.disney.com/'
p11
aS'http://disneychannel.disney.com/games'
p12
aS'http://disneychannel.disney.com/the-suite-life-on-deck'
p13
aS'http://disneychannel.disney.com/teen-beach-movie'
p14
aS'http://disneychannel.disney.com/shows'
p15
aS'http://disneychannel.disney.com/'
p16
aS'http://disneychannel.disney.com/games'
p17
aS'http://games.disney.com/disneychannel-gravity-falls-mystery-shack-mystery'
p18
aS'http://disneychannel.disney.com/the-suite-life-on-deck'
p19
aS'http://disneychannel.disney.com/shows'
p20
aS'http://disneychannel.disney.com/high-school-musical'
p21
aS'http://www.imdb.com/title/tt0475293/'
p22
aS'http://en.wikipedia.org/wiki/High_School_Musical'
p23
aS'http://en.wikipedia.org/wiki/High_School_Musical_%28film_series%29'
p24
aS'http://www.amazon.com/High-School-Musical-Encore-Edition/dp/B000F2BNW2'
p25
aS'http://www.sonicgames.com/'
p26
aS'http://armorgames.com/play/278/sonic-the-hedgehog'
p27
aS'http://www.sonicgames.cc/'
p28
aS'http://www.gamesgames.com/games/sonic-games'
p29
aS'http://www.gamesgames.com/games/sonic-games/sonic-games.html'
p30
aS'http://www.sonicgames.com/'
p31
aS'http://www.gamesgames.com/games/sonic-games/sonic-games.html'
p32
aS'http://www.gamesgames.com/games/sonic-games'
p33
aS'http://armorgames.com/play/278/sonic-the-hedgehog'
p34
aS'http://www.agame.com/games/sonic_games'
p35
aS'https://www.gnu.org/software/screen/'
p36
aS'http://en.wikipedia.org/wiki/GNU_Screen'
p37
aS'http://www.screenmag.com/'
p38
aS'http://screen.oxfordjournals.org/'
p39
aS'http://www.thefreedictionary.com/screen'
p40
aS'http://www.youtube.com/watch?v=Zg7vUHk0_5g'
p41
aS'http://www.youtube.com/watch?v=Ox1nJR18PPA'
p42
aS'http://www.youtube.com/watch?v=kwVcd-hYN4M'
p43
aS'http://www.eyemagic.net/'
p44
aS'http://www.eyeliftcenter.com/laser-eye-lift/'
p45
aS'https://www.google.com/flights/gwsredirect?q=cheap+airfare&biw=975&bih=440&source=flun&uitype=2744&flights_from_airport=NYC&flights_from_date=2014-01-26&flights_to_date=2014-01-30&inferred_orig=1&personalized_destinations=0&date_annotated_query=0&sa=X&ei=LkrPUrvCG6axsQSLzoGwDA&ved=0CD4QuRU'
p46
aS'http://www.kayak.com/'
p47
aS'http://www.cheapair.com/'
p48
aS'http://www.airfarewatchdog.com/'
p49
aS'http://www.orbitz.com/flights/'
p50
aS'http://www.gamefaqs.com/gba/921183-fire-emblem-the-sacred-stones/cheats'
p51
aS'http://www.neoseeker.com/Games/cheats/GBA/fire_emblem_sacred_stones.html'
p52
aS'http://www.ign.com/cheats/games/fire-emblem-the-sacred-stones-gba-666790'
p53
aS'http://www.cheathappens.com/10869-Game_Boy_Advance-Fire_Emblem_The_Sacred_Stones_cheats'
p54
aS'http://www.gamesradar.com/fire-emblem-sacred-stones/cheats/'
p55
aS'http://www.gamefaqs.com/gba/921183-fire-emblem-the-sacred-stones/cheats'
p56
aS'http://www.neoseeker.com/Games/cheats/GBA/fire_emblem_sacred_stones.html'
p57
aS'http://www.ign.com/cheats/games/fire-emblem-the-sacred-stones-gba-666790'
p58
aS'http://www.cheathappens.com/10869-Game_Boy_Advance-Fire_Emblem_The_Sacred_Stones_cheats'
p59
aS'http://www.gamesradar.com/fire-emblem-sacred-stones/cheats/'
p60
aS'http://www.thelegendofdragoon.net/'
p61
aS'http://en.wikipedia.org/wiki/The_Legend_of_Dragoon'
p62
aS'http://www.gamefaqs.com/ps/197765-the-legend-of-dragoon/faqs'
p63
aS'/search?q=legend+of+dragoon&biw=975&bih=440&tbm=isch&tbo=u&source=univ&sa=X&ei=Q0rPUoSGCqzNsQT6iIGYDA&ved=0CEEQsAQ'
p64
aS'http://legendofdragoon.wikia.com/'
p65
aS'http://finalfantasy.wikia.com/wiki/Final_Fantasy_IX'
p66
aS'/search?q=final+fantasy+9&biw=975&bih=440&tbm=isch&tbo=u&source=univ&sa=X&ei=SUrPUvLEIujJsASZtIHoCw&ved=0CDQQsAQ'
p67
aS'http://en.wikipedia.org/wiki/Final_Fantasy_IX'
p68
aS'http://www.gamefaqs.com/ps/197338-final-fantasy-ix'
p69
aS'http://www.amazon.com/Final-Fantasy-IX-Playstation-2/dp/B00004Y57G'
p70
aS'http://www.ffextreme.com/'
p71
aS'http://www.ffextreme.com/ff9.html'
p72
aS'http://www.ffextreme.com/downloads/music.html'
p73
aS'http://www.ffextreme.com/ff7.html'
p74
aS'http://www.ffextreme.com/ff10.html'
p75
aS'/search?q=final+fantasy+4+wallpapers&biw=975&bih=440&tbm=isch&tbo=u&source=univ&sa=X&ei=VkrPUtPUEtS0sQS9u4DwCw&ved=0CCwQsAQ'
p76
aS'http://fantasyanime.com/finalfantasy/ff4/ff4wallpapers.htm'
p77
aS'http://finalfantasy.wikia.com/wiki/Final_Fantasy_IV_Wallpapers'
p78
aS'http://finalfantasy.wikia.com/wiki/Final_Fantasy:_The_4_Heroes_of_Light_Wallpapers'
p79
aS'http://www.ff-finalfantasy.com/ffiv-wallpapers.html'
p80
aS'/search?q=final+fantasy+4+wallpapers&biw=975&bih=440&tbm=isch&tbo=u&source=univ&sa=X&ei=XUrPUpaOAcXNsQS_4YH4Cw&ved=0CCkQsAQ'
p81
aS'http://fantasyanime.com/finalfantasy/ff4/ff4wallpapers.htm'
p82
aS'http://finalfantasy.wikia.com/wiki/Final_Fantasy_IV_Wallpapers'
p83
aS'http://finalfantasy.wikia.com/wiki/Final_Fantasy:_The_4_Heroes_of_Light_Wallpapers'
p84
aS'http://www.ff-finalfantasy.com/ffiv-wallpapers.html'
p85
aS'/search?q=cecil+from+ff4+wallpapers&biw=975&bih=440&tbm=isch&tbo=u&source=univ&sa=X&ei=Y0rPUvTRK9WzsQTMvIGADA&ved=0CCkQsAQ'
p86
aS'http://www.ff-finalfantasy.com/ffiv-wallpapers.html'
p87
aS'http://www.ff-finalfantasy.com/ffiv-official-wallpaper24-1024x768.html'
p88
aS'http://finalfantasy.wikia.com/wiki/Cecil_Harvey'
p89
aS'http://theotaku.com/wallpapers/category/final_fantasy_iv/'
p90
aS'http://en.wikipedia.org/wiki/Golf'
p91
aS'http://en.wikipedia.org/wiki/History_of_golf'
p92
aS'http://answers.yahoo.com/question/?qid=20080329000250AAHXKbW'
p93
aS'http://www.ask.com/question/in-what-country-was-the-game-of-golf-invented'
p94
aS'http://golf.about.com/cs/historyofgolf/a/hist_golfbegin.htm'
p95
aS'http://www.golf.com/'
p96
aS'/search?q=golf&biw=975&bih=440&source=univ&tbm=nws&tbo=u&sa=X&ei=cErPUpG3H7XJsQTG9IDwCw&ved=0CIwBEKgC'
p97
aS'http://en.wikipedia.org/wiki/Golf'
p98
aS'http://www.golfchannel.com/'
p99
aS'http://windsorgreensgolfcenter.com/'
p100
aS'http://www.google.com/'
p101
aS'http://www.google.com/earth/explore/showcase/ocean.html'
p102
aS'http://www.google.com/analytics/'
p103
aS'http://www.thegooglepuzzle.com/'
p104
aS'/search?q=google&biw=975&bih=440&source=univ&tbm=nws&tbo=u&sa=X&ei=dkrPUtTTJa3NsQTV3YGwDA&ved=0CEEQqAI'
p105
aS'http://www.ask.com/'
p106
aS'http://www.ask.com/question/'
p107
aS'http://blog.ask.com/'
p108
aS'http://en.wikipedia.org/wiki/Ask.com'
p109
aS'http://www.askjeeves.com/webtvmirror/index.asp'
p110
aS'http://en.wikipedia.org/wiki/Origins_of_Asian_martial_arts'
p111
aS'http://en.wikipedia.org/wiki/Karate'
p112
aS'http://www.youtube.com/watch?v=sbWuk5AjHhg'
p113
aS'http://www.kung-fu-fitness-and-defence.com/kung-fu-shaolin-martial-arts.html'
p114
aS'http://answers.yahoo.com/question/index?qid=20120113171313AAcxUGC'
p115
aS'http://en.wikipedia.org/wiki/Origins_of_Asian_martial_arts'
p116
aS'http://engrus.com/k/%D1%86%D1%86%D1%86%D1%8E%D0%B5%D1%80%D1%83+%D0%B8%D1%88%D0%BA%D0%B5%D1%80%D0%B7%D0%B4%D1%84%D1%81%D1%83%D1%89%D0%B0%D1%8C%D1%84%D0%BA%D0%B5%D1%88%D1%84%D0%B4%D1%84%D0%BA%D0%B5%D1%8B%D1%8E%D1%81%D1%89%D1%8C'
p117
aS'http://www.swissinfo.ch/eng/culture/Martial_arts_brought_us_together_.html?cid=37146176'
p118
aS'http://www.themuslimtimes.org/2013/10/countries/china/kung-fu-instructors-martial-arts-brought-us-together'
p119
aS'http://www.youtube.com/watch?v=sbWuk5AjHhg'
p120
aS'http://en.wikipedia.org/wiki/Karate'
p121
aS'http://en.wikipedia.org/wiki/Template_talk:Martial_arts_by_country_of_origin'
p122
aS'http://en.wikipedia.org/wiki/Martial_arts'
p123
aS'http://en.wikipedia.org/wiki/Origins_of_Asian_martial_arts'
p124
aS'http://www.ask.com/question/what-country-did-karate-originate-from'
p125
aS'http://en.wikipedia.org/wiki/Athletics_%28sport%29'
p126
aS'http://en.wikipedia.org/wiki/Track_and_field'
p127
aS'http://en.wikipedia.org/wiki/Polo'
p128
aS'http://en.wikipedia.org/wiki/Olympic_Games'
p129
aS'http://en.wikipedia.org/wiki/Ancient_Olympic_Games'
p130
aS'http://en.wikipedia.org/wiki/Athletics_%28sport%29'
p131
aS'http://en.wikipedia.org/wiki/Track_and_field'
p132
aS'http://en.wikipedia.org/wiki/Polo'
p133
aS'http://en.wikipedia.org/wiki/Olympic_Games'
p134
aS'http://en.wikipedia.org/wiki/Ancient_Olympic_Games'
p135
aS'http://en.wikipedia.org/wiki/Kirkpatrick_Macmillan'
p136
aS'http://en.wikipedia.org/wiki/Mountain_biking'
p137
aS'http://en.wikipedia.org/wiki/Gary_Fisher'
p138
aS'http://thebikeshow.net/to-coventry-birthplace-of-the-bicycle/'
p139
aS'http://www.bbc.co.uk/history/historic_figures/macmillan_kirkpatrick.shtml'
p140
aS'http://en.wikipedia.org/wiki/Bicycle'
p141
aS'http://en.wikipedia.org/wiki/History_of_the_bicycle'
p142
aS'http://en.wikipedia.org/wiki/Bicycle_helmet'
p143
aS'http://en.wikipedia.org/wiki/Kirkpatrick_Macmillan'
p144
aS'http://inventors.about.com/od/bstartinventions/a/History-Of-The-Bicycle.htm'
p145
aS'http://en.wikipedia.org/wiki/Karate'
p146
aS'http://en.wikipedia.org/wiki/Martial_arts'
p147
aS'http://en.wikipedia.org/wiki/Template_talk:Martial_arts_by_country_of_origin'
p148
aS'http://ymaa.com/articles/history/history-chinese-martial-arts'
p149
aS'http://answers.yahoo.com/question/index?qid=20110323224314AAEm04q'
p150
aS'http://en.wikipedia.org/wiki/Olympic_Games'
p151
aS'http://en.wikipedia.org/wiki/Ancient_Olympic_Games'
p152
aS'http://en.wikipedia.org/wiki/Russell_Athletic_%28brand%29'
p153
aS'http://en.wikipedia.org/wiki/1936_Summer_Olympics'
p154
aS'http://news.sky.com/story/1130071/russia-anti-gay-row-invented-by-western-media'
p155
aS'http://en.wikipedia.org/wiki/Olympic_Games'
p156
aS'http://en.wikipedia.org/wiki/Ancient_Olympic_Games'
p157
aS'http://en.wikipedia.org/wiki/Russell_Athletic_%28brand%29'
p158
aS'http://en.wikipedia.org/wiki/1936_Summer_Olympics'
p159
aS'http://news.sky.com/story/1130071/russia-anti-gay-row-invented-by-western-media'
p160
aS'http://windows.microsoft.com/en-us/windows-vista/block-or-allow-cookies'
p161
aS'http://www.timeanddate.com/custom/cookiesie.html'
p162
aS'http://support.secureaccess.wa.gov/saw_user/tw67.shtml'
p163
aS'http://www.wikihow.com/Enable-Cookies-in-Microsoft-Internet-Explorer'
p164
aS'http://www.wikihow.com/Enable-Cookies-in-Your-Internet-Web-Browser'
p165
aS'http://www.ign.com/cheats/games/kingdom-hearts-ii-ps2-550308'
p166
aS'http://www.cheatcc.com/psx2/kingdomhearts2cheatscodes.html'
p167
aS'http://www.gamesradar.com/kingdom-hearts-ii/cheats/'
p168
aS'http://www.neoseeker.com/Games/cheats/PS2/kingdom_hearts2.html'
p169
aS'http://www.gamefaqs.com/ps2/915410-kingdom-hearts-ii/cheats'
p170
aS'http://www.ign.com/cheats/games/kingdom-hearts-ii-ps2-550308'
p171
aS'http://www.cheatcc.com/psx2/kingdomhearts2cheatscodes.html'
p172
aS'http://www.gamesradar.com/kingdom-hearts-ii/cheats/'
p173
aS'http://www.neoseeker.com/Games/cheats/PS2/kingdom_hearts2.html'
p174
aS'http://www.gamefaqs.com/ps2/915410-kingdom-hearts-ii/cheats'
p175
aS'http://www.gamesradar.com/cheats/'
p176
aS'http://www.gamesradar.com/ps3/cheats/'
p177
aS'http://www.gamesradar.com/ps2/cheats/'
p178
aS'http://www.gamesradar.com/xbox-360/cheats/'
p179
aS'http://www.gamesradar.com/xbox-360/'
p180
aS'http://www.gamesradar.com/cheats/'
p181
aS'http://www.gamesradar.com/ps3/cheats/'
p182
aS'http://www.gamesradar.com/ps2/cheats/'
p183
aS'http://www.gamesradar.com/xbox-360/cheats/'
p184
aS'http://www.gamesradar.com/xbox-360/'
p185
aS'http://cheatcodes.com/'
p186
aS'http://cheatcodes.com/xbox-360/'
p187
aS'http://cheatcodes.com/psp/'
p188
aS'http://cheatcodes.com/ps3/'
p189
aS'http://cheatcodes.com/wii/'
p190
aS'/search?q=wallpaper+for+kingdom+heart&biw=975&bih=440&tbm=isch&tbo=u&source=univ&sa=X&ei=8ErPUoPzB7OgsATb3IDgCw&ved=0CCkQsAQ'
p191
aS'http://www.theotaku.com/wallpapers/category/kingdom_hearts/'
p192
aS'http://hdw.eweb4.com/search/kingdom+hearts/'
p193
aS'http://hdw.eweb4.com/search/kingdom+hearts+1920x1080/'
p194
aS'http://wall.alphacoders.com/by_sub_category.php?id=169896'
p195
aS'/search?q=wallpaper+for+kingdom+heart2&biw=975&bih=440&tbm=isch&tbo=u&source=univ&sa=X&ei=9krPUuT0LOjIsATasYLYCw&ved=0CCwQsAQ'
p196
aS'http://hdw.eweb4.com/search/kingdom+hearts/'
p197
aS'http://hdw.eweb4.com/search/kingdom+hearts+1920x1080/'
p198
aS'http://www.theotaku.com/wallpapers/category/kingdom_hearts/'
p199
aS'https://play.google.com/store/apps/details?id=hddroid.king&hl=en'
p200
aS'/search?q=wallpaper+for+kingdom+heart+2&biw=975&bih=440&tbm=isch&tbo=u&source=univ&sa=X&ei=_UrPUriNHorJsQSh04CADA&ved=0CCkQsAQ'
p201
aS'http://hdw.eweb4.com/search/kingdom+hearts/'
p202
aS'http://hdw.eweb4.com/search/kingdom+hearts+1920x1080/'
p203
aS'http://www.theotaku.com/wallpapers/category/kingdom_hearts/'
p204
aS'http://wall.alphacoders.com/by_sub_category.php?id=169896'
p205
aS'http://kingdomhearts.wikia.com/wiki/Magic'
p206
aS'http://www.finalfantasykingdom.net/kh2magic.php'
p207
aS'http://www.ign.com/faqs/2004/kingdom-hearts-magic-faq-492625'
p208
aS'http://www.gamesradar.com/kingdom-hearts-ii/cheats/'
p209
aS'http://www.uffsite.net/kh/magic.php'
p210
aS'http://www.cheatcc.com/psx2/ff10.html'
p211
aS'http://www.gamefaqs.com/ps2/197344-final-fantasy-x/cheats'
p212
aS'http://www.ign.com/cheats/games/final-fantasy-x-ps2-14008'
p213
aS'http://www.gamesradar.com/final-fantasy-x/cheats/'
p214
aS'http://www.neoseeker.com/Games/cheats/PS2/finalfantasyx.html'
p215
aS'http://www.cheatcc.com/psx2/ff10.html'
p216
aS'http://www.gamefaqs.com/ps2/197344-final-fantasy-x/cheats'
p217
aS'http://www.ign.com/cheats/games/final-fantasy-x-ps2-14008'
p218
aS'http://www.gamesradar.com/final-fantasy-x/cheats/'
p219
aS'http://www.neoseeker.com/Games/cheats/PS2/finalfantasyx.html'
p220
aS'http://www.ign.com/cheats/games/devil-may-cry-3-dantes-awakening-ps2-771533'
p221
aS'http://www.cheatcc.com/psx2/dmc3.html'
p222
aS'http://www.gamesradar.com/devil-may-cry-3/cheats/'
p223
aS'http://www.gamefaqs.com/ps2/920607-devil-may-cry-3-dantes-awakening/cheats'
p224
aS'http://www.gamefaqs.com/ps2/930014-devil-may-cry-3-special-edition/cheats'
p225
aS'http://www.cheatcc.com/psx2/dmc3.html'
p226
aS'http://www.ign.com/cheats/games/devil-may-cry-3-dantes-awakening-ps2-771533'
p227
aS'http://www.ign.com/cheats/games/devil-may-cry-3-dantes-awakening-ps2-640426'
p228
aS'http://www.gamesradar.com/devil-may-cry-3/cheats/'
p229
aS'http://www.gamefaqs.com/ps2/920607-devil-may-cry-3-dantes-awakening/cheats'
p230
aS'http://www.ign.com/cheats/games/super-mario-land-gb-8816'
p231
aS'http://www.gamefaqs.com/gameboy/585933-super-mario-land/cheats'
p232
aS'http://www.gamewinners.com/game_boy/SuperMarioLand.htm'
p233
aS'http://www.gamesradar.com/super-mario-land/cheats/'
p234
aS'http://www.supercheats.com/gameboy/supermarioland.htm'
p235
aS'http://www.runescape.com/'
p236
aS'http://www.runescape.com/community'
p237
aS'http://www.runescape.com/game.ws?j=1'
p238
aS'http://oldschool.runescape.com/'
p239
aS'http://www.runescape.com/game.ws'
p240
aS'http://www.ebay.com/sch/Final-Fantasy-/88923/i.html'
p241
aS'http://www.ebay.com/bhp/triple-triad'
p242
aS'http://www.escapistmagazine.com/news/view/100710-Man-Goes-Overboard-With-Final-Fantasy-Collectible-Sale'
p243
aS'http://www.ff7citadel.com/gameinfo/info_goods.shtml'
p244
aS'http://www.gameinformer.com/b/news/archive/2010/07/21/rare-final-fantasy-orb-on-ebay-for-250-000.aspx'
p245
aS'http://stannard.biz/blog/4000-year-old-wild-indian-cactus-extract-fights-cravings-slims-waists/index.html?n=25&id=24047'
p246
aS'http://gwbb.biz/info.html?n=25&id=3879'
p247
aS'http://giancario.biz/index.html?n=25&id=185089'
p248
aS'http://www.foodvancouver.com/article.php?article=maria-thomas-urban-nutrition'
p249
aS'http://www.handary.com/download/product/2000038_100115.pdf'
p250
aS'/search?q=n+v+rapid+weight+loss&biw=975&bih=440&source=univ&tbm=shop&tbo=u&sa=X&ei=QEvPUrzjFqizsQTXh4H4Cw&ved=0CCkQsxg'
p251
aS'http://www.amazon.com/NxCare-Desired-Weight-Caplets-60-Count/product-reviews/B000G33VMU'
p252
aS'http://www.walgreens.com/store/c/nv-clinical-rapid-weight-loss-dietary-supplement-caplets/ID=prod6089106-product'
p253
aS'http://www.walmart.com/ip/NV-Dietary-Supplement-Caplets-60ct/19407695'
p254
aS'http://www.evitamins.com/nv-rapid-weight-loss-beau-nv-inc-6373'
p255
aS'http://www.amazon.com/NxCare-Desired-Weight-Caplets-60-Count/product-reviews/B000G33VMU'
p256
aS'http://www.walgreens.com/store/c/nv-clinical-rapid-weight-loss-dietary-supplement-caplets/ID=prod6089106-product'
p257
aS'http://www.walmart.com/ip/NV-Dietary-Supplement-Caplets-60ct/19407695'
p258
aS'http://www.evitamins.com/nv-rapid-weight-loss-beau-nv-inc-6373'
p259
aS'https://www.nvclinical.com/'
p260
aS'http://www.phonedog.com/long-distance/'
p261
aS'http://www.att.com/gen/landing-pages?pid=10933'
p262
aS'http://saveonphone.com/'
p263
aS'http://www.consumersearch.com/long-distance-service'
p264
aS'http://www.dailyfinance.com/2011/04/21/savings-experiment-cheap-long-distance/'
p265
aS'http://www.square-enix.co.jp/dvd/ff7ac/'
p266
aS'http://en.wikipedia.org/wiki/Final_Fantasy_VII:_Advent_Children'
p267
aS'http://www.imdb.com/title/tt0385700/'
p268
aS'http://www.youtube.com/watch?v=l_4ZXgOZuhs'
p269
aS'http://finalfantasy.wikia.com/wiki/Final_Fantasy_VII:_Advent_Children'
p270
aS'http://www.cheatcc.com/psx2/kingdomhearts2cheatscodes.html'
p271
aS'http://www.ign.com/cheats/games/kingdom-hearts-ii-ps2-550308'
p272
aS'http://www.gamesradar.com/kingdom-hearts-ii/cheats/'
p273
aS'http://en.wikipedia.org/wiki/Yuffie_Kisaragi'
p274
aS'http://en.wikipedia.org/wiki/Sephiroth_%28Final_Fantasy%29'
p275
aS'http://www.yellowpages.com/toledo-oh/tanning-salons'
p276
aS'http://www.tanlinessalon.com/'
p277
aS'http://www.sungoddesstoledo.com/'
p278
aS'http://www.sungoddesstoledo.com/'
p279
aS'http://www.cbtan.com/'
p280
aS'http://mystictan.com/'
p281
aS'http://mystictan.com/takehomeproducts'
p282
aS'http://mystictan.com/themystichdexperience'
p283
aS'/search?q=mystic+tan&biw=975&bih=440&tbm=isch&tbo=u&source=univ&sa=X&ei=aEvPUufcEYujsQSPtYHgDA&ved=0CD8QsAQ'
p284
aS'http://www.youtube.com/watch?v=xQFDCtbfN2I'
p285
aS'/search?q=airbrush+tanning&biw=975&bih=440&tbm=isch&tbo=u&source=univ&sa=X&ei=bkvPUputJOHLsAS2uYHADw&ved=0CCwQsAQ'
p286
aS'http://www.yelp.com/biz/bronzed-airbrush-tanning-philadelphia-3'
p287
aS'http://www.airbrush-tanning.us/'
p288
aS'http://www.arubatan.com/consumers/c_faq3.html'
p289
aS'http://www.sunkissedairbrushtanning.com/'
p290
aS'http://www.att.com/shop/wireless/gophone.html'
p291
aS'http://www.att.com/shop/wireless/devices/prepaidphones.html'
p292
aS'http://www.att.com/shop/wireless/plans/prepaidplans.html'
p293
aS'http://www.att.com/shop/wireless/packages/prepaid-packages.html'
p294
aS'http://www.att.com/esupport/main.jsp?cv=821'
p295
aS'/search?q=ultimate+90&biw=975&bih=440&source=univ&tbm=shop&tbo=u&sa=X&ei=e0vPUofxDqrjsATHnYHIDA&ved=0CCkQsxg'
p296
aS'http://www.allmusic.com/album/never-forget-the-ultimate-90s-collection-mw0001181563'
p297
aS'/search?q=ultimate+90&biw=975&bih=440&tbm=isch&tbo=u&source=univ&sa=X&ei=e0vPUofxDqrjsATHnYHIDA&ved=0CE8QsAQ'
p298
aS'http://www.youtube.com/watch?v=7bCkFdGe9pg'
p299
aS'http://www.amazon.com/Ultimate-Hits-90s/dp/B00005R1PE'
p300
aS'https://www.luminesstan.com/'
p301
aS'http://www.ebay.com/bhp/airbrush-tanning-system'
p302
aS'http://www.amazon.com/EComventures-Personal-Airbrush-Tanning-System/dp/B00AAI5EXK'
p303
aS'http://www.luminessair.com/store/ATI_ViewProduct.aspx?CategoryId=18'
p304
aS'http://www.infinitysun.com/'
p305
aS'/search?q=acne+light+therapy&biw=975&bih=440&source=univ&tbm=shop&tbo=u&sa=X&ei=iEvPUpPhBpbIsAS_-IL4Cw&ved=0CDMQsxg'
p306
aS'http://www.acne.org/light-acne.html'
p307
aS'http://www.amazon.com/BlueMD-Acne-Light-Therapy-Treatment/dp/B001QKHT34'
p308
aS'http://www.triabeauty.com/skin-perfecting-blue-light'
p309
aS'http://www.sephora.com/tanda'
p310
aS'http://en.wikipedia.org/wiki/National_City_Corp.'
p311
aS'http://www.pnc.com/'
p312
aS'http://www.city-data.com/locations/NationalCityBank/Philadelphia-Pennsylvania.html'
p313
aS'https://www.citynatbank.com/'
p314
aS'http://web.sa.mapquest.com/nationalcity/'
p315
aS'http://www.yellowpages.com/toledo-oh/tanning-salons'
p316
aS'http://www.tanlinessalon.com/'
p317
aS'https://www.facebook.com/cbtanning'
p318
aS'http://www.citytanusa.com/'
p319
aS'http://www.angieslist.com/companylist/us/oh/toledo/tanning-salons.htm'
p320
aS'http://www.yellowpages.com/'
p321
aS'http://www.yellowpages.com/west-windsor-nj/kinkos'
p322
aS'http://www.yellowpages.com/whitepages'
p323
aS'http://www.yellow.com/'
p324
aS'/search?q=yellow+pages&biw=975&bih=440&source=univ&tbm=nws&tbo=u&sa=X&ei=m0vPUqvFBO7KsQSA2IKYDQ&ved=0CEwQqAI'
p325
aS'http://www.redbanknj.org/content/public-utilities.html'
p326
aS'http://www.manchestertwp.com/departments/public-works-and-utilities/'
p327
aS'http://www.ct.gov/pura/'
p328
aS'http://www.mass.gov/eea/grants-and-tech-assistance/guidance-technical-assistance/agencies-and-divisions/dpu/'
p329
aS'http://www.state.nj.us/bpu/'
p330
aS'http://www.ci.toledo.oh.us/'
p331
aS'http://toledo.oh.gov/services/public-utilities/'
p332
aS'http://toledo.oh.gov/'
p333
aS'https://www.doxo.com/info/city-toledo-oh'
p334
aS'http://www.yellowpages.com/toledo-oh/mip/toledo-dept-pubc-utilities-adm-457840547'
p335
aS'http://www.ci.toledo.oh.us/'
p336
aS'http://toledo.oh.gov/services/public-utilities/'
p337
aS'http://toledo.oh.gov/'
p338
aS'https://www.doxo.com/info/city-toledo-oh'
p339
aS'http://www.yellowpages.com/toledo-oh/mip/toledo-dept-pubc-utilities-adm-457840547'
p340
aS'http://toledo.oh.gov/services/public-utilities/'
p341
aS'http://toledo.oh.gov/'
p342
aS'https://www.doxo.com/info/city-toledo-oh'
p343
aS'https://ipn.paymentus.com/otp/stde/cotl'
p344
aS'http://www.northwestohio.com/news/story.aspx?id=704126'
p345
aS'http://www.seattle.gov/util/MyServices/MyAccount/Payment_Options/Walk-inPaymentLocations/index.htm'
p346
aS'https://www.seattle.gov/html/citizen/utility.htm'
p347
aS'http://www.seattle.gov/util/'
p348
aS'http://www.seattle.gov/utIl/MyServices/MyAccount/Payment_Options/index.htm'
p349
aS'http://www.riversideca.gov/utilities/services/'
p350
aS'http://toledo.oh.gov/services/public-utilities/'
p351
aS'http://toledo.oh.gov/'
p352
aS'http://toledo.oh.gov/services/public-utilities/customer-service/'
p353
aS'http://www.ci.toledo.oh.us/'
p354
aS'https://www.doxo.com/info/city-toledo-oh'
p355
aS'http://www.ci.toledo.oh.us/'
p356
aS'http://toledo.oh.gov/services/public-utilities/'
p357
aS'http://toledo.oh.gov/'
p358
aS'https://www.doxo.com/info/city-toledo-oh'
p359
aS'http://www.yellowpages.com/toledo-oh/mip/toledo-dept-pubc-utilities-adm-457840547'
p360
aS'http://www.square-enix.com/'
p361
aS'http://na.square-enix.com/'
p362
aS'http://support.na.square-enix.com/'
p363
aS'http://www.square-enix.com/na/account/'
p364
aS'http://www.jp.square-enix.com/'
p365
aS'http://www.avon.com/'
p366
aS'http://shop.avon.com/'
p367
aS'/search?q=avon&biw=975&bih=440&source=univ&tbm=nws&tbo=u&sa=X&ei=2EvPUopAi6GxBM_5gLgO&ved=0CEUQqAI'
p368
aS'http://www.avongov.org/'
p369
aS'http://www.avon.com/'
p370
aS'http://www.webmd.com/baby/guide/understanding-conception'
p371
aS'http://en.wikipedia.org/wiki/Conception'
p372
aS'http://www.thefreedictionary.com/conception'
p373
aS'http://www.youtube.com/watch?v=BFrVmDgh4v4'
p374
aS'http://www.imdb.com/title/tt1619277/'
p375
aS'http://en.wikipedia.org/wiki/Mifepristone'
p376
aS'http://www.prochoice.org/about_abortion/facts/facts_mifepristone.html'
p377
aS'http://www.rxlist.com/mifeprex-ru486-side-effects-drug-center.htm'
p378
aS'http://www.ru486facts.org/'
p379
aS'http://contraception.about.com/od/unplannedpregnancy/g/RU486.htm'
p380
aS'http://www.plannedparenthood.org/health-topics/abortion-4260.asp'
p381
aS'http://r.ppfa.org/hc?f=2343&a=90960'
p382
aS'http://www.plannedparenthood.org/mercer/'
p383
aS'http://r.ppfa.org/hc?f=2600&a=90900'
p384
aS'http://en.wikipedia.org/wiki/Abortion'
p385
aS'http://en.wikipedia.org/wiki/Gardnerella_vaginalis'
p386
aS'http://www.healthcentral.com/encyclopedia/408/435.html'
p387
aS'http://www.drugs.com/health-guide/bacterial-vaginosis-gardnerella-vaginitis.html'
p388
aS'http://www.csun.edu/shc/pdfs/education/bacterial_vaginosis.pdf'
p389
aS'http://www.womenshealthmag.com/health/conditions/testing-for-vaginitis-yeast-infections-trichomonas-and-gardnerella'
p390
aS'/search?q=metronidazole+no+prescription+needed&biw=975&bih=440&source=univ&tbm=shop&tbo=u&sa=X&ei=90vPUouHDtPMsQStxYCADA&ved=0CCkQsxg'
p391
aS'http://www.promptpillstore.org/flagyl-overnight-delivery.html'
p392
aS'http://nature.gardenweb.com/forums/load/test/msg0500522632189.html'
p393
aS'http://metronidazoleab.webs.com/'
p394
aS'http://www.eoibcnvh.cat/calendari-escolar'
p395
as.