ccollections
defaultdict
p1
(c__builtin__
list
p2
tRp3
S'22798935'
p4
(lp5
S'/search?q=australia+pictures&biw=975&bih=440&tbm=isch&tbo=u&source=univ&sa=X&ei=hSbPUvfvFKe0sATi0oG4DA&ved=0CCkQsAQ'
p6
aS'http://travel.nationalgeographic.com/travel/countries/australia-photos/'
p7
aS'http://travel.nationalgeographic.com/travel/countries/your-australia-photos/'
p8
aS'http://www.tripadvisor.com/LocationPhotos-g255055-Australia.html'
p9
aS'http://www.nla.gov.au/what-we-collect/pictures'
p10
aS'/search?q=belgium+pictures&biw=975&bih=440&tbm=isch&tbo=u&source=univ&sa=X&ei=iybPUsWUIrTOsASEhYG4DA&ved=0CCkQsAQ'
p11
aS'http://www.tripadvisor.com/LocationPhotos-g188634-Belgium.html'
p12
aS'http://www.tripadvisor.com/LocationPhotos-g188634-w2-Belgium.html'
p13
aS'http://www.tripadvisor.com/LocationPhotos-g188634-w3-Belgium.html'
p14
aS'http://www.studentsoftheworld.info/infopays/photos/pic.php?CP=BEL'
p15
aS'/search?q=costa+rica+pictures&biw=975&bih=440&tbm=isch&tbo=u&source=univ&sa=X&ei=kSbPUrj1Nqy2sAS7kIH4Cw&ved=0CCkQsAQ'
p16
aS'http://travel.nationalgeographic.com/travel/countries/costa-rica-photos/'
p17
aS'http://www.costaricaphotos.com/'
p18
aS'http://www.tripadvisor.com/LocationPhotos-g291982-Costa_Rica.html'
p19
aS'http://www.tripadvisor.com/LocationPhotos-g291982-w2-Costa_Rica.html'
p20
aS'/search?q=dominican+republic+pictures&biw=975&bih=440&tbm=isch&tbo=u&source=univ&sa=X&ei=mCbPUs-II9WpsQTg-4DwCw&ved=0CCkQsAQ'
p21
aS'http://www.tripadvisor.com/LocationPhotos-g147288-Dominican_Republic.html'
p22
aS'http://www.tripadvisor.com/LocationPhotos-g147288-w2-Dominican_Republic.html'
p23
aS'http://www.godominicanrepublic.com/rd/index.php?option=com_rd&task=galeria&Itemid=6&gallery=26&lang=en'
p24
aS'http://www.youtube.com/watch?v=IrZBzZx3lCk'
p25
aS'/search?q=egypt+pictures&biw=975&bih=440&tbm=isch&tbo=u&source=univ&sa=X&ei=nibPUqK6L-PlsAS2woGQDA&ved=0CCkQsAQ'
p26
aS'http://travel.nationalgeographic.com/travel/countries/egypt-photos/'
p27
aS'http://kids.nationalgeographic.com/kids/photos/ancient-egypt/'
p28
aS'/search?q=egypt+pictures&biw=975&bih=440&source=univ&tbm=nws&tbo=u&sa=X&ei=nibPUqK6L-PlsAS2woGQDA&ved=0CEwQqAI'
p29
aS'http://www.touregypt.net/photos/'
p30
aS'/search?q=france+pictures&biw=975&bih=440&tbm=isch&tbo=u&source=univ&sa=X&ei=pSbPUrzJBeKpsATlrYH4Cw&ved=0CCkQsAQ'
p31
aS'http://travel.nationalgeographic.com/travel/countries/france-photos/'
p32
aS'http://www.studentsoftheworld.info/infopays/photos/pic.php?CP=FRA'
p33
aS'http://www.budgettravel.com/slideshow/budget-travel-photos-stunning-photos-of-france,7492/'
p34
aS'http://www.freedigitalphotos.net/images/France_g144.html'
p35
aS'/search?q=germany+pictures&biw=975&bih=440&tbm=isch&tbo=u&source=univ&sa=X&ei=qybPUsrnFemqsAS0moHwCw&ved=0CCkQsAQ'
p36
aS'http://travel.nationalgeographic.com/travel/countries/germany-photos/'
p37
aS'http://www.tripadvisor.com/LocationPhotos-g187275-w2-Germany.html'
p38
aS'http://www.tripadvisor.com/LocationPhotos-g187275-Germany.html'
p39
aS'http://www.lonelyplanet.com/germany/images'
p40
aS'/search?q=honduras+pictures&biw=975&bih=440&tbm=isch&tbo=u&source=univ&sa=X&ei=sSbPUqSVK6fmsAS1xYGIDA&ved=0CCkQsAQ'
p41
aS'http://www.honduras.com/pictures/'
p42
aS'http://www.tripadvisor.com/LocationPhotos-g292016-Honduras.html'
p43
aS'http://www.tripadvisor.com/LocationPhotos-g292016-w2-Honduras.html'
p44
aS'http://travel-to-honduras.com/honduras-pictures-photos.php'
p45
aS'/search?q=italy+pictures&biw=975&bih=440&tbm=isch&tbo=u&source=univ&sa=X&ei=tybPUr6aOOmqsQTez4HoCw&ved=0CCkQsAQ'
p46
aS'http://travel.nationalgeographic.com/travel/countries/italy-photos/'
p47
aS'http://www.tripadvisor.com/LocationPhotos-g187768-Italy.html'
p48
aS'http://www.studentsoftheworld.info/infopays/photos/pic.php?CP=ITA'
p49
aS'http://www.freedigitalphotos.net/images/Italy_g100.html'
p50
aS'http://www.clubamerica.com.mx/'
p51
aS'http://en.wikipedia.org/wiki/Club_Am%C3%A9rica'
p52
aS'/search?q=america-aguilas+futbol&biw=975&bih=440&tbm=isch&tbo=u&source=univ&sa=X&ei=vibPUpuvHK7gsASsjICgDQ&ved=0CFEQsAQ'
p53
aS'http://americamonumental.com/'
p54
aS'http://www.pasionaguila.com/'
p55
aS'http://www2.esmas.com/usa/'
p56
aS'http://televisadeportes.esmas.com/futbol/'
p57
aS'http://televisadeportes.esmas.com/'
p58
aS'http://www.esmas.com/salome/'
p59
aS'http://www.televisa.com/'
p60
aS'/search?q=mexico+pictures&biw=975&bih=440&tbm=isch&tbo=u&source=univ&sa=X&ei=yibPUu6YOdWysQSj7YCYDA&ved=0CCkQsAQ'
p61
aS'http://travel.nationalgeographic.com/travel/countries/mexico-photos/'
p62
aS'http://www.huffingtonpost.com/news/mexico/'
p63
aS'http://www.tripadvisor.com/LocationPhotos-g150768-Mexico.html'
p64
aS'http://www.latimes.com/travel/mexico/la-tr-mexico-200-photos,0,6277889.photogallery'
p65
aS'/search?q=mexican+flags&biw=975&bih=440&source=univ&tbm=shop&tbo=u&sa=X&ei=0SbPUs2qFIzesASB34GoDA&ved=0CCkQsxg'
p66
aS'/search?q=mexican+flags&biw=975&bih=440&tbm=isch&tbo=u&source=univ&sa=X&ei=0SbPUs2qFIzesASB34GoDA&ved=0CFAQsAQ'
p67
aS'http://en.wikipedia.org/wiki/Flag_of_Mexico'
p68
aS'http://en.wikipedia.org/wiki/List_of_Mexican_flags'
p69
aS'http://www.mapsofworld.com/flags/mexico-flag.html'
p70
aS'/search?q=jamaica+pictures&biw=975&bih=440&tbm=isch&tbo=u&source=univ&sa=X&ei=1ybPUuyGI7PQsATizoHoCw&ved=0CCkQsAQ'
p71
aS'http://travel.nationalgeographic.com/travel/countries/jamaica-photos/'
p72
aS'http://www.tripadvisor.com/LocationPhotos-g147309-Jamaica.html'
p73
aS'http://www.tripadvisor.com/LocationPhotos-g147309-w2-Jamaica.html'
p74
aS'http://www.kgcphoto.com/jamaica_pictures.htm'
p75
aS'/search?q=kenya+pictures&biw=975&bih=440&tbm=isch&tbo=u&source=univ&sa=X&ei=3SbPUu-AK-q0sQSS14DwCw&ved=0CCkQsAQ'
p76
aS'http://travel.nationalgeographic.com/travel/countries/kenya-photos/'
p77
aS'http://www.nairaland.com/51356/nairobi-photos-kenya-beautiful-east'
p78
aS'http://www.cnn.com/2013/12/12/world/africa/kenya-at-50-photos/'
p79
aS'http://worldnews.nbcnews.com/_news/2013/09/29/20742658-aftermath-of-terror-shown-in-new-images-of-kenyan-mall?lite'
p80
aS'/search?q=luxembourg+pictures&biw=975&bih=440&tbm=isch&tbo=u&source=univ&sa=X&ei=5CbPUq35A9PRsASo64DwCw&ved=0CCkQsAQ'
p81
aS'http://www.tripadvisor.com/LocationPhotos-g190340-Luxembourg.html'
p82
aS'http://www.tripadvisor.com/LocationPhotos-g190356-Luxembourg_City.html'
p83
aS'http://www.huffingtonpost.com/jeanine-barone/15-myths-about-luxembourg_b_1652559.html'
p84
aS'http://www.luxembourgpictures.com/'
p85
aS'/search?q=nicaragua+pictures&biw=975&bih=440&tbm=isch&tbo=u&source=univ&sa=X&ei=6ibPUuHdFKTgsATTh4KYDA&ved=0CCkQsAQ'
p86
aS'http://www.tripadvisor.com/LocationPhotos-g294477-w2-Nicaragua.html'
p87
aS'http://vianica.com/photo'
p88
aS'http://gocentralamerica.about.com/od/nicaraguaguide/ig/Nicaragua-Photo-Gallery/'
p89
aS'http://www.huffingtonpost.com/news/nicaragua/'
p90
aS'http://en.wikipedia.org/wiki/Oman'
p91
aS'/search?q=oman&biw=975&bih=440&source=univ&tbm=nws&tbo=u&sa=X&ei=8CbPUq30D6PmsASXv4LoCw&ved=0CDQQqAI'
p92
aS'http://www.omantourism.gov.om/'
p93
aS'http://www.omanarchive.com/'
p94
aS'http://www.tripadvisor.com/LocationPhotos-g294006-w2-Oman.html'
p95
aS'/search?q=puerto+rico+pictures&biw=975&bih=440&tbm=isch&tbo=u&source=univ&sa=X&ei=9ibPUumoKezjsATU_oKIDA&ved=0CCwQsAQ'
p96
aS'http://www.tripadvisor.com/LocationPhotos-g147319-Puerto_Rico.html'
p97
aS'http://www.tripadvisor.com/LocationPhotos-g147319-w2-Puerto_Rico.html'
p98
aS'http://photobucket.com/images/puerto%20rico'
p99
aS'http://www.travelchannel.com/destinations/puerto-rico/photos'
p100
aS'/search?q=puerto+rico+pictures&biw=975&bih=440&tbm=isch&tbo=u&source=univ&sa=X&ei=_SbPUr9z56KxBOXhgfgL&ved=0CCkQsAQ'
p101
aS'http://www.tripadvisor.com/LocationPhotos-g147319-Puerto_Rico.html'
p102
aS'http://www.tripadvisor.com/LocationPhotos-g147319-w2-Puerto_Rico.html'
p103
aS'http://photobucket.com/images/puerto%20rico'
p104
aS'http://www.travelchannel.com/destinations/puerto-rico/photos'
p105
aS'/search?q=qatar+pictures&biw=975&bih=440&tbm=isch&tbo=u&source=univ&sa=X&ei=AyfPUpCuC7PRsASMnIH4Cw&ved=0CCkQsAQ'
p106
aS'http://www.huffingtonpost.com/2010/12/04/qatar-destination-of-the-day_n_791783.html'
p107
aS'http://www.tripadvisor.com/LocationPhotos-g294008-Qatar.html'
p108
aS'http://www.tripadvisor.com/LocationPhotos-g294009-Doha.html'
p109
aS'/search?q=qatar+pictures&biw=975&bih=440&source=univ&tbm=nws&tbo=u&sa=X&ei=AyfPUpCuC7PRsASMnIH4Cw&ved=0CFcQqAI'
p110
aS'/search?q=russia+pictures&biw=975&bih=440&tbm=isch&tbo=u&source=univ&sa=X&ei=CSfPUtf_GqmlsQS0qoDgDA&ved=0CCkQsAQ'
p111
aS'http://travel.nationalgeographic.com/travel/countries/russia-photos/'
p112
aS'http://www.studentsoftheworld.info/infopays/photos/pic.php?CP=RUS'
p113
aS'http://www.huffingtonpost.com/news/russia/'
p114
aS'http://www.sadanduseless.com/2013/11/russian-dating-sites/'
p115
aS'/search?q=switzerland+pictures&biw=975&bih=440&tbm=isch&tbo=u&source=univ&sa=X&ei=DyfPUorGM66-sQSIooCgDA&ved=0CCkQsAQ'
p116
aS'http://www.tripadvisor.com/LocationPhotos-g188045-Switzerland.html'
p117
aS'http://www.tripadvisor.com/LocationPhotos-g188045-w2-Switzerland.html'
p118
aS'http://www.lonelyplanet.com/switzerland/images'
p119
aS'http://travel.nationalgeographic.com/travel/countries/switzerland-photos-traveler/'
p120
aS'/search?q=turkey+pictures&biw=975&bih=440&tbm=isch&tbo=u&source=univ&sa=X&ei=FifPUvqDA-fRsASX0YCIDg&ved=0CCkQsAQ'
p121
aS'http://photobucket.com/images/funny%20turkey'
p122
aS'http://photobucket.com/images/turkey'
p123
aS'http://animals.nationalgeographic.com/animals/birds/wild-turkey/'
p124
aS'http://travel.nationalgeographic.com/travel/countries/turkey-photos/'
p125
aS'/search?q=united+states+pictures&biw=975&bih=440&tbm=isch&tbo=u&source=univ&sa=X&ei=HCfPUvzHGovLsQTvqYGACw&ved=0CCwQsAQ'
p126
aS'http://www.50states.com/us.htm'
p127
aS'http://travel.nationalgeographic.com/travel/countries/united-states-photos/'
p128
aS'http://kids.nationalgeographic.com/kids/photos/us-monuments/'
p129
aS'http://en.wikipedia.org/wiki/United_States_Pictures'
p130
aS'/search?q=united+states+country+pictures&biw=975&bih=440&tbm=isch&tbo=u&source=univ&sa=X&ei=IyfPUtrBC_LMsAT3l4GoDA&ved=0CCkQsAQ'
p131
aS'http://travel.nationalgeographic.com/travel/countries/united-states-photos/'
p132
aS'http://travel.nationalgeographic.com/travel/countries/united-states-guide/'
p133
aS'http://kids.nationalgeographic.com/kids/places/find/united-states-of-america/'
p134
aS'http://travel.nationalgeographic.com/travel/countries/autumn-united-states-photos/'
p135
aS'/search?q=venezuela+pictures&biw=975&bih=440&tbm=isch&tbo=u&source=univ&sa=X&ei=KSfPUtiOIaLmsAT13YCIDA&ved=0CCkQsAQ'
p136
aS'/search?q=venezuela+pictures&biw=975&bih=440&source=univ&tbm=nws&tbo=u&sa=X&ei=KSfPUtiOIaLmsAT13YCIDA&ved=0CEAQqAI'
p137
aS'http://travel.nationalgeographic.com/travel/countries/venezuela-photos/'
p138
aS'http://www.huffingtonpost.com/news/venezuela/'
p139
aS'http://www.etravelphotos.com/photos.php?keyword=venezuela'
p140
aS'http://en.wikipedia.org/wiki/Western_Sahara'
p141
aS'http://en.wikipedia.org/wiki/Political_status_of_Western_Sahara'
p142
aS'http://en.wikipedia.org/wiki/El_Aai%C3%BAn'
p143
aS'http://en.wikipedia.org/wiki/United_Nations_list_of_Non-Self-Governing_Territories'
p144
aS'http://en.wikipedia.org/wiki/History_of_Western_Sahara'
p145
aS'/search?q=western+sahara+pictures&biw=975&bih=440&tbm=isch&tbo=u&source=univ&sa=X&ei=NifPUt-wCsLmsATkiYGoDA&ved=0CCkQsAQ'
p146
aS'http://www.tripadvisor.com/LocationPhotos-g295118-Western_Sahara.html'
p147
aS'http://www.tripadvisor.com/LocationPhotos-g479762-Laayoune.html'
p148
aS'http://www.unmultimedia.org/photo/gallery.jsp?mode=auto&query=organization%3AMINURSO%20AND%20category%3A%22Field%20coverage%22'
p149
aS'http://www.flickr.com/photos/western_sahara_project/'
p150
aS'http://en.wikipedia.org/wiki/Western_Sahara'
p151
aS'https://www.cia.gov/library/publications/the-world-factbook/geos/wi.html'
p152
aS'http://www.africa.com/western-sahara/facts/'
p153
aS'http://www.infoplease.com/country/western-sahara.html'
p154
aS'http://www.mapsofworld.com/country-profile/western-sahara.html'
p155
aS'http://en.wikipedia.org/wiki/Yemen'
p156
aS'/search?q=yemen&biw=975&bih=440&source=univ&tbm=nws&tbo=u&sa=X&ei=QifPUuGlOfHmsATLnoC4DQ&ved=0CDQQqAI'
p157
aS'http://www.jorgetutor.com/yemen/yemen.htm'
p158
aS'http://ngm.nationalgeographic.com/2012/09/yemen/sinclair-photography'
p159
aS'http://topics.nytimes.com/top/news/international/countriesandterritories/yemen/'
p160
aS'/search?q=zambia+pictures&biw=975&bih=440&tbm=isch&tbo=u&source=univ&sa=X&ei=SSfPUriPFovJsATD94DwCw&ved=0CCkQsAQ'
p161
aS'http://www.safaribookings.com/zambia/photos'
p162
aS'http://www.tripadvisor.com/LocationPhotos-g293842-w2-Zambia.html'
p163
aS'http://www.tripadvisor.com/LocationPhotos-g293842-Zambia.html'
p164
aS'http://www.tripadvisor.com/LocationPhotos-g293842-w3-Zambia.html'
p165
aS'http://www.agkidzone.com/care-bears'
p166
aS'http://www.agkidzone.com/care-bears/games/'
p167
aS'http://www.agkidzone.com/'
p168
aS'http://www.girlsgogames.com/games/care_bears/care_bears.html'
p169
aS'http://www.hubworld.com/care-bears/shows/welcome-to-care-a-lot/'
p170
aS'http://fairies.disney.com/tinker-bell'
p171
aS'http://fairies.disney.com/'
p172
aS'http://fairies.disney.com/pixie-hollow-faq'
p173
aS'http://www.disney.co.uk/disney-fairies/'
p174
aS'http://www.disney.co.uk/disney-fairies/games'
p175
aS'http://www.youtube.com/watch?v=lDEupsGBeMs'
p176
aS'http://www.youtube.com/watch?v=q4O_S3MNrBI'
p177
aS'http://www.youtube.com/watch?v=jNZI7oIsIPo'
p178
aS'http://www.youtube.com/watch?v=T6_lJYq-n8s'
p179
aS'http://en.wikipedia.org/wiki/Grupo_Montez_de_Durango'
p180
aS'http://es.wikipedia.org/wiki/Scorpiones'
p181
aS'http://en.wikipedia.org/wiki/Alacranes_de_Durango'
p182
aS'http://en.wikipedia.org/wiki/Alacranes_Musical'
p183
aS'http://www.youtube.com/watch?v=vN8XO80iqm0'
p184
aS'http://www.msal.gov.ar/zoonosis/index.php/informacion-para-adolescentes/animales-ponzonosos-venenosos'
p185
aS'https://myspace.com/'
p186
aS'https://myspace.com/discover/people'
p187
aS'http://www.myspace.com/tv'
p188
aS'http://www.myspace.com/robynmyspace?utm_source=TrendLand+List&utm_campaign=c211c63074-RSS_EMAIL_CAMPAIGN&utm_medium=email'
p189
aS'http://www.myspace.com/newmodelarmymyspace'
p190
aS'https://myspace.com/'
p191
aS'https://myspace.com/robynmyspace?utm_source=TrendLand+List&utm_campaign=c211c63074-RSS_EMAIL_CAMPAIGN&utm_medium=email'
p192
aS'https://myspace.com/discover/people'
p193
aS'https://myspace.com/my/settings/account/privacy'
p194
aS'https://myspace.com/thenational'
p195
aS'https://myspace.com/discover/people'
p196
aS'https://myspace.com/high_school_stalberg'
p197
aS'https://myspace.com/ninjahighschool'
p198
aS'http://www.huffingtonpost.com/news/churubusco-high-school-myspace'
p199
aS'https://www.facebook.com/pages/MYSPACE-Middle-School-FACEBOOK-High-School/103559239687455'
p200
aS'http://www.j-14.com/'
p201
aS'http://winit.j-14.com/'
p202
aS'http://polls.j-14.com/featured'
p203
aS'http://www.j-14.com/one-direction-2'
p204
aS'http://www.j-14.com/justin-bieber-10'
p205
aS'http://quizilla.teennick.com/quizzes'
p206
aS'http://www.seventeen.com/fun/quizzes/'
p207
aS'http://mentalfloss.com/quizzes'
p208
aS'http://theoatmeal.com/quizzes'
p209
aS'http://psychcentral.com/quizzes/'
p210
aS'http://www.farwestdallas.com/'
p211
aS'http://www.farwestdallas.com/site/eventos'
p212
aS'http://www.okcorraldisco.com/'
p213
aS'http://www.youtube.com/watch?v=JDNMZA3Nznc'
p214
aS'http://www.youtube.com/watch?v=e8r4SbUUB3Y'
p215
aS'http://www.okcorraldisco.com/'
p216
aS'http://www.okcorraldisco.com/site/eventos'
p217
aS'http://www.okcorraldisco.com/mapaoeste.html'
p218
aS'http://www.okcorraldisco.com/site/adapt-very-flexible-topmenu-67'
p219
aS'http://www.okcorraldisco.com/site/domingo'
p220
aS'/search?q=utah+pictures&biw=975&bih=440&tbm=isch&tbo=u&source=univ&sa=X&ei=lSfPUrKsFcmssASN-4CQDA&ved=0CCwQsAQ'
p221
aS'http://www.scenicutah.com/'
p222
aS'http://utahpictures.com/'
p223
aS'http://www.wildnatureimages.com/Utah.htm'
p224
aS'http://www.allenscamera.net/'
p225
aS'http://www.politicalresources.net/pol-b.htm'
p226
aS'http://en.wiktionary.org/wiki/Category:ab:Countries'
p227
aS'http://www.world-airport-codes.com/alphabetical/country-name/b.html'
p228
aS'http://www.talktalk.co.uk/reference/encyclopaedia/countryfacts/index_b.html'
p229
aS'http://en.wikipedia.org/wiki/Alberta'
p230
aS'http://www.state.gov/misc/list/'
p231
aS'http://www.worldgenweb.org/countryindex.html'
p232
aS'http://www.atlapedia.com/online/country_index.htm'
p233
aS'http://countrycode.org/azerbaijan'
p234
aS'http://www.nationsonline.org/oneworld/countries_of_the_world.htm'
p235
aS'/search?q=uruguay+pictures&biw=975&bih=440&tbm=isch&tbo=u&source=univ&sa=X&ei=pyfPUpmHOdPPsATX2oHgCw&ved=0CCkQsAQ'
p236
aS'http://www.tripadvisor.com/LocationPhotos-g294064-w2-Uruguay.html'
p237
aS'http://internationalliving.com/2013/07/uruguay-in-pictures/'
p238
aS'http://www.welcomeuruguay.com/photographs.html'
p239
aS'http://www.pbase.com/world/uruguay'
p240
aS'http://www.xcaret.com/'
p241
aS'http://www.xcaret.com/xcaret-tour-cancun-riviera-maya-mexico'
p242
aS'http://www.youtube.com/watch?v=-brYbwBlFr4'
p243
aS'http://www.xcaret.com.mx/'
p244
aS'http://www.tripadvisor.com/ShowUserReviews-g150812-d152777-r190053897-Xcaret_Eco_Theme_Park-Playa_del_Carmen_Yucatan_Peninsula.html'
p245
aS'/search?q=xcaret+mexico+pictures&biw=975&bih=440&tbm=isch&tbo=u&source=univ&sa=X&ei=tCfPUvnWJ66-sQSIooCgDA&ved=0CCwQsAQ'
p246
aS'http://www.xcaret.com/'
p247
aS'http://www.tripadvisor.com/LocationPhotos-g150812-d152777-Xcaret_Eco_Theme_Park-Playa_del_Carmen_Yucatan_Peninsula.html'
p248
aS'http://www.tripadvisor.com/Hotel_Review-g150812-d260444-Reviews-Occidental_Grand_Xcaret_Royal_Club-Playa_del_Carmen_Yucatan_Peninsula.html'
p249
aS'http://www.tripadvisor.com/Attraction_Review-g150812-d152777-Reviews-Xcaret_Eco_Theme_Park-Playa_del_Carmen_Yucatan_Peninsula.html'
p250
aS'/search?q=xian+china+pictures&biw=975&bih=440&tbm=isch&tbo=u&source=univ&sa=X&ei=uyfPUq3pAsLJsQS244LIDQ&ved=0CCkQsAQ'
p251
aS'http://www.tripadvisor.com/LocationPhotos-g298557-Xi_an_Shaanxi.html'
p252
aS'http://www.travelchinaguide.com/picture/shaanxi/xian/'
p253
aS'http://www.travelchinaguide.com/picture/shaanxi/xian/city_wall/'
p254
aS'http://www.travelchinaguide.com/picture/shaanxi/xian/terra_cotta_warriors/'
p255
aS'http://www.travelchinaguide.com/cityguides/xian/'
p256
aS'http://en.wikipedia.org/wiki/Xi%27an'
p257
aS'http://en1.xian-tourism.com/'
p258
aS'http://www.xian-travel.com/facts.htm'
p259
aS'http://www.chinahighlights.com/xian/xian-facts.htm'
p260
aS'http://www.xcaret.com/'
p261
aS'http://www.xcaret.com/xcaret-plus-tour-cancun-riviera-maya-mexico'
p262
aS'http://www.xcaret.com/xcaret-tour-cancun-riviera-maya-mexico'
p263
aS'http://en.wikipedia.org/wiki/Xcaret_Park'
p264
aS'http://www.expedia.com/Riviera-Maya-Hotels-Occidental-Grand-Xcaret-All-Inclusive.h882765.Hotel-Information'
p265
aS'/search?q=xcaret+mexico+country&biw=975&bih=440&tbm=isch&tbo=u&source=univ&sa=X&ei=zifPUvbDGsuvsQS4zIDoCw&ved=0CCwQsAQ'
p266
aS'http://www.xcaret.com/fiesta-charra-in-xcaret-mexico-culture-activities-cancun'
p267
aS'http://www.xcaret.com/about-xcaret'
p268
aS'http://www.xcaret.com/get-to-know-xcaret'
p269
aS'http://www.accuweather.com/en/mx/xcaret/245028/weather-forecast/245028'
p270
aS'http://en.wikipedia.org/wiki/Mexico'
p271
aS'/search?q=mexico+countries&biw=975&bih=440&source=univ&tbm=nws&tbo=u&sa=X&ei=1CfPUuW_MoS3sASzgYGIDA&ved=0CDQQqAI'
p272
aS'http://www.infoplease.com/country/mexico.html'
p273
aS'http://www.nationsonline.org/oneworld/mexico.htm'
p274
aS'http://www.mapsofworld.com/mexico/'
p275
aS'/search?q=xin+nian+jie+pictures&biw=975&bih=440&tbm=isch&tbo=u&source=univ&sa=X&ei=2yfPUquqEMupsATJn4H4Cw&ved=0CCkQsAQ'
p276
aS'http://www.fi.edu/fellows/fellow1/apr99/abc/x.htm'
p277
aS'http://www.ticountryclub.com/xmlrp.asp?cfg=1&oid=3128.htm'
p278
aS'http://geoblog.psu.edu/2013/02/xin-nian-kuai-le.html'
p279
aS'http://www.christensenrealty.com/realtyusale.asp?cfg=1&oid=3140.htm'
p280
aS'http://www.fi.edu/fellows/fellow1/apr99/abc/x.htm'
p281
aS'/search?q=xin+nian+jie&biw=975&bih=440&tbm=isch&tbo=u&source=univ&sa=X&ei=4SfPUurYGILksASDwoCIDQ&ved=0CC8QsAQ'
p282
aS'http://cougar.collegiate-va.org/psinkler/china/cunningham/chinesenewyear%20/xinnianjie.html'
p283
aS'http://cny.blogspot.com/2004/12/chinese-new-year-or-spring-festival.html'
p284
aS'http://geoblog.psu.edu/2013/02/xin-nian-kuai-le.html'
p285
aS'http://en.wikipedia.org/wiki/Chinese_New_Year'
p286
aS'http://www.youtube.com/watch?v=0tDBbR-8nyw'
p287
aS'http://www.ticountryclub.com/xmlrp.asp?cfg=1&oid=3128.htm'
p288
aS'http://www.northcountrynews.com/WTime.asp?cfg=1&oid=921.htm'
p289
aS'http://www.imdb.com/title/tt1142815/'
p290
aS'http://games.disney.com/'
p291
aS'http://www.mentormob.com/learn/i/video-games-for-learning/funschool-fun-and-educational-games-and-activities-for-kids'
p292
aS'http://disneyjunior.com/games'
p293
aS'http://www.softschools.com/games/'
p294
aS'http://urlm.co/www.funschool.com'
p295
aS'http://download.cnet.com/'
p296
aS'http://www.microsoft.com/en-us/download/'
p297
aS'http://www.adobe.com/downloads.html'
p298
aS'http://www.apple.com/downloads/'
p299
aS'http://downloads.zdnet.com/'
p300
aS'http://en.wikipedia.org/wiki/Latin_Kings_%28gang%29'
p301
aS'http://en.wikipedia.org/wiki/Latin_kings'
p302
aS'/search?q=latin+kings&biw=975&bih=440&tbm=isch&tbo=u&source=univ&sa=X&ei=-ifPUqiqK7KosATznoH4Cw&ved=0CDkQsAQ'
p303
aS'http://www.nj.com/news/index.ssf/2013/08/murder_conviction_of_former_latin_kings_gang_leader_is_tossed.html'
p304
aS'http://articles.philly.com/keyword/latin-kings'
p305
aS'http://www.fortworthpd.com/divisions/gang-unit.aspx'
p306
aS'https://archive.org/stream/TexasGangs/texas-gangs_djvu.txt'
p307
aS'http://www.streetgangs.com/tag/fort-worth'
p308
aS'http://crimeblog.dallasnews.com/2013/04/dps-gang-assessment-shows-activity-highest-in-metro-areas-including-dallas-fort-worth.html/'
p309
aS'http://stophoustongangs.org/default.aspx?act=gangprofile.aspx&gangprofileID=29&menugroup=Home'
p310
aS'http://www.pof.com/viewprofile.aspx?profile_id=20582824'
p311
aS'http://thefors4kenguild.guildlaunch.com/users/characters/character_detail.php?char=7219694&gid=150216&sid=0b9989b658f6e7c9adbf608eca8c05df'
p312
aS'http://www.wowprogress.com/character/us/antonidas/Ugrish'
p313
aS'http://www.wowprogress.com/character/us/ghostlands/Ugrish'
p314
aS'http://ecrs2012.sinp.msu.ru/author/ugrish/'
p315
aS'http://ugrish.com/'
p316
aS'http://whois.domaintools.com/ugrish.com'
p317
aS'http://loandomainsanalyzer.com/domain/ugrish.com/'
p318
aS'http://www.alexa.com/siteinfo/ugrish.com'
p319
aS'http://analizatar.com/domain/ugrish.com'
p320
aS'http://www.azlyrics.com/'
p321
aS'http://www.azlyrics.com/lyrics/blackeyedpeas/latingirls.html'
p322
aS'http://www.azlyrics.com/lyrics/justinbieber/latingirl.html'
p323
aS'http://www.lyrics.com/'
p324
aS'/search?q=lyrics&biw=975&bih=440&source=univ&tbm=nws&tbo=u&sa=X&ei=EyjPUuz6DOeusASI04DwCw&ved=0CEgQqAI'
p325
aS'http://www.yelp.com/search?cflt=amusementparks&find_loc=Fort+Worth%2C+TX'
p326
aS'http://local.yahoo.com/TX/Fort+Worth/Recreation+Sporting+Goods/Amusement+Theme+Parks'
p327
aS'http://dir.yahoo.com/regional/u_s__states/texas/metropolitan_areas/dallas_fort_worth_metro/recreation_and_sports/amusement_and_theme_parks/'
p328
aS'http://dfw.cbslocal.com/2013/05/31/dreamvision-to-bring-family-friendly-entertainment-theme-park-to-fort-worth/'
p329
aS'http://www.tripadvisor.com/Attractions-g55857-Activities-c46-Fort_Worth_Texas.html'
p330
aS'http://www.nrh2o.com/'
p331
aS'http://www.nrh2o.com/index.aspx?nid=89'
p332
aS'http://www.nrh2o.com/index.aspx?NID=27'
p333
aS'http://www.nrh2o.com/Calendar/home'
p334
aS'http://nrh2o.com/events'
p335
aS'http://www.nrh2o.com/'
p336
aS'http://www.nrh2o.com/index.aspx?nid=89'
p337
aS'http://www.nrh2o.com/index.aspx?nid=114'
p338
aS'http://www.nrh2o.com/jobs'
p339
aS'http://www.yelp.com/biz/nrh2o-family-water-park-north-richland-hills'
p340
as.