ccollections
defaultdict
p1
(c__builtin__
list
p2
tRp3
S'4955115'
p4
(lp5
S'http://www.marriott.com/springhill-suites/travel.mi'
p6
aS'http://www.marriott.com/setSCtracking.mi?scid=20100202T155101000001&mid=http://www.marriott.com/hotels/travel/ttnsh-springhill-suites-ewing-princeton-south/'
p7
aS'http://www.marriott.com/setSCtracking.mi?scid=20100202T155101000001&mid=http://www.marriott.com/hotels/travel/phlsp-springhill-suites-philadelphia-langhorne/'
p8
aS'http://www.marriott.com/setSCtracking.mi?scid=20100202T155101000001&mid=http://www.marriott.com/hotels/travel/phlwl-springhill-suites-philadelphia-willow-grove/'
p9
aS'http://www.marriott.com/towneplace-suites/travel.mi'
p10
aS'http://www.marriott.com/hotels/travel/mcolx-springhill-suites-orlando-lake-buena-vista-in-marriott-village/'
p11
aS'http://www.marriott.com/setSCtracking.mi?scid=20100202T155101000001&mid=http://www.marriott.com/hotels/travel/mcolx-springhill-suites-orlando-lake-buena-vista-in-marriott-village/'
p12
aS'http://www.marriott.com/setSCtracking.mi?scid=20100202T155101000001&mid=http://www.marriott.com/hotels/travel/mcots-towneplace-suites-orlando-east-ucf-area/'
p13
aS'http://www.marriott.com/setSCtracking.mi?scid=20100202T155101000001&mid=http://www.marriott.com/hotels/travel/mcolz-fairfield-inn-and-suites-orlando-lake-buena-vista-in-the-marriott-village/'
p14
aS'http://www.marriott.com/hotels/hotel-photos/mcolx-springhill-suites-orlando-lake-buena-vista-in-marriott-village/'
p15
aS'http://www.marriott.com/hotel-search/kissimmee.hotels.florida.united-states.travel/'
p16
aS'http://marriott.com/MCOWC'
p17
aS'http://www.marriott.com/setSCtracking.mi?scid=20100202T155101000001&mid=http://www.marriott.com/hotels/travel/mcolx-springhill-suites-orlando-lake-buena-vista-in-marriott-village/'
p18
aS'http://www.marriott.com/hotels/travel/mcoip-marriotts-imperial-palm-villas/'
p19
aS'http://www.marriott.com/hotel-search/kissimmee.hotels.florida.united-states.marriott-hotels-resorts-and-suites.travel/'
p20
aS'http://www.expedia.com/Kissimmee-Hotels.d7927.Travel-Guide-Hotels'
p21
aS'http://www.tripadvisor.com/Hotels-g34352-Kissimmee_Florida-Hotels.html'
p22
aS'http://www.priceline.com/cheap-hotels-kissimmee-florida-FL-tk-c288080-hl.hotel-reviews-hotel-guides'
p23
aS'http://www.hotels.com/de1421483/hotels-kissimmee-florida/'
p24
aS'http://www.choicehotels.com/kissimmee-florida-hotels'
p25
aS'http://www.marriott.com/hotel-search/kissimmee.hotels.florida.united-states.travel/'
p26
aS'http://marriott.com/MCOWC'
p27
aS'http://www.marriott.com/setSCtracking.mi?scid=20100202T155101000001&mid=http://www.marriott.com/hotels/travel/mcolx-springhill-suites-orlando-lake-buena-vista-in-marriott-village/'
p28
aS'http://www.marriott.com/hotels/travel/mcoip-marriotts-imperial-palm-villas/'
p29
aS'http://www.marriott.com/hotel-search/kissimmee.hotels.florida.united-states.marriott-hotels-resorts-and-suites.travel/'
p30
aS'http://www.triprism.com/'
p31
aS'http://www.triprism.com/support/'
p32
aS'http://www.triprism.com/support/login.php'
p33
aS'http://www.triprism.com/products/teps_2000.html'
p34
aS'http://www.triprism.com/services/'
p35
aS'http://www.triprism.com/'
p36
aS'http://www.triprism.com/products/teps_2000.html'
p37
aS'http://www.triprism.com/products/apple.html'
p38
aS'http://www.triprism.com/support/'
p39
aS'http://www.triprism.com/support/login.php'
p40
aS'http://www.amazon.com/'
p41
aS'http://www.godaddy.com/'
p42
aS'http://www.weather.com/'
p43
aS'http://en.wikipedia.org/wiki/.com'
p44
aS'http://www.istockphoto.com/'
p45
aS'http://www.outwater.com/'
p46
aS'http://www.outwater.com/vip6/'
p47
aS'http://www.outwatercatalogs.com/main1.cfm'
p48
aS'http://www.forresidentialpros.com/company/10148713/architectural-products-by-outwater'
p49
aS'http://www.traditional-building.com/brochure/outwater.htm'
p50
aS'http://www.ticotimes.net/'
p51
aS'http://www.ticotimes.net/More-news'
p52
aS'http://www.ticotimes.net/Contact-Us'
p53
aS'http://www.ticotimes.net/Classifieds'
p54
aS'http://www.ticotimes.net/Business'
p55
aS'http://en.wikipedia.org/wiki/Costa_Rica'
p56
aS'http://www.visitcostarica.com/'
p57
aS'/search?q=costa+rica&biw=975&bih=440&source=univ&tbm=nws&tbo=u&sa=X&ei=cSjPUvzZLPa2sAT18IGYDQ&ved=0CD8QqAI'
p58
aS'http://travel.state.gov/travel/cis_pa_tw/cis/cis_1093.html'
p59
aS'http://www.lonelyplanet.com/costa-rica'
p60
aS'http://www.ylangylangbeachresort.com/el-sano-banano-village-hotel/main.html'
p61
aS'http://www.ylangylangbeachresort.com/'
p62
aS'http://www.tripadvisor.com/Hotel_Review-g309278-d622324-Reviews-El_Sano_Banano_Village_Hotel-Montezuma_Province_of_Puntarenas.html'
p63
aS'http://www.anywherecostarica.com/destinations/montezuma/hotels/el-sano-banano-hotel'
p64
aS'http://www.hotels.com/ho421270/el-sano-banano-village-hotel-montezuma-costa-rica/'
p65
aS'https://www.fidelity.com/'
p66
aS'http://login.fidelity.com/ftgw/Fidelity/NBPart/Login/Init'
p67
aS'https://www.fidelity.com/trading/overview'
p68
aS'https://oltx.fidelity.com/ftgw/fbc/ofcashmgmt/cashMgmtApp'
p69
aS'http://jobs.fidelity.com/'
p70
aS'https://disneyworld.disney.go.com/destinations/wide-world-of-sports/'
p71
aS'http://espnwwos.disney.go.com/complex/directions-map/'
p72
aS'http://espnwwos.disney.go.com/'
p73
aS'https://disneyworld.disney.go.com/resorts/all-star-sports-resort/'
p74
aS'http://en.wikipedia.org/wiki/ESPN_Wide_World_of_Sports_Complex'
p75
aS'/search?q=australian+cypress&biw=975&bih=440&source=univ&tbm=shop&tbo=u&sa=X&ei=iyjPUsS1KqTgsATTh4KYDA&ved=0CCkQsxg'
p76
aS'/search?q=australian+cypress&biw=975&bih=440&tbm=isch&tbo=u&source=univ&sa=X&ei=iyjPUsS1KqTgsATTh4KYDA&ved=0CEcQsAQ'
p77
aS'http://www.lumberliquidators.com/ll/c/Natural-Australian-Cypress-BELLAWOOD-HUSACY3HV/10006699'
p78
aS'http://www.lumberliquidators.com/ll/c/Natural-Australian-Cypress-BELLAWOOD-HUSACY5V/10001647'
p79
aS'http://www.australiancypress.com/'
p80
aS'https://www.ccbg.com/'
p81
aS'http://www.ccbg.com/about-contact-us.asp'
p82
aS'http://www.ccbg.com/consumer-information.htm'
p83
aS'http://www.ccbg.com/our-communities.htm'
p84
aS'https://www.ccbg.com/email.htm?support@trusteer.com'
p85
aS'http://www.ccgb.org/'
p86
aS'http://www.ccgb.org.uk/'
p87
aS'http://www.bx.psu.edu/'
p88
aS'http://www.cockapooclubgb.co.uk/meet-team-ccgb.html'
p89
aS'http://www.cockapooclubgb.co.uk/'
p90
aS'http://www.lumberliquidators.com/'
p91
aS'http://www.lumberliquidators.com/ll/storelocator'
p92
aS'https://www.lumberliquidators.com/ll/c/engineered-hardwood-flooring'
p93
aS'http://www.lumberliquidators.com/ll/c/solid-hardwood-flooring'
p94
aS'https://www.lumberliquidators.com/ll/c/laminate-vinyl-flooring'
p95
aS'http://www.lowes.com/'
p96
aS'http://www.yellowpages.com/west-windsor-nj/lowes'
p97
aS'http://www.yelp.com/biz/lowes-of-w-windsor-princeton'
p98
aS'https://foursquare.com/v/lowes-home-improvement/4b1c22ebf964a520df0224e3'
p99
aS'http://www.nj.com/mercer/index.ssf/2013/05/wes_windsor_lowes_employee_zap.html'
p100
aS'http://www.homedepot.com/'
p101
aS'http://careers.homedepot.com/'
p102
aS'http://www.ecooptions.homedepot.com/'
p103
aS'http://www.homedepot.com/c/Credit_Center'
p104
aS'http://www.homedepot.com/b/Outdoors/N-5yc1vZbx82'
p105
aS'http://www.massmutual.com/'
p106
aS'http://www.massmutual.com/careers'
p107
aS'https://www.massmutual.com/csso/accountaccess'
p108
aS'https://wwwrs.massmutual.com/journey/Login.aspx'
p109
aS'https://www.massmutual.com/secure/contactus'
p110
aS'http://en.wikipedia.org/wiki/Gallbladder'
p111
aS'http://www.webmd.com/digestive-disorders/picture-of-the-gallbladder'
p112
aS'http://www.webmd.com/digestive-disorders/tc/gallstones-topic-overview'
p113
aS'http://www.medicinenet.com/gallstones/article.htm'
p114
aS'http://gallbladderattack.com/gallbladdersymptoms.shtml'
p115
aS'http://www.webmd.com/digestive-disorders/digestive-diseases-pancreatitis'
p116
aS'http://en.wikipedia.org/wiki/Pancreatitis'
p117
aS'http://www.medicinenet.com/pancreatitis/article.htm'
p118
aS'http://www.mayoclinic.org/diseases-conditions/pancreatitis/basics/definition/con-20028421'
p119
aS'http://www.steadyhealth.com/gall_bladder_pancreatitis_t219720.html'
p120
aS'http://en.wikipedia.org/wiki/Pancreas'
p121
aS'http://www.webmd.com/digestive-disorders/picture-of-the-pancreas'
p122
aS'/search?q=pancreas&biw=975&bih=440&tbm=isch&tbo=u&source=univ&sa=X&ei=wyjPUtbACsbhsAT74YC4DA&ved=0CDoQsAQ'
p123
aS'http://pathology.jhu.edu/pc/BasicOverview1.php?area=ba'
p124
aS'http://www.medicalnewstoday.com/info/pancreatic-cancer/'
p125
aS'http://en.wikipedia.org/wiki/Advance_health_care_directive'
p126
aS'http://www.alllaw.com/articles/wills_and_trusts/article7.asp'
p127
aS'http://www.mayoclinic.com/health/living-wills/ha00014'
p128
aS'http://www.rocketlawyer.com/form/living-will.rl'
p129
aS'http://www.caringinfo.org/stateaddownload/'
p130
aS'http://www.ssa.gov/'
p131
aS'http://www.ssa.gov/myaccount/'
p132
aS'http://www.ssa.gov/onlineservices/'
p133
aS'http://www.ssa.gov/reach.htm'
p134
aS'http://www.ssa.gov/estimator/'
p135
aS'http://www.ssa.gov/'
p136
aS'https://secure.ssa.gov/ICON/main.jsp'
p137
aS'http://www.ssa.gov/regions/'
p138
aS'http://www.ssa.gov/careers/locations.html'
p139
aS'http://www.ssa.gov/reach.htm'
p140
aS'/search?q=easter+flowers&biw=975&bih=440&tbm=isch&tbo=u&source=univ&sa=X&ei=3CjPUqrWCsLhsAS12oH4DA&ved=0CCkQsAQ'
p141
aS'http://www.ftd.com/orthodox-easter-5-5-ctg/occasion-easter'
p142
aS'http://www.proflowers.com/easter-flowers-est'
p143
aS'http://www.1800flowers.com/easter-flowers'
p144
aS'http://www.theholidayspot.com/easter/easter_flowers.htm'
p145
aS'http://www.artisansofthevalley.com/'
p146
aS'http://www.padutchfarmersmarket.com/cgi-bin/index.cgi?page=crafts'
p147
aS'http://easttycarpentry.com/'
p148
aS'http://naturaledgerustic.com/'
p149
aS'http://www.1800bunkbed.com/territories/NJ16'
p150
aS'http://www.yankeecandle.com/'
p151
aS'http://www.amazon.com/b?node=3734391'
p152
aS'http://en.wikipedia.org/wiki/Paschal_candle'
p153
aS'http://en.wikipedia.org/wiki/Candle'
p154
aS'http://www.yankeecandle.com/'
p155
aS'http://medical-dictionary.thefreedictionary.com/Emphysima'
p156
aS'http://www.thefreedictionary.com/Emphysima'
p157
aS'http://encyclopedia2.thefreedictionary.com/Emphysima'
p158
aS'https://healthunlocked.com/blf/questions/428091/is-there-a-cure-for-boullios-emphysima'
p159
aS'https://www.healthtap.com/topics/is-emphysima-and-copd-the-same-lung-disease-or-are-they-different'
p160
aS'/search?q=best+christmas+lights+ever&biw=975&bih=440&tbm=isch&tbo=u&source=univ&sa=X&ei=9CjPUpqBONSlsQT9p4GoDA&ved=0CC4QsAQ'
p161
aS'http://www.flixxy.com/best-christmas-lights-display.htm'
p162
aS'http://www.youtube.com/watch?v=2ZH0eZ9KT1U'
p163
aS'http://www.youtube.com/watch?v=6YWTO0utEwU'
p164
aS'http://www.washingtonpost.com/blogs/innovations/wp/2013/12/10/christmas-lights-ten-of-the-best-shows-ever/'
p165
aS'/search?q=door+pulls&biw=975&bih=440&source=univ&tbm=shop&tbo=u&sa=X&ei=-yjPUqHwAueusASI04DwCw&ved=0CCkQsxg'
p166
aS'http://www.lowes.com/Hardware/_/N-1z13cne/pl'
p167
aS'http://www.thehardwarehut.com/door.php'
p168
aS'http://www.amazon.com/b?node=2380871011'
p169
aS'http://www.myknobs.com/advanced-search-door.html'
p170
aS'http://www.americanidol.com/'
p171
aS'http://www.americanidol.com/videos'
p172
aS'http://www.americanidol.com/news/american-idol-xiii-hits-the-road-in-search-of-new-talent'
p173
aS'http://www.americanidol.com/news'
p174
aS'http://www.americanidol.com/news/atlanta-auditions'
p175
aS'http://www.americanidol.com/'
p176
aS'/search?q=american+idol&biw=975&bih=440&source=univ&tbm=nws&tbo=u&sa=X&ei=CCnPUpXBIcPMsQSAnIHADA&ved=0CEAQqAI'
p177
aS'http://en.wikipedia.org/wiki/American_Idol'
p178
aS'http://www.youtube.com/user/americanidol'
p179
aS'http://www.imdb.com/title/tt0319931/'
p180
aS'http://www.mydigitallife.info/how-to-organize-favorites-or-bookmarks-in-alphabetical-order-in-ie-and-firefox-browser/'
p181
aS'http://answers.microsoft.com/message/6dea216d-d25a-4082-8ce7-2d986969d57a?threadId=39bcc1bf-ef76-e011-8dfc-68b599b31bf5'
p182
aS'http://www.pcmag.com/article2/0,2817,2092671,00.asp'
p183
aS'http://www.ehow.com/how_4662911_internet-explorer-favorites-alphabetical-order.html'
p184
aS'https://support.mozilla.org/en-US/kb/sort-bookmarks-quickly-find-ones-you-want'
p185
aS'/search?q=self+watering+containers&biw=975&bih=440&source=univ&tbm=shop&tbo=u&sa=X&ei=FSnPUpf1PPOosQSXjoDwCw&ved=0CCkQsxg'
p186
aS'http://www.gardeners.com/Self-Watering-Planters/PotsPlanters_SelfWateringPlanters,default,sc.html'
p187
aS'/search?q=self+watering+containers&biw=975&bih=440&tbm=isch&tbo=u&source=univ&sa=X&ei=FSnPUpf1PPOosQSXjoDwCw&ved=0CFMQsAQ'
p188
aS'http://www.urbanorganicgardener.com/2010/08/how-self-watering-containers-work/'
p189
aS'http://www.youtube.com/watch?v=3INoLKg555w'
p190
aS'/search?q=african+violet+containers&biw=975&bih=440&source=univ&tbm=shop&tbo=u&sa=X&ei=HCnPUtClHeehsASA2YHYDA&ved=0CCkQsxg'
p191
aS'http://www2.fiskars.com/Gardening-and-Yard-Care/Projects/Container-Gardening/Indoor-Containers/African-Violets-not-Just-for-Grandma'
p192
aS'/search?q=african+violet+containers&biw=975&bih=440&tbm=isch&tbo=u&source=univ&sa=X&ei=HCnPUtClHeehsASA2YHYDA&ved=0CFYQsAQ'
p193
aS'http://www.weekendgardener.net/houseplant-care/african-violet-pot-031003.htm'
p194
aS'http://www.agardenforthehouse.com/2012/11/my-african-violet-growing-guide/'
p195
aS'http://www.water-well.com/'
p196
aS'http://www.waterwell.com/'
p197
aS'http://www.greeneswaterwells.com/'
p198
aS'http://www.wisconsinwaterwell.com/'
p199
aS'http://www.youtube.com/watch?v=8K6V450StO4'
p200
aS'http://www.kwikset.com/'
p201
aS'http://www.kwikset.com/Products/Overview.aspx'
p202
aS'http://www.kwikset.com/Products/Categories/Electronic-Locks.aspx'
p203
aS'http://www.kwikset.com/Kevo/default.aspx?utm_source=buffer&utm_campaign=Buffer&utm_content=buffer18fe2&utm_medium=twitter'
p204
aS'http://www.kwikset.com/Customer-Support/Overview.aspx'
p205
aS'http://www.schlage.com/'
p206
aS'http://consumer.schlage.com/'
p207
aS'http://consumer.schlage.com/products/pages/product-landing.aspx'
p208
aS'/search?q=schlage&biw=975&bih=440&source=univ&tbm=nws&tbo=u&sa=X&ei=LynPUrmwCq_MsQT36IKADA&ved=0CDoQqAI'
p209
aS'http://us.allegion.com/brands/schlage/Pages/default.aspx'
p210
aS'http://www.baldwinhardware.com/'
p211
aS'http://www.baldwinschool.org/'
p212
aS'http://www.baldwinfilter.com/'
p213
aS'http://www.baldwindenim.com/'
p214
aS'http://www.imdb.com/name/nm0000285/'
p215
aS'http://en.wikipedia.org/wiki/Martin_Anderson_case'
p216
aS'http://www.cbsnews.com/news/fla-juvenile-boot-camp-death-no-charges/'
p217
aS'http://www.cbsnews.com/news/8-charged-in-teens-boot-camp-death/'
p218
aS'http://www.youtube.com/watch?v=DIdYzIaX9hQ'
p219
aS'http://abcnews.go.com/US/story?id=92908'
p220
aS'http://www.webmd.com/heart-disease/heart-failure/tc/coenzyme-q10-topic-overview'
p221
aS'http://en.wikipedia.org/wiki/Coenzyme_Q10'
p222
aS'http://www.drweil.com/drw/u/ART03367/Coenzyme-Q10-CoQ10.html'
p223
aS'http://products.mercola.com/coq10-ubiquinol/'
p224
aS'http://umm.edu/health/medical/altmed/supplement/coenzyme-q10'
p225
aS'http://www.google.com/'
p226
aS'http://www.google.com/analytics/'
p227
aS'/search?q=google&biw=975&bih=440&source=univ&tbm=nws&tbo=u&sa=X&ei=RynPUvuHFpOjsQSRnYHwDA&ved=0CDUQqAI'
p228
aS'http://maps.google.com/'
p229
aS'http://earth.google.com/'
p230
aS'http://www.waterwell.com/'
p231
aS'http://www.greeneswaterwells.com/'
p232
aS'http://www.wisconsinwaterwell.com/'
p233
aS'http://www.youtube.com/watch?v=8K6V450StO4'
p234
aS'http://www.drillyourownwell.com/'
p235
aS'http://en.wikipedia.org/wiki/Abortion'
p236
aS'http://www.plannedparenthood.org/health-topics/abortion-4260.asp'
p237
aS'/search?q=abortion&biw=975&bih=440&source=univ&tbm=nws&tbo=u&sa=X&ei=UynPUufTMKa2sAT1iYD4Cw&ved=0CD8QqAI'
p238
aS'http://www.lifedynamics.com/Pro-life_Group/Pro-choice_Women/'
p239
aS'http://newsok.com/cultural-shift-seen-in-2013-abortion-death-penalty-data/article/3917735'
p240
aS'http://www.innerbody.com/'
p241
aS'/search?q=human+anatomy&biw=975&bih=440&tbm=isch&tbo=u&source=univ&sa=X&ei=WinPUtXBCojJsQTJy4HoCw&ved=0CDQQsAQ'
p242
aS'http://en.wikipedia.org/wiki/Human_body'
p243
aS'http://www.healthline.com/human-body-maps'
p244
aS'http://www.visiblebody.com/'
p245
aS'http://en.wikipedia.org/wiki/Islets_of_Langerhans'
p246
aS'http://www.thefreedictionary.com/isles+of+Langerhans'
p247
aS'http://www.diabetesresearch.org/islet-cells'
p248
aS'http://uncyclopedia.wikia.com/wiki/Islets_of_Langerhans'
p249
aS'http://www.medterms.com/script/main/art.asp?articlekey=4054'
p250
aS'http://en.wikipedia.org/wiki/Islets_of_Langerhans'
p251
aS'http://www.medterms.com/script/main/art.asp?articlekey=4054'
p252
aS'http://books.google.com/books?id=ldc5r4zG1lwC&pg=PT302&lpg=PT302&dq=islets+of+langhorne&source=bl&ots=tJ6yapY0wW&sig=pWrDdXMaeIZPCSAVrh15Qb51E_M&hl=en&sa=X&ei=ZinPUvLuMfjIsASpzIGADA&ved=0CDwQ6AEwAg'
p253
aS'http://www.almaany.com/en/dict/en-en/langhorne/'
p254
aS'http://www.nlm.nih.gov/medlineplus/ency/article/000393.htm'
p255
aS'http://www.isles.org/about'
p256
aS'http://www.isles.org/'
p257
aS'http://primohoagies.com/main/?page_id=937'
p258
aS'https://youthbuild.org/siteview/684/info'
p259
aS'https://www.facebook.com/IslesInc'
p260
aS'http://www.electricgeneratorsdirect.com/stories/36-How-to-Pick-the-Perfect-Home-Standby-Generator.html'
p261
aS'http://www.homedepot.com/b/Outdoors-Outdoor-Power-Equipment-Generators/N-5yc1vZbx8l'
p262
aS'http://www.generac.com/Residential'
p263
aS'http://www.amazon.com/gp/feature.html?ie=UTF8&docId=1000422531'
p264
aS'http://www.lowes.com/Electrical/Generators/Home-Standby-Generators/_/N-1z0x2n8/pl'
p265
aS'http://www.centuriongenerators.com/'
p266
aS'http://www.centuriongenerators.com/service/service.aspx'
p267
aS'http://www.centuriongenerators.com/products/wheretobuy.aspx'
p268
aS'https://www.centuriongenerators.com/products/standbygenerators/standbygenerators.aspx'
p269
aS'http://www.centuriongenerators.com/products/standbygenerators/faq.aspx'
p270
aS'http://www.forbes.com/'
p271
aS'http://www.forbes.com/forbes/'
p272
aS'http://www.forbes.com/fdc/welcome_mjx.shtml'
p273
aS'http://www.forbes.com/lists/'
p274
aS'http://www.forbes.com/most-popular/'
p275
aS'http://www.electricgeneratorsdirect.com/'
p276
aS'http://www.electricgeneratorsdirect.com/power/generac-generators.html'
p277
aS'http://www.electricgeneratorsdirect.com/power/honda-generators.html'
p278
aS'http://www.electricgeneratorsdirect.com/power/portable-generators.html'
p279
aS'http://www.electricgeneratorsdirect.com/contact_us.php'
p280
aS'http://www.generac.com/'
p281
aS'http://www.homedepot.com/b/Outdoors-Outdoor-Power-Equipment-Generators/N-5yc1vZbx8l'
p282
aS'http://www.amazon.com/Generators-Portable-Power-Outdoor-Equipment/b?ie=UTF8&node=552808'
p283
aS'http://www.briggsandstratton.com/us/en/generators'
p284
aS'http://www.electricgeneratorsdirect.com/'
p285
aS'/search?q=guardian+generators&biw=975&bih=440&source=univ&tbm=shop&tbo=u&sa=X&ei=kinPUuDkK4bfsASm-IHQAg&ved=0CCkQsxg'
p286
aS'http://www.generac.com/'
p287
aS'http://www.generac.com/Residential/GuardianSeries/'
p288
aS'http://www.electricgeneratorsdirect.com/generator-manufacturer-reviews/41-generac-guardian-generator-reviews.html'
p289
aS'http://www.northerntool.com/shop/tools/category_generators+residential-standby-generators'
p290
aS'http://www.irs.gov/Refunds/Where%27s-My-Refund-It%27s-Quick,-Easy,-and-Secure.'
p291
aS'http://www.myfamily.com/isapi.dll?c=site&htx=main'
p292
aS'http://www.myfamily.com/isapi.dll?c=h&htx=onlinetraining&school=GEN'
p293
aS'http://www.nixle.com/'
p294
aS'http://local.nixle.com/register/'
p295
aS'http://www.humanesociety.org/community/volunteers/'
p296
aS'https://secure.humanesociety.org/site/Advocacy;jsessionid=AED4A61564774FFEAD64706AD5C57717.app337b?cmd=display&page=UserAction&id=5823&autologin=true&s_src=web_shadow'
p297
aS'https://secure.humanesociety.org/site/SSurvey?ACTION_REQUIRED=URI_ACTION_USER_REQUESTS&SURVEY_ID=2820'
p298
aS'http://www.humanesociety.org/issues/seal_hunt/'
p299
aS'http://www.humanesociety.org/community/volunteers/volunteer-faith-outreach.html'
p300
aS'http://en.wikipedia.org/wiki/Clonazepam'
p301
aS'http://www.rxlist.com/klonopin-side-effects-drug-center.htm'
p302
aS'http://www.rxlist.com/klonopin-drug.htm'
p303
aS'http://www.medicinenet.com/clonazepam/article.htm'
p304
aS'http://www.nlm.nih.gov/medlineplus/druginfo/meds/a682279.html'
p305
aS'/search?q=venetian+bronze+door+handles&biw=975&bih=440&source=univ&tbm=shop&tbo=u&sa=X&ei=rCnPUoCCDYjTsASL2oCIDA&ved=0CCkQsxg'
p306
aS'http://www.amazon.com/s?rh=n%3A573759011%2Cp_n_material_two_browse-bin%3A542682011'
p307
aS'http://www.kwikset.com/about-kwikset/media-room/press-releases/06-11-04/KWIKSET%C2%AE_ANNOUNCES_VENETIAN_BRONZE%E2%84%A2_FINISH_FOR_COMPLETE_FAMILIES_OF_HANDLESETS_LEVERS_KNOBS_AND_DEADBOLTS.aspx'
p308
aS'http://www.directdoorhardware.com/oil_rubbed_bronze_hardware.htm'
p309
aS'http://www.homedepot.com/p/Kwikset-Juno-Venetian-Bronze-Hall-Closet-Knob-720J-11P-CP/100597341'
p310
aS'http://emtek.com/'
p311
aS'http://www.amazon.com/b?node=511276'
p312
aS'http://www.lowes.com/Hardware/Door-Hardware/_/N-1z0zqug/pl'
p313
aS'http://www.somervillelumber.com/'
p314
aS'http://www.hbsnj.com/'
p315
aS'/search?q=woodwickcandles&biw=975&bih=440&source=univ&tbm=shop&tbo=u&sa=X&ei=uCnPUrSfLq6-sQSIooCgDA&ved=0CCkQsxg'
p316
aS'http://www.woodwick-candles.com/'
p317
aS'http://www.virginiagiftbrands.com/'
p318
aS'http://www.bedbathandbeyond.com/1/3/woodwick-candles'
p319
aS'https://www.davlinswoods.com/Entire-List-WoodWick-Candles/'
p320
as.