ccollections
defaultdict
p1
(c__builtin__
list
p2
tRp3
S'4541717'
p4
(lp5
S'http://www.united.com/'
p6
aS'https://www.united.com/web/en-Us/Content/reservations/default.aspx'
p7
aS'http://www.united.com/travel/checkin/start.aspx'
p8
aS'https://www.united.com/web/en-us/apps/travel/flightstatus/default.aspx'
p9
aS'https://www.united.com/web/en-US/content/mileageplus/awards/default.aspx'
p10
aS'http://www.investors.com/'
p11
aS'http://news.investors.com/'
p12
aS'http://research.investors.com/screen-center'
p13
aS'http://research.investors.com/'
p14
aS'http://research.investors.com/stock-checkup'
p15
aS'http://www.universityofcalifornia.edu/'
p16
aS'http://www.berkeley.edu/'
p17
aS'http://en.wikipedia.org/wiki/University_of_California'
p18
aS'http://www.ucdavis.edu/'
p19
aS'http://www.ucla.edu/'
p20
aS'/search?q=reese+witherspoon&biw=975&bih=440&source=univ&tbm=nws&tbo=u&sa=X&ei=2SnPUrWUEuW_sQSQsIL4Cw&ved=0CCwQqAI'
p21
aS'http://www.imdb.com/name/nm0000702/'
p22
aS'http://en.wikipedia.org/wiki/Reese_Witherspoon'
p23
aS'http://www.people.com/people/reese_witherspoon/'
p24
aS'http://www.justjared.com/tags/reese-witherspoon/'
p25
aS'/search?q=reese+witherspoon&biw=975&bih=440&source=univ&tbm=nws&tbo=u&sa=X&ei=3ynPUqf6I8vHsASW-4CoDA&ved=0CCkQqAI'
p26
aS'http://www.imdb.com/name/nm0000702/'
p27
aS'http://en.wikipedia.org/wiki/Reese_Witherspoon'
p28
aS'http://www.people.com/people/reese_witherspoon/'
p29
aS'http://www.justjared.com/tags/reese-witherspoon/'
p30
aS'http://www.sfsuperiorcourt.org/'
p31
aS'http://www.sfsuperiorcourt.org/online-services'
p32
aS'http://www.sfsuperiorcourt.org/divisions/criminal'
p33
aS'http://www.sfsuperiorcourt.org/divisions/civil'
p34
aS'http://www.sfsuperiorcourt.org/divisions/jury-services/jury-reporting'
p35
aS'http://www.wccsports.com/'
p36
aS'http://www.wccsports.com/sports/m-baskbl/west-m-baskbl-body.html'
p37
aS'http://www.wccsports.com/sports/m-basebl/west-m-basebl-body.html'
p38
aS'http://www.wccsports.com/sports/w-soccer/west-w-soccer-body.html'
p39
aS'http://www.wccsports.com/sports/w-volley/west-w-volley-body.html'
p40
aS'http://en.wikipedia.org/wiki/Christopher_Reeve'
p41
aS'http://www.imdb.com/name/nm0001659/'
p42
aS'http://www.christopherreeve.org/'
p43
aS'http://www.christopherreeve.org/site/c.ddJFKRNoFiG/b.4431483/'
p44
aS'http://www.washingtonpost.com/wp-dyn/articles/A99660-1995Jun1.html'
p45
aS'http://en.wikipedia.org/wiki/Carlos_Leon'
p46
aS'http://www.imdb.com/name/nm0502458/'
p47
aS'http://www.dailymail.co.uk/tvshowbiz/article-2367316/Madonnas-ex-Carlos-Leon-marries-designer-Betina-Holte--daughter-Lourdes-attends-wedding.html'
p48
aS'http://www.huffingtonpost.com/tag/carlos-leon'
p49
aS'http://radaronline.com/category/tags/carlos-leon/'
p50
aS'http://www.imdb.com/name/nm0005363/'
p51
aS'http://en.wikipedia.org/wiki/Guy_Ritchie'
p52
aS'/search?q=guy+ritchie&biw=975&bih=440&source=univ&tbm=nws&tbo=u&sa=X&ei=_ynPUrDSG6fMsQSWj4HwCw&ved=0CD8QqAI'
p53
aS'http://www.rottentomatoes.com/celebrity/guy_ritchie/'
p54
aS'http://movies.yahoo.com/person/guy-ritchie/'
p55
aS'http://www.sfassessor.org/'
p56
aS'http://www.sfassessor.org/index.aspx?page=80'
p57
aS'http://www.sfassessor.org/index.aspx?page=76'
p58
aS'http://www.sfassessor.org/index.aspx?page=77'
p59
aS'http://www.sfassessor.org/index.aspx?page=33'
p60
aS'http://www.sfgiants.com/'
p61
aS'http://sanfrancisco.giants.mlb.com/schedule/?c_id=sf'
p62
aS'http://sanfrancisco.giants.mlb.com/ticketing/index.jsp?c_id=sf'
p63
aS'http://mlb.mlb.com/sf/ticketing/group_special_events.jsp'
p64
aS'http://sanfrancisco.giants.mlb.com/mlb/scoreboard/index.jsp?c_id=sf'
p65
aS'http://minus.com/'
p66
aS'http://en.wikipedia.org/wiki/Hyphen'
p67
aS'http://www.kiwisbybeat.com/minus.html'
p68
aS'http://www.m-nus.com/'
p69
aS'http://www.hyphenmagazine.com/'
p70
aS'http://www.bishopdiego.org/'
p71
aS'http://www.bishopdiego.org/page.cfm?p=547'
p72
aS'http://www.bishopdiego.org/page.cfm?p=499'
p73
aS'http://www.bishopdiego.org/page.cfm?p=535'
p74
aS'http://www.bishopdiego.org/page.cfm?p=510'
p75
aS'http://www.priceline.com/'
p76
aS'http://www.priceline.com/hotels'
p77
aS'http://www.priceline.com/promo/lastminute/'
p78
aS'https://www.priceline.com/flights/'
p79
aS'http://www.priceline.com/hotel-freebies/'
p80
aS'http://www.expedia.com/'
p81
aS'http://www.expedia.com/Flights'
p82
aS'http://www.expedia.com/Hotel-Search'
p83
aS'http://www.expedia.com/Hotels'
p84
aS'http://www.expedia.com/All-Inclusive-Vacations'
p85
aS'http://www.avis.com/'
p86
aS'http://www.avis.com/car-rental/html/landing/philadelphia-rental.html'
p87
aS'http://www.avis.com/car-rental/reservation/find-reservation.ac'
p88
aS'http://www.avis.com/car-rental/location/loclanding.ac?navId=T2M00S00'
p89
aS'http://www.avis.com/car-rental/location/loclanding.ac?navId=T2M00S01'
p90
aS'http://www.tetratech.com/'
p91
aS'http://www.tetratech.com/careers.html'
p92
aS'http://www.tetratech.com/about/locations.html'
p93
aS'http://www.tetratech.com/about/contact-us.html'
p94
aS'http://www.tetratech.com/about/about.html'
p95
aS'http://www.chucknorris.com/'
p96
aS'http://en.wikipedia.org/wiki/Chuck_Norris'
p97
aS'http://www.chucknorrisfacts.com/'
p98
aS'http://www.chucknorrisfacts.com/chuck-norris-top-50-facts'
p99
aS'http://www.imdb.com/name/nm0001569/'
p100
aS'http://www.imdb.com/name/nm0000602/'
p101
aS'http://en.wikipedia.org/wiki/Robert_Redford'
p102
aS'/search?q=robert+redford&biw=975&bih=440&source=univ&tbm=nws&tbo=u&sa=X&ei=PirPUv2aF87IsATgnIGIDA&ved=0CD8QqAI'
p103
aS'http://www.biography.com/people/robert-redford-9453490'
p104
aS'http://www.rottentomatoes.com/celebrity/robert_redford/'
p105
aS'http://www.tonyrobbins.com/'
p106
aS'http://en.wikipedia.org/wiki/Tony_Robbins'
p107
aS'https://twitter.com/tonyrobbins'
p108
aS'http://www.ted.com/talks/tony_robbins_asks_why_we_do_what_we_do.html'
p109
aS'https://www.facebook.com/TonyRobbins'
p110
aS'http://en.wikipedia.org/wiki/AT%26T_Wireless_Services'
p111
aS'http://en.wikipedia.org/wiki/Craig_McCaw'
p112
aS'http://www.forbes.com/profile/craig-mccaw/'
p113
aS'http://www.nndb.com/company/849/000124477/'
p114
aS'http://www.achievement.org/autodoc/page/mcc0bio-1'
p115
aS'http://bigcharts.marketwatch.com/'
p116
aS'http://bigcharts.marketwatch.com/historical/'
p117
aS'http://bigcharts.marketwatch.com/quickchart/quickchart.asp?symb=DJIA'
p118
aS'http://bigcharts.marketwatch.com/quotes/'
p119
aS'http://bigcharts.marketwatch.com/quickchart/quickchart.asp?symb=COMP'
p120
aS'http://www.neimanmarcus.com/'
p121
aS'http://www.neimanmarcus.com/stores/store.jsp?storeId=01/DT'
p122
aS'http://www.neimanmarcus.com/Sale/cat980731/c.cat'
p123
aS'http://www.neimanmarcus.com/Shoes/cat000141/c.cat'
p124
aS'http://www.neimanmarcus.com/stores/index.jsp?_requestid=22333'
p125
aS'http://amgtrustlaw.com/'
p126
aS'http://www.healthgrades.com/physician/dr-scott-gherini-ym76j'
p127
aS'http://www.sdma.com/john-gherini/'
p128
aS'http://www.linkedin.com/in/andreagherini'
p129
aS'http://www.linkedin.com/in/annemgherini'
p130
aS'http://www.budget.com/'
p131
aS'http://www.budget.com/budgetWeb/locationsearch/location.ex?action=locationsearch'
p132
aS'http://www.budget.com/budgetWeb/html/en/cars/index.html?MID=pp_usairtriple_cartypes'
p133
aS'https://www.budget.com/budgetWeb/reservation/initializer.ex?action=reset'
p134
aS'http://www.budget.com/budgetWeb/locationsearch/location.ex'
p135
aS'http://www.avis.com/'
p136
aS'http://www.avis.com/car-rental/location/loclanding.ac?navId=T2M00S00'
p137
aS'http://www.avis.com/car-rental/content/carGuide.ac?navId=T4M01S00'
p138
aS'http://www.avis.com/car-rental/content/display.ac?navId=T5M00S00'
p139
aS'http://locations.avis.com/nj/princeton/prn.html?IATA=0105965L'
p140
aS'http://en.wikipedia.org/wiki/Bob_Knight'
p141
aS'http://www.youtube.com/watch?v=7Qxu5cvW-ds'
p142
aS'http://www.texastech.com/sports/m-baskbl/mtt/knight_bob00.html'
p143
aS'http://www.sports-reference.com/cbb/coaches/bob-knight-1.html'
p144
aS'http://www.brainyquote.com/quotes/authors/b/bobby_knight.html'
p145
aS'http://www.smithandco.com/'
p146
aS'http://www.smithandco.com/Smith_and_Co/Steve_Smith.html'
p147
aS'http://smithandco.com/Home.html'
p148
aS'http://www.smithandcompany.com/'
p149
aS'http://www.smith-company.com/'
p150
aS'http://www.smithandco.com/'
p151
aS'http://www.smithandco.com/Smith_and_Co/Steve_Smith.html'
p152
aS'http://smithandco.com/Home.html'
p153
aS'http://www.smithandcompany.com/'
p154
aS'http://www.smith-company.com/'
p155
aS'http://smithcpas.com/'
p156
aS'http://www.smithcpas.com/staff.html'
p157
aS'http://www.smithcpas.com/pay_bill.html'
p158
aS'http://www.smithcpas.com/accounting_services.html'
p159
aS'http://www.smithcpas.com/mission.html'
p160
aS'http://www.jimmyv.org/about-us/remembering-jim/jim-valvano-timeline/'
p161
aS'http://en.wikipedia.org/wiki/Jim_Valvano'
p162
aS'http://www.youtube.com/watch?v=HuoVM9nm42E'
p163
aS'http://www.nytimes.com/1993/04/29/obituaries/jim-valvano-colorful-college-basketball-coach-is-dead-at-47.html'
p164
aS'http://sportsillustrated.cnn.com/vault/topic/article/Jim_Valvano/1900-01-01/2100-12-31/dd/index.htm'
p165
aS'http://www.usfca.edu/'
p166
aS'http://www.usfca.edu/undergraduate/'
p167
aS'http://www.usfca.edu/nursing/'
p168
aS'http://www.usfca.edu/graduate/'
p169
aS'http://www.usfca.edu/soe/'
p170
aS'http://www.united.com/'
p171
aS'https://www.united.com/web/en-Us/Content/reservations/default.aspx'
p172
aS'http://www.united.com/travel/checkin/start.aspx'
p173
aS'https://www.united.com/web/en-us/apps/travel/flightstatus/default.aspx'
p174
aS'https://www.united.com/web/en-US/content/mileageplus/awards/default.aspx'
p175
aS'http://www.valueline.com/'
p176
aS'http://www.valueline.com/Products/Stock_Products/The_Value_Line_Investment_Survey.aspx'
p177
aS'https://jump.valueline.com/login.aspx'
p178
aS'http://www.valueline.com/account/overview.aspx'
p179
aS'http://www.investopedia.com/articles/stocks/12/value-line-investment-survey.asp'
p180
aS'http://www.mercurynews.com/'
p181
aS'http://www.mercurynews.com/sports'
p182
aS'http://www.mercurynews.com/entertainment'
p183
aS'http://www.mercurynews.com/breaking-news'
p184
aS'http://www.mercurynews.com/obituaries'
p185
aS'http://www.macys.com/'
p186
aS'http://www1.macys.com/shop/womens-clothing?id=118'
p187
aS'http://www1.macys.com/credit/paybill/paybillhome?cm_sp=navigation-_-bottom_nav-_-pay_bill_online'
p188
aS'http://www.macys.com/registry'
p189
aS'http://www1.macys.com/shop/for-the-home?id=22672'
p190
aS'http://www.williams-sonoma.com/'
p191
aS'http://www.williams-sonoma.com/recipe/'
p192
aS'http://www.williams-sonoma.com/shop/williams-sonoma-home/'
p193
aS'https://secure.williams-sonoma.com/registry/'
p194
aS'http://www.williams-sonoma.com/customer-service/store-locator.html'
p195
aS'http://www.flyfrontier.com/flight-info/at-the-airport/airports/san-francisco'
p196
aS'http://www.flyfrontier.com/flight-info/at-the-airport/airports'
p197
aS'http://www.flysfo.com/flight-info/airlines-at-sfo'
p198
aS'http://www.travelnerd.com/airports/san-francisco-airport-SFO/terminal-map'
p199
aS'http://san-francisco-sfo.worldairportguides.com/terminals.php'
p200
aS'http://www.blossomshopne.com/'
p201
aS'http://www.blossomshopne.com/birthday-flowers-84c.asp'
p202
aS'http://www.blossomshopne.com/scottsbluff-florist/sympathy-funeral-flowers-87c.asp'
p203
aS'http://www.blossomshopne.com/'
p204
aS'http://flowersonbroadwayscottsbluff.com/'
p205
aS'http://www.emporiumdining.com/'
p206
aS'http://www.tripadvisor.com/Restaurant_Review-g45816-d601695-Reviews-Emporium_Coffeehouse_Cafe-Scottsbluff_Nebraska.html'
p207
aS'http://www.yelp.com/biz/emporium-coffeehouse-and-cafe-scottsbluff'
p208
aS'https://www.facebook.com/pages/The-Emporium/224059954289674'
p209
aS'http://www.urbanspoon.com/r/232/1108600/restaurant/Nebraska/Emporium-Scottsbluff'
p210
aS'http://www.dmv.ca.gov/'
p211
aS'http://www.dmv.ca.gov/online/vrir/vr_top2.htm'
p212
aS'http://www.dmv.ca.gov/dl/dl_rdc.htm'
p213
aS'http://www.dmv.ca.gov/vr/vr.htm'
p214
aS'https://www.dmv.ca.gov/vr/renewal.htm'
p215
aS'/search?q=southern+farms&biw=975&bih=440&tbm=isch&tbo=u&source=univ&sa=X&ei=0CrPUvO-BamgsASrqIGIDA&ved=0CCkQsAQ'
p216
aS'http://www.southernfarmsupply.com/'
p217
aS'http://www.southernbellefarm.com/'
p218
aS'http://www.sfbli.com/'
p219
aS'http://www.southerngracefarms.com/'
p220
aS'http://www.fun-with-words.com/word_gry_angry_hungry.html'
p221
aS'http://www.merriam-webster.com/help/faq/gryquestion.htm'
p222
aS'http://www.snopes.com/language/puzzlers/gry.asp'
p223
aS'http://www.ipl.org/div/farq/gryFARQ.html'
p224
aS'https://xkcd.com/169/'
p225
aS'http://www.sfgov.org/'
p226
aS'http://www6.sfgov.org/index.aspx?page=6'
p227
aS'http://www6.sfgov.org/index.aspx?page=4'
p228
aS'http://www6.sfgov.org/index.aspx?page=40'
p229
aS'http://www6.sfgov.org/index.aspx?page=2'
p230
aS'http://www.sfsuperiorcourt.org/'
p231
aS'http://www.sfsuperiorcourt.org/online-services'
p232
aS'http://www.sfsuperiorcourt.org/divisions/traffic'
p233
aS'http://www.sfsuperiorcourt.org/divisions/civil'
p234
aS'http://www.sfsuperiorcourt.org/divisions/criminal'
p235
aS'http://en.wikipedia.org/wiki/Felicity_Huffman'
p236
aS'http://www.imdb.com/name/nm0005031/'
p237
aS'/search?q=felicity+huffman&biw=975&bih=440&source=univ&tbm=nws&tbo=u&sa=X&ei=6SrPUuOdLpDjsATD3YGIDA&ved=0CD8QqAI'
p238
aS'https://twitter.com/FelicityHuffman'
p239
aS'http://felicity-huffman.org/'
p240
aS'http://www.imdb.com/name/nm0000158/'
p241
aS'http://en.wikipedia.org/wiki/Tom_Hanks'
p242
aS'/search?q=tom+hanks&biw=975&bih=440&source=univ&tbm=nws&tbo=u&sa=X&ei=7yrPUoWhMKqtsATW14GIDA&ved=0CD8QqAI'
p243
aS'https://twitter.com/tomhanks'
p244
aS'http://www.rottentomatoes.com/celebrity/tom_hanks/'
p245
aS'http://www.southwest.com/'
p246
aS'http://www.southwest.com/flight/retrieveCheckinDoc.html'
p247
aS'http://travel.southwest.com/'
p248
aS'http://www.southwest.com/flight?int=GNAVBOOKAIR'
p249
aS'http://www.southwest.com/flight/request-schedule.html?int=GSUBNAV-AIR-SCHEDULES'
p250
aS'http://www.apothecaryproducts.com/'
p251
aS'https://www.apothecaryproducts.com/customer/account/'
p252
aS'http://www.apothecaryproducts.com/new-store-master-pharmacy-kit-contains-41-apothecary-products-items.html'
p253
aS'http://www.apothecaryproducts.com/contacts'
p254
aS'http://www.apothecaryproducts.com/privacy_policy'
p255
aS'http://smithcpas.com/'
p256
aS'http://www.smithandcompanycpas.com/'
p257
aS'http://www.smithcompany-cpa.com/'
p258
aS'http://smithandcocpa.com/'
p259
aS'http://www.linkedin.com/company/smith-&-company-cpa%27s-pllc'
p260
aS'/search?q=meryl+streep&biw=975&bih=440&source=univ&tbm=nws&tbo=u&sa=X&ei=CSvPUq-SKOjSsASP0YDwCw&ved=0CCkQqAI'
p261
aS'http://en.wikipedia.org/wiki/Meryl_Streep'
p262
aS'http://www.imdb.com/name/nm0000658/'
p263
aS'http://www.cbsnews.com/news/meryl-streep-slams-walt-disney-as-racist-antisemitic/'
p264
aS'http://www.foxnews.com/entertainment/2014/01/09/meryl-streep-calls-walt-disney-gender-bigot-in-award-presentation-speech/'
p265
aS'http://taxes.about.com/od/deductionscredits/a/domesticproduct.htm'
p266
aS'http://en.wikipedia.org/wiki/Qualified_Production_Activities_Income'
p267
aS'http://www.irs.gov/pub/irs-pdf/i8903.pdf'
p268
aS'http://www.investopedia.com/terms/q/qualified-production-activities-income.asp'
p269
aS'http://www.law.cornell.edu/uscode/text/26/199'
p270
aS'https://www.sanmateocourt.org/'
p271
aS'http://www.sanmateocourt.org/court_divisions/traffic/'
p272
aS'http://www.sanmateocourt.org/general_info/locations_and_contact_info/'
p273
aS'http://www.sanmateocourt.org/online_services/'
p274
aS'http://www.sanmateocourt.org/court_divisions/juror_services/reporting_instructions.php'
p275
aS'https://www.sanmateocourt.org/'
p276
aS'http://www.sanmateocourt.org/court_divisions/traffic/'
p277
aS'http://www.sanmateocourt.org/general_info/locations_and_contact_info/'
p278
aS'http://www.sanmateocourt.org/online_services/'
p279
aS'http://www.sanmateocourt.org/court_divisions/juror_services/reporting_instructions.php'
p280
aS'http://www.selawardtv.com/'
p281
aS'http://www.imdb.com/name/nm0000688/'
p282
aS'http://en.wikipedia.org/wiki/Sela_Ward'
p283
aS'https://www.facebook.com/SelaWardOfficial'
p284
aS'http://www.askmen.com/celebs/women/actress_60/93_sela_ward.html'
p285
aS'http://www.michelegreene.com/'
p286
aS'http://www.imdb.com/name/nm0338872/'
p287
aS'http://en.wikipedia.org/wiki/Michele_Greene'
p288
aS'http://en.wikipedia.org/wiki/Ashley_Greene'
p289
aS'http://www.fandango.com/michelegreene/filmography/p28552'
p290
aS'http://www.robinwilliams.com/'
p291
aS'http://en.wikipedia.org/wiki/Robin_Williams'
p292
aS'http://www.imdb.com/name/nm0000245/'
p293
aS'https://twitter.com/robinwilliams'
p294
aS'http://www.youtube.com/watch?v=nIWB-Neyj-c'
p295
aS'http://www.buildzoom.com/contractor/john-paul-bradbury-jr'
p296
aS'http://www.linkedin.com/in/thebradburygroup'
p297
aS'http://www.geni.com/people/Paul-Bradbury/1767376'
p298
aS'http://www.peoplefinders.com/p/paul+bradbury/1-184041747'
p299
aS'http://www.whitepages.com/name/Paul-Bradbury/Massachusetts'
p300
aS'http://www.rain.org/campinternet/channelhistory/expedition3/santacruz/gherinifamily.html'
p301
aS'http://articles.latimes.com/1989-07-14/news/mn-3742_1_santa-cruz-island'
p302
aS'http://articles.latimes.com/1990-05-24/news/vl-597_1_francis-gherini-john-gherini-gherini-ranch/3'
p303
aS'http://algoxy.com/missingknowledge/209449.html'
p304
aS'http://www.amazon.com/Santa-Cruz-Island-Conflict-Diversity/dp/0870622641'
p305
aS'https://www.facebook.com/thomas.gherini'
p306
aS'https://www.facebook.com/public/Tom-Gherini'
p307
aS'/search?q=tom+gherini&biw=975&bih=440&tbm=isch&tbo=u&source=univ&sa=X&ei=QivPUv6cI-misQSivICYDA&ved=0CDQQsAQ'
p308
aS'http://www.whitepages.com/name/Thomas-Gherini/California'
p309
aS'http://www.linkedin.com/pub/thomas-gherini/5/701/739'
p310
aS'http://proxyweb.com.es/'
p311
aS'http://urlm.co/www.proxyweb.com'
p312
aS'http://www.hidemyass.com/proxy/'
p313
aS'https://www.kproxy.com/'
p314
aS'http://www.freeproxy.ru/en/free_proxy/cgi-proxy.htm'
p315
aS'http://espn.go.com/'
p316
aS'http://espn.go.com/nfl/'
p317
aS'http://games.espn.go.com/'
p318
aS'http://espn.go.com/college-football/'
p319
aS'http://espn.go.com/nhl/'
p320
aS'http://www.cnn.com/'
p321
aS'http://edition.cnn.com/'
p322
aS'http://www.cnn.com/POLITICS/'
p323
aS'http://money.cnn.com/'
p324
aS'http://www.cnn.com/video/'
p325
aS'http://www.iogen.ca/'
p326
aS'http://en.wikipedia.org/wiki/Iogen_Corporation'
p327
aS'http://www.iogen.com/'
p328
aS'http://iogen.fi/'
p329
aS'http://www.ottawacitizen.com/technology/Iogen+signs+deal+build+biomass+ethanol+plant+Brazil/9224884/story.html'
p330
aS'http://www.pronovias.com/'
p331
aS'http://www.pronovias.com/wedding-dresses-2014'
p332
aS'http://www.pronovias.com/store-finder'
p333
aS'http://www.pronovias.us/wedding-dresses-2013'
p334
aS'http://www.pronovias.mobi/'
p335
aS'http://www.usfca.edu/'
p336
aS'http://www.usfca.edu/undergraduate/'
p337
aS'http://www.usfca.edu/graduate/'
p338
aS'http://www.usfca.edu/'
p339
aS'http://www.sfsu.edu/downtown'
p340
aS'http://en.wikipedia.org/wiki/Prenuptial_agreement'
p341
aS'http://www.bankrate.com/brm/prenup.asp'
p342
aS'http://www.wikihow.com/Obtain-a-Prenuptial-Agreement'
p343
aS'http://www.institutedfa.com/Public.php?Articles-Prenuptial-Agreements-and-Marriage-Contracts-22'
p344
aS'http://marriage.about.com/cs/agreements/a/loveormoney.htm'
p345
aS'http://www.realtor.com/realestateandhomes-search/Scottsbluff_NE'
p346
aS'http://www.zillow.com/scottsbluff-ne/'
p347
aS'http://www.c21hometeam.net/'
p348
aS'http://c21hometeam.net/'
p349
aS'http://www.realliving.com/Gateway-Realty-Scottsbluff'
p350
aS'http://www.svdp-sanmateoco.org/'
p351
aS'http://www.svdp-sanmateoco.org/contact.html'
p352
aS'http://www.svdp-sanmateoco.org/donategoods.html'
p353
aS'http://www.svdp-sanmateoco.org/stores.html'
p354
aS'http://www.svdp-sanmateoco.org/homeless.html'
p355
aS'http://www.calclub.org/'
p356
aS'http://www.yelp.com/biz/california-golf-club-of-san-francisco-south-san-francisco'
p357
aS'http://www.golfclubatlas.com/courses-by-country/usa/california-golf-club-of-san-franciso/'
p358
aS'http://www.thegolfclubatfallbrook.com/'
p359
aS'http://www.golf.com/photos/top-100-courses-newcomers/california-golf-club-san-francisco'
p360
aS'http://en.wikipedia.org/wiki/Lamchin'
p361
aS'http://en.wikipedia.org/wiki/West_Menlo_Park,_California'
p362
aS'http://www.mapquest.com/maps?city=Belmont&state=CA&address=751+Alameda+de+las+Pulgas'
p363
aS'http://www.zillow.com/homedetails/606-Alameda-De-Las-Pulgas-Belmont-CA-94002/15547421_zpid/'
p364
aS'http://www.redfin.com/CA/Atherton/238-Alameda-De-Las-Pulgas-94027/home/2054466'
p365
aS'http://www.smcare.org/clerk/marriage/obtain_license.asp'
p366
aS'http://www.smcare.org/clerk/marriage/'
p367
aS'http://www.smcare.org/clerk/marriage/certified_cm_certificates.asp'
p368
aS'http://www.usmarriagelaws.com/search/united_states/california/marriage_licenses/san_mateo_county.shtml'
p369
aS'http://www.cityapplications.com/marriage-licenses/CA-California/mrg-SanMateo.html'
p370
aS'http://www.linkedin.com/in/maryjopotter'
p371
aS'/search?q=mary+jo+potter&biw=975&bih=440&tbm=isch&tbo=u&source=univ&sa=X&ei=livPUtf5B6jSsASHvYCgDA&ved=0CDAQsAQ'
p372
aS'http://www.sesp.northwestern.edu/news-center/inquiry/2008-spring/mary-jo-potter.html'
p373
aS'http://highperlink.com/mjp_bio.html'
p374
aS'https://www.facebook.com/mary.j.potter.5'
p375
aS'http://www.denvercoachshuttle.com/'
p376
aS'http://www.denvercoachshuttle.com/cities.html'
p377
aS'http://flights.expedia.com/flights-from-denver-to-scottsbluff-den-to-bff/'
p378
aS'https://flydenver.com/commutershuttles'
p379
aS'https://www.facebook.com/pages/Denver-Coach-Daily-Shuttle/159118127455033'
p380
aS'http://www.linkedin.com/pub/kristin-hueter/4/317/b75'
p381
aS'http://www.linkedin.com/pub/dir/Kristin/Hueter'
p382
aS'http://www.linkedin.com/pub/kristen-hueter/12/a6b/8a8'
p383
aS'/search?q=kristin+hueter&biw=975&bih=440&tbm=isch&tbo=u&source=univ&sa=X&ei=oyvPUuiFA7KlsQTl94CIDQ&ved=0CDwQsAQ'
p384
aS'https://www.facebook.com/pages/Kristin-Hueter-Associates/113590235365541'
p385
aS'http://www.southwest.com/'
p386
aS'http://www.southwest.com/flight/retrieveCheckinDoc.html'
p387
aS'http://travel.southwest.com/'
p388
aS'http://www.southwest.com/flight?int=GNAVBOOKAIR'
p389
aS'http://www.southwest.com/flight/request-schedule.html?int=GSUBNAV-AIR-SCHEDULES'
p390
aS'http://www.denvercoachshuttle.com/'
p391
aS'http://www.denvercoachshuttle.com/cities.html'
p392
aS'https://flydenver.com/commutershuttles'
p393
aS'http://flights.expedia.com/flights-from-denver-to-scottsbluff-den-to-bff/'
p394
aS'http://www.airportshuttles.net/ne_western.shtml'
p395
aS'/aclk?sa=L&ai=C7TsAtyvPUv2WGK7i6wGlvoHYBei4n_EBqOrm_CKMx-IECAUQAVCdvOmE-f____8BYMmOzIqspMwWyAEBqgQcT9DIzgVPl7CrGaKfdFG9wzrldhx-1haGkHHQ7KAGGoAH8I7mF5AHAw&sig=AOD64_2wFy63mY_QDNo1qH-WXnt0vpay_g&xparam=d%3D2014-01-19%26n%3D1&ved=0CKkBELgd&adurl=http://www.google.com/hotels/ad%3Fl%3DLincoln,%2BNebraska%26q%3Dlincoln%2Bne%2Bhotel%26gl%3DUS%26cu_link%3D1'
p396
aS'http://www.expedia.com/Lincoln-Hotels.d602964.Travel-Guide-Hotels'
p397
aS'http://www.tripadvisor.com/Hotels-g45667-Lincoln_Nebraska-Hotels.html'
p398
aS'http://www.priceline.com/cheap-hotels-lincoln-nebraska-NE-tk-c305540-hl.hotel-reviews-hotel-guides'
p399
aS'http://www.hotelscombined.com/Place/Lincoln_Nebraska.htm'
p400
aS'/aclk?sa=L&ai=Cj4prvSvPUvbdL--h6QH5r4GYB-i4n_EBqOrm_CKMx-IECAUQAVD2qPGG_f____8BYMmOzIqspMwWyAEBqgQcT9Ahy_Rys7VBnwOlM5W3fc3x8Ux62DWyOlwFD6AGGoAH8I7mF5AHAw&sig=AOD64_2Ku5lDNzIufd5i8Hkns0f9gZ-H-g&xparam=d%3D2014-01-19%26n%3D1&ved=0CKkBELgd&adurl=http://www.google.com/hotels/ad%3Fl%3DLincoln,%2BNebraska%26q%3Dlincoln%2Bne%2Bhotels%26gl%3DUS%26cu_link%3D1'
p401
aS'http://www.expedia.com/Lincoln-Hotels.d602964.Travel-Guide-Hotels'
p402
aS'http://www.tripadvisor.com/Hotels-g45667-Lincoln_Nebraska-Hotels.html'
p403
aS'http://www.priceline.com/cheap-hotels-lincoln-nebraska-NE-tk-c305540-hl.hotel-reviews-hotel-guides'
p404
aS'http://embassysuites3.hilton.com/en/hotels/nebraska/embassy-suites-lincoln-LNKESES/'
p405
aS'http://www.mcnt.com/bios/dr._susan_overstreet.php'
p406
aS'/search?q=susan+overstreet&biw=975&bih=440&tbm=isch&tbo=u&source=univ&sa=X&ei=xCvPUp_uA9HlsASg2IKIDA&ved=0CC8QsAQ'
p407
aS'http://www.healthgrades.com/physician/dr-susan-overstreet-xddk4'
p408
aS'http://www.linkedin.com/pub/dir/Susan/Overstreet'
p409
aS'https://www.facebook.com/susan.overstreet1'
p410
aS'http://familytreemaker.genealogy.com/users/s/m/i/Brenda-Hope-Smith/WEBSITE-0001/UHP-0267.html'
p411
aS'/search?q=susan+jane+overstreet&biw=975&bih=440&tbm=isch&tbo=u&source=univ&sa=X&ei=yivPUrugGvfNsQSZgoKYDw&ved=0CC4QsAQ'
p412
aS'http://www.findagrave.com/cgi-bin/fg.cgi?page=gr&GRid=57031201'
p413
aS'http://www.findagrave.com/cgi-bin/fg.cgi?page=dfl&GRid=57031201'
p414
aS'http://www.findagrave.com/cgi-bin/fg.cgi?page=pv&GRid=57031201'
p415
aS'http://switcher.dmn.aol.com/sw/a'
p416
aS'http://www.similarsites.com/site/mail.ramojifilmcity.com'
p417
aS'http://www.similarsites.com/site/csgus.willis.com'
p418
aS'http://forums.majorgeeks.com/showthread.php?t=177061'
p419
aS'https://support.mozilla.org/questions/964411'
p420
aS'http://espn.go.com/'
p421
aS'http://espn.go.com/nfl/'
p422
aS'http://games.espn.go.com/'
p423
aS'http://espn.go.com/mlb/'
p424
aS'http://espn.go.com/mlb/standings'
p425
aS'http://www.usc.edu/'
p426
aS'http://www.usc.edu/admission/graduate/'
p427
aS'http://www.usc.edu/directories/'
p428
aS'http://about.usc.edu/'
p429
aS'http://email.usc.edu/'
p430
aS'http://www.kirstiealley.com/'
p431
aS'http://en.wikipedia.org/wiki/Kirstie_Alley'
p432
aS'/search?q=kirstie+alley&biw=975&bih=440&source=univ&tbm=nws&tbo=u&sa=X&ei=5CvPUv6-CaWhsATllYHgCw&ved=0CD0QqAI'
p433
aS'http://www.imdb.com/name/nm0000263/'
p434
aS'https://twitter.com/kirstiealley'
p435
aS'http://www.mustacchi.com/'
p436
aS'http://www.mustacchi.com/Pages/Contact.html'
p437
aS'http://www.mustacchi.com/Pages/Architectural.html'
p438
aS'http://www.mustacchi.com/Pages/Products.html'
p439
aS'http://www.mustacchi.com/Pages/Company.html'
p440
aS'http://www.mustacchi.com/'
p441
aS'http://www.mustacchi.com/Pages/Contact.html'
p442
aS'http://www.mustacchi.com/Pages/Architectural.html'
p443
aS'http://www.mustacchi.com/Pages/Products.html'
p444
aS'http://www.mustacchi.com/Pages/Company.html'
p445
as.