ccollections
defaultdict
p1
(c__builtin__
list
p2
tRp3
S'9247102'
p4
(lp5
S'http://www.simplyrecipes.com/recipes/classic_baked_chicken/'
p6
aS'http://www.foodnetwork.com/recipe-collections/baked-chicken/'
p7
aS'http://allrecipes.com/recipes/meat-and-poultry/chicken/baked-and-roasted/baked-chicken-breasts/'
p8
aS'/search?q=baked+chicken&biw=975&bih=440&tbm=isch&tbo=u&source=univ&sa=X&ei=_SvPUsGkO9PJsQSeyIHwCw&ved=0CFcQsAQ'
p9
aS'http://www.food.com/recipe/baked-chicken-111514'
p10
aS'http://www.youtube.com/watch?v=LEoGQU_k78k'
p11
aS'http://www.youtube.com/'
p12
aS'http://mail.yahoo.com/'
p13
aS'http://www.yahoo.com/'
p14
aS'http://ycombinator.com/'
p15
aS'http://www.webmd.com/allergies/guide/dog-allergies'
p16
aS'http://www.webmd.com/parenting/features/indoor-allergies-triggers'
p17
aS'http://www.webmd.com/allergies/tc/controlling-animal-dander-and-other-pet-allergens-topic-overview'
p18
aS'http://www.asthmacenter.com/index.php/News/details/pet_allergy/'
p19
aS'http://www.nytimes.com/health/guides/disease/allergy-to-mold-dander-dust/overview.html'
p20
aS'http://www.aaaai.org/conditions-and-treatments/library/at-a-glance/allergy-testing.aspx'
p21
aS'http://www.nlm.nih.gov/medlineplus/ency/article/003519.htm'
p22
aS'http://www.acaai.org/allergist/allergies/treatment/diagnosing-allergies/pages/allergy-testing.aspx'
p23
aS'http://www.webmd.com/allergies/guide/allergies-diagnosis-tests'
p24
aS'http://www.webmd.com/allergies/allergy-tests'
p25
aS'http://www.monroe.k12.nj.us/Page/3260'
p26
aS'http://www.amazon.com/Cretaceous-Dawn-Lisa-M-Graziano/dp/0981514839'
p27
aS'http://www.pinterest.com/dawnsleadd/pins/'
p28
aS'https://www.facebook.com/dawn.graziano2'
p29
aS'http://www.linkedin.com/pub/dawn-graziano/33/81b/685'
p30
aS'http://www.webmd.com/allergies/guide/spring-allergies'
p31
aS'http://www.webmd.com/allergies/guide/chronic-allergies-causes'
p32
aS'http://articles.mercola.com/sites/articles/archive/2013/04/18/allergy-season.aspx'
p33
aS'http://kidshealth.org/parent/medical/allergies/seasonal_allergies.html'
p34
aS'http://www.parents.com/advice/toddlers-preschoolers/toddler-health/when-does-a-child-develop-allergies/'
p35
aS'http://www.nhlbi.nih.gov/health/health-topics/topics/asthma/'
p36
aS'http://en.wikipedia.org/wiki/Asthma'
p37
aS'http://www.webmd.com/asthma/default.htm?names-dropdown=MO'
p38
aS'/search?q=asthma&biw=975&bih=440&source=univ&tbm=nws&tbo=u&sa=X&ei=IyzPUs0Ii8uxBO-pgYAL&ved=0CFQQqAI'
p39
aS'http://www.medicalnewstoday.com/info/asthma/'
p40
aS'http://en.wikipedia.org/wiki/Scoliosis'
p41
aS'http://www.webmd.com/osteoarthritis/guide/arthritis-scoliosis'
p42
aS'http://www.webmd.com/back-pain/tc/scoliosis-exams-and-tests'
p43
aS'http://www.triangleortho.com/news.asp?id=6'
p44
aS'http://www.tsrhc.org/scoliosis-screening'
p45
aS'http://www.nyu.edu/'
p46
aS'http://admissions.nyu.edu/'
p47
aS'http://www.law.nyu.edu/'
p48
aS'http://www.stern.nyu.edu/'
p49
aS'http://www.nyu.edu/studyabroad/'
p50
aS'http://www.uga.edu/'
p51
aS'http://www.gsu.edu/'
p52
aS'http://en.wikipedia.org/wiki/University_of_Georgia'
p53
aS'http://www.georgiadogs.com/'
p54
aS'http://www.usg.edu/'
p55
aS'https://www.njcu.edu/'
p56
aS'http://en.wikipedia.org/wiki/List_of_colleges_and_universities_in_New_Jersey'
p57
aS'https://www.rutgers.edu/'
p58
aS'http://www.nj.gov/highereducation/colleges/schools_alfa.htm'
p59
aS'http://www.princeton.edu/'
p60
aS'http://www.ucf.edu/'
p61
aS'http://www.ucf.edu/admissions/'
p62
aS'http://www.ucf.edu/athletics/'
p63
aS'http://www.graduate.ucf.edu/'
p64
aS'http://www.ucf.edu/apply-to-ucf/'
p65
aS'http://www.rollins.edu/'
p66
aS'http://r-net.rollins.edu/'
p67
aS'http://www.rollins.edu/admissions/'
p68
aS'http://en.wikipedia.org/wiki/Rollins_College'
p69
aS'http://www.rollinssports.com/'
p70
aS'http://www.upenn.edu/'
p71
aS'http://www.upenn.edu/admissions/'
p72
aS'http://www.upenn.edu/programs/'
p73
aS'http://en.wikipedia.org/wiki/University_of_Pennsylvania'
p74
aS'http://www.psu.edu/'
p75
aS'http://www.umd.edu/'
p76
aS'/search?q=maryland+university&biw=975&bih=440&source=univ&tbm=nws&tbo=u&sa=X&ei=VSzPUsj5KuiysQTR-IGgDA&ved=0CFEQqAI'
p77
aS'http://en.wikipedia.org/wiki/University_of_Maryland,_College_Park'
p78
aS'http://en.wikipedia.org/wiki/University_of_Maryland_University_College'
p79
aS'http://www.umterps.com/'
p80
aS'http://www.apta.org/'
p81
aS'http://ptjournal.apta.org/'
p82
aS'http://en.wikipedia.org/wiki/Physical_therapy'
p83
aS'http://premierpt.com/'
p84
aS'http://www.windsorhealthcare.org/merwick'
p85
aS'http://scholar.google.com/scholar?q=psychology+and+physical+therapy&hl=en&as_sdt=0&as_vis=1&oi=scholart&sa=X&ei=YizPUpj5J_fLsQSSgYKADA&ved=0CCgQgQMwAA'
p86
aS'http://psychology.wikia.com/wiki/Physical_therapy'
p87
aS'http://www.msmc.edu/Academics/Undergraduate/Academic_Programs/physical_therapy__psychology'
p88
aS'http://www.walsh.edu/pre-physical-therapy-psychology-major'
p89
aS'http://www.psychophysicaltherapy.com/'
p90
aS'http://www.calu.edu/'
p91
aS'http://en.wikipedia.org/wiki/California_University'
p92
aS'http://www.bkstr.com/webapp/wcs/stores/servlet/StoreCatalogDisplay?storeId=10422'
p93
aS'/search?q=california+university&biw=975&bih=440&tbm=isch&tbo=u&source=univ&sa=X&ei=aSzPUoqgB-jjsASn2ICIDA&ved=0CEIQsAQ'
p94
aS'http://www.ticketmaster.com/Convocation-Center-at-California-University-of-tickets-California/venue/180979'
p95
aS'http://allrecipes.com/recipe/corned-beef-and-cabbage-i/'
p96
aS'http://www.foodnetwork.com/recipes/alton-brown/corned-beef-and-cabbage-recipe/'
p97
aS'/search?q=corn+beef+and+cabbage&biw=975&bih=440&tbm=isch&tbo=u&source=univ&sa=X&ei=byzPUrrdMKLUsATdzYCQDQ&ved=0CE0QsAQ'
p98
aS'http://www.simplyrecipes.com/recipes/corned_beef_and_cabbage/'
p99
aS'http://www.food.com/recipe/n-y-c-corned-beef-and-cabbage-15846'
p100
aS'http://www.transamtruck.com/'
p101
aS'http://www.transamtruck.com/Contact-Us'
p102
aS'http://www.transamtruck.com/Drivers-And-Students/Benefits'
p103
aS'http://www.transamtruck.com/Login'
p104
aS'http://www.transamtruck.com/Office-And-Shop-Job-Openings'
p105
aS'http://www.cancer.gov/cancertopics/factsheet/Sites-Types/bone'
p106
aS'http://www.mayoclinic.org/diseases-conditions/bone-cancer/basics/definition/con-20028192'
p107
aS'http://www.medicalnewstoday.com/articles/171372.php'
p108
aS'http://www.nlm.nih.gov/medlineplus/bonecancer.html'
p109
aS'http://www.cancer.org/cancer/bonecancer/detailedguide/bone-cancer-what-is-bone-cancer'
p110
aS'http://en.wikipedia.org/wiki/Internet'
p111
aS'/search?q=internet&biw=975&bih=440&source=univ&tbm=nws&tbo=u&sa=X&ei=gizPUoeHDe6gsQShgIGADA&ved=0CE4QqAI'
p112
aS'http://windows.microsoft.com/en-us/internet-explorer/download-ie'
p113
aS'http://www.internetsociety.org/'
p114
aS'http://www.internet.org/'
p115
aS'http://en.wikipedia.org/wiki/Bratwurst'
p116
aS'http://allrecipes.com/recipe/wisconsin-bratwurst/'
p117
aS'http://www.johnsonville.com/products/original-bratwurst.html'
p118
aS'http://www.johnsonville.com/products/beer-n-bratwurst.html'
p119
aS'http://www.johnsonville.com/'
p120
aS'http://www.foodnetwork.com/recipes/ina-garten/potato-salad-recipe/'
p121
aS'http://allrecipes.com/recipes/salad/potato-salad/'
p122
aS'http://www.inspiredtaste.net/22809/simple-potato-salad-recipe/'
p123
aS'/search?q=potato+salad&biw=975&bih=440&tbm=isch&tbo=u&source=univ&sa=X&ei=jizPUt3mH6ipsQSR2IHwCw&ved=0CF0QsAQ'
p124
aS'http://en.wikipedia.org/wiki/Potato_salad'
p125
aS'/search?q=custard+pudding&biw=975&bih=440&tbm=isch&tbo=u&source=univ&sa=X&ei=lCzPUsSwK5HgsASwsoKADA&ved=0CCkQsAQ'
p126
aS'http://japanesefood.about.com/od/japanesedessertsweet/r/custardpudding.htm'
p127
aS'http://justonecookbook.com/recipes/custard-pudding/'
p128
aS'http://www.food.com/recipe/custard-pudding-245460'
p129
aS'http://www.youtube.com/watch?v=xOnxJ3nKvRE'
p130
aS'http://www.msmc.edu/Academics/Undergraduate/Academic_Programs/physical_therapy__psychology'
p131
aS'http://psychology.wikia.com/wiki/Physical_therapy'
p132
aS'http://www.walsh.edu/pre-physical-therapy-psychology-major'
p133
aS'http://www.psychophysicaltherapy.com/'
p134
aS'http://www.ncbi.nlm.nih.gov/pmc/articles/PMC2386432/'
p135
aS'http://www.quickenloans.com/home-buying/first-mortgage'
p136
aS'http://www.hud.gov/buying/comq.cfm'
p137
aS'https://www.wellsfargo.com/mortgage/buying-a-house/first-time-home-buyer/'
p138
aS'http://www.bankrate.com/finance/real-estate/5-first-time-homebuyer-mistakes.aspx'
p139
aS'https://www.usbank.com/mortgage/first-time-home-buyers.html'
p140
aS'/search?q=chicken+and+beans&biw=975&bih=440&tbm=isch&tbo=u&source=univ&sa=X&ei=pyzPUvS-OK3lsATBtoL4Cw&ved=0CDQQsAQ'
p141
aS'http://www.bettycrocker.com/recipes/easy-mexican-chicken-and-beans/8255ef47-1066-4c9f-8d2c-3a0462ca9596'
p142
aS'http://tidymom.net/2012/one-pot-chicken-and-beans/'
p143
aS'http://www.foodandwine.com/recipes/chicken-with-rice-and-beans'
p144
aS'http://www.katheats.com/easy-chicken-and-bean-bake'
p145
aS'http://aaaschooloftrucking.com/'
p146
aS'http://schneiderjobs.com/company-drivers/driving-school-programs'
p147
aS'http://local.dmv.org/pennsylvania/delaware-county/philadelphia/local-truck-driving-schools.php'
p148
aS'http://www.smithsolomon.com/'
p149
aS'http://www.aaaschooloftrucking.com/'
p150
aS'http://dinnerwithjulie.com/2009/04/06/slow-cooked-leg-of-lamb-with-garlic-lemon-and-rosemary-and-lemon-potatoes-with-garlic-oregano/'
p151
aS'http://www.epicurious.com/recipes/food/views/Moroccan-Slow-Cooked-Lamb-231597'
p152
aS'http://southernfood.about.com/od/lambrecipes/r/r71221i.htm'
p153
aS'http://www.jamieoliver.com/recipes/lamb-recipes/slow-cooked-shoulder-of-lamb-with-roasted-vegetables'
p154
aS'http://www.jamieoliver.com/recipes/lamb-recipes/incredible-roasted-shoulder-of-lamb-with-smashed-veg-and-greens'
p155
aS'http://dinnerwithjulie.com/2012/10/19/leg-of-lamb-slow-cooker/'
p156
aS'http://crockpot365.blogspot.com/2008/03/crockpot-leg-of-lamb-recipe.html'
p157
aS'http://southernfood.about.com/od/lambrecipes/r/r71221i.htm'
p158
aS'http://homecooking.about.com/od/lambrecipes/r/bllamb33.htm'
p159
aS'http://australian.food.com/recipe/leg-of-lamb-for-the-slow-cooker-crock-pot-218860'
p160
aS'http://en.wikipedia.org/wiki/Shallot'
p161
aS'http://www.food.com/library/shallot-127'
p162
aS'http://localfoods.about.com/od/Onions-Leeks-Garlic/a/About-Shallots.htm'
p163
aS'http://www.thekitchn.com/shallots-vs-onions-can-you-swap-one-for-another-in-a-recipe-183281'
p164
aS'http://www.realsimple.com/food-recipes/ingredients-guide/shallots-00000000039363/'
p165
aS'/search?q=lamb+stew&biw=975&bih=440&tbm=isch&tbo=u&source=univ&sa=X&ei=xyzPUvqLBbbJsQT5hoLwCw&ved=0CDQQsAQ'
p166
aS'http://allrecipes.com/recipe/irish-lamb-stew/'
p167
aS'http://www.simplyrecipes.com/recipes/ingredient/lamb_stew/'
p168
aS'http://www.simplyrecipes.com/recipes/basque_lamb_stew/'
p169
aS'http://homecooking.about.com/od/soups/r/blss28.htm'
p170
aS'http://allrecipes.com/recipe/creamy-rice-pudding/'
p171
aS'http://www.simplyrecipes.com/recipes/rice_pudding/'
p172
aS'/search?q=rice+pudding&biw=975&bih=440&tbm=isch&tbo=u&source=univ&sa=X&ei=zSzPUrKFFIjJsQTJy4HoCw&ved=0CE8QsAQ'
p173
aS'http://www.chow.com/recipes/30793-slow-cooker-rice-pudding'
p174
aS'http://bakedbree.com/rice-pudding-brulee-2'
p175
aS'http://www.philadelphiaeagles.com/'
p176
aS'http://en.wikipedia.org/wiki/Eagle'
p177
aS'http://www.cadsoftusa.com/'
p178
aS'/search?q=eagle&biw=975&bih=440&tbm=isch&tbo=u&source=univ&sa=X&ei=0yzPUr2TFuXMsQT_kYHoCw&ved=0CEQQsAQ'
p179
aS'http://espn.go.com/nfl/team/_/name/phi/philadelphia-eagles'
p180
aS'http://www.eaglebrand.com/recipes/'
p181
aS'http://www.eaglebrand.com/recipes/RecipeCategoryDetail.aspx?categoryIndex=11'
p182
aS'http://www.drinksmixer.com/drink12282.html'
p183
aS'http://allrecipes.com/recipes/trusted-brands-recipes-and-tips/eagle-brand/'
p184
aS'http://allrecipes.com/recipe/magic-cookie-bars-from-eagle-brand/'
p185
aS'http://www.carnationmilk.ca/recipes.aspx'
p186
aS'http://www.verybestbaking.com/Carnation/Featured-Recipes.aspx'
p187
aS'http://www.verybestbaking.com/recipes/18456/carnation-famous-fudge/detail.aspx'
p188
aS'http://www.verybestbaking.com/Carnation.aspx'
p189
aS'http://www.carnation.co.uk/Recipes/Default.aspx'
p190
aS'http://www.foodnetwork.com/recipes/emeril-lagasse/potato-and-leek-soup-recipe2/'
p191
aS'http://www.foodnetwork.com/recipes/robert-irvine/potato-leek-soup-recipe/'
p192
aS'http://www.simplyrecipes.com/recipes/potato_leek_soup/'
p193
aS'/search?q=potato+and+leek+soup&biw=975&bih=440&tbm=isch&tbo=u&source=univ&sa=X&ei=5izPUuyXGNHKsQSrgoH4Cw&ved=0CFgQsAQ'
p194
aS'http://www.yumsugar.com/Julia-Child-Potato-Leek-Soup-Recipe-24339863'
p195
aS'http://schneiderjobs.com/company-drivers/driving-school-programs'
p196
aS'http://aaaschooloftrucking.com/'
p197
aS'http://www.crengland.com/truck-driving-schools/overview'
p198
aS'http://www.smithsolomon.com/'
p199
aS'http://www.aaaschooloftrucking.com/'
p200
aS'http://www.lafitness.com/'
p201
aS'http://www.lafitness.com/Pages/findclub.aspx'
p202
aS'http://www.lafitness.com/Pages/login.aspx'
p203
aS'http://www.lafitness.com/Pages/clubhome.aspx?clubid=258'
p204
aS'https://www.lafitness.com/Pages/LocateClassNearYou.aspx'
p205
aS'http://en.wikipedia.org/wiki/Major_depressive_disorder'
p206
aS'http://www.webmd.com/depression/guide/major-depression'
p207
aS'http://www.mayoclinic.org/diseases-conditions/depression/expert-answers/clinical-depression/FAQ-20057770'
p208
aS'/search?q=clinical+depression&biw=975&bih=440&source=univ&tbm=nws&tbo=u&sa=X&ei=-SzPUsykCPSmsQSduYH4Cw&ved=0CEgQqAI'
p209
aS'http://uhs.berkeley.edu/lookforthesigns/depressionsuicide.shtml'
p210
aS'http://www.amazon.com/Weight-Loss-Products-Nutrition-Fitness/b?ie=UTF8&node=3774931'
p211
aS'http://www.completenutrition.com/weight-loss/supplements/reveal-extreme/'
p212
aS'http://www.cvs.com/shop/Diet-&-Nutrition/Weight-Loss/_/N-3tZe7fvZ2k?pt=CATEGORY'
p213
aS'http://www.mayoclinic.org/weight-loss/ART-20046409'
p214
aS'http://www.fda.gov/Drugs/ResourcesForYou/Consumers/BuyingUsingMedicineSafely/MedicationHealthFraud/ucm234592.htm'
p215
aS'http://www.foodnetwork.com/recipes/emeril-lagasse/creamy-leek-and-potato-soup-recipe/'
p216
aS'http://www.foodandwine.com/recipes/creamy-leek-and-potato-soup'
p217
aS'/search?q=creamy+potato+and+leek+soup&biw=975&bih=440&source=univ&tbm=nws&tbo=u&sa=X&ei=Bi3PUuPiB6LUsATdzYCQDQ&ved=0CEYQqAI'
p218
aS'http://allrecipes.com/recipe/creamy-potato-leek-soup-ii/'
p219
aS'http://culinaryarts.about.com/od/pureeacutedsoups/r/potatoleek.htm'
p220
aS'http://www.tartantastesintx.com/2013/11/scottish-recipe-potato-and-leek-soup.html'
p221
aS'http://www.scotlands-enchanting-kingdom.com/scottish-leek-soup-recipes.html'
p222
aS'http://www.greenerscotland.org/eating-greener/recipe-finder/eat-in-season-food/recipe/potato-and-leek-soup-'
p223
aS'http://allrecipes.co.uk/recipes/tag-2802/leek-and-potato-soup-recipes.aspx'
p224
aS'http://britishfood.about.com/od/adrecipes/r/chickenandleeksoup.htm'
p225
aS'http://na.sage.com/'
p226
aS'http://na.sage.com/sage-na/products-solutions/sage-products-a-to-z'
p227
aS'http://www.sage.com/'
p228
aS'http://www.sage-mgt.net/'
p229
aS'http://www.nbts.edu/newsite/sage.cfm'
p230
aS'http://www.sageschools.com/'
p231
aS'http://www.sageschools.com/sage-locations.htm'
p232
aS'http://www.sageschools.com/sage-programs.htm'
p233
aS'http://www.sageschools.com/truck%20driving%20school%20cost.htm'
p234
aS'http://www.sageschools.com/sage-contact_sage.htm'
p235
aS'http://www.verybestbaking.com/carnation/products/evaporated-milk.aspx'
p236
aS'http://www.verybestbaking.com/Carnation.aspx'
p237
aS'http://www.verybestbaking.com/Carnation/Featured-Recipes.aspx'
p238
aS'/search?q=carnation+evaporated+milk&biw=975&bih=440&tbm=isch&tbo=u&source=univ&sa=X&ei=Hy3PUoqbLbTNsQTyzIDoCw&ved=0CDsQsAQ'
p239
aS'http://www.carnationmilk.ca/recipes.aspx'
p240
aS'http://www.aolstalker.com/s/www.samsungwireless.coma900download/'
p241
aS'http://www.aolstalker.com/s/www+.samsungwireless.com/'
p242
aS'http://answers.yahoo.com/question/index?qid=1006042220253'
p243
aS'http://engrus.com/k/%D1%86%D1%86%D1%86%D1%8E%D1%8B%D1%84%D1%8C%D1%8B%D0%B3%D1%82%D0%BF%D1%86%D1%88%D0%BA%D1%83%D0%B4%D1%83%D1%8B%D1%8B%D1%8E%D1%81%D1%89%D1%8C%D1%84900%D0%B2%D1%89%D1%86%D1%82%D0%B4%D1%89%D1%84%D0%B2'
p244
aS'http://forums.cnet.com/7723-7817_102-188309/sprint-a900-phone-question/'
p245
aS'http://www.apple.com/itunes/'
p246
aS'http://www.apple.com/itunes/download/'
p247
aS'https://itunes.apple.com/us/genre/music/id34'
p248
aS'http://www.apple.com/support/itunes/'
p249
aS'https://itunes.apple.com/us/genre/ios/id36?mt=8'
p250
aS'https://itunes.apple.com/us/app/ringtones-for-ios7-ringtone/id380908399?mt=8'
p251
aS'http://www.apple.com/itunes/'
p252
aS'https://itunes.apple.com/us/app/ringtones-store/id499620805?mt=8'
p253
aS'http://www.macobserver.com/tmo/article/create-ringtones-from-your-itunes-library-and-add-them-to-your-iphone'
p254
aS'http://www.wikihow.com/Create-a-Free-iPhone-Ringtone-Using-a-Song-in-iTunes'
p255
aS'http://www.lakecityschool.org/'
p256
aS'http://www.lakecityschool.org/School_District.htm'
p257
aS'http://www.lakecityschool.org/the-community/contact-the-school'
p258
aS'http://www.lakecityschool.org/employment'
p259
aS'http://www.lakecityschool.org/lccs-calendar'
p260
aS'http://www.sageschools.com/sage-contact-16.htm'
p261
aS'http://www.indeed.com/q-CDL-l-Lake-City,-FL-jobs.html'
p262
aS'http://www.roadmaster.com/truck_school_SaltLake.php'
p263
aS'http://local.dmv.org/florida/columbia-county/lake-city/local-truck-driving-schools.php'
p264
aS'http://www.yellowpages.com/lake-city-fl/cdl-training-school'
p265
aS'https://www.cdlschool.com/'
p266
aS'http://aaaschooloftrucking.com/'
p267
aS'http://www.cdlcareernow.com/Pennsylvania/Philadelphia-PA-19019/cdl-trucking-schools/'
p268
aS'http://www.smithsolomon.com/'
p269
aS'http://ezwheelsdriving.com/'
p270
aS'http://www.nycdrivingschool.com/'
p271
aS'http://www.mrdrivingschool.com/'
p272
aS'http://www.idealdriving.com/'
p273
aS'http://www.providencedrivingschool.com/'
p274
aS'http://www.superiordrivers.com/'
p275
aS'http://www.drivebigtrucks.com/truck-driving-schools/sanford-florida/'
p276
aS'http://www.drivebigtrucks.com/'
p277
aS'http://local.yahoo.com/info-14098718-truck-driver-institute-sanford'
p278
aS'http://local.dmv.org/florida/seminole-county/sanford/local-truck-driving-schools.php'
p279
aS'http://www.whitepages.com/business/truck-driver-institute-sanford-fl'
p280
aS'http://www.tinyhandsinternational.org/'
p281
aS'http://en.wikipedia.org/wiki/Black_Hand_%28Serbia%29'
p282
aS'http://www.handstogether.org/organization'
p283
aS'http://net.lib.byu.edu/%7Erdh7/wwi/comment/blk-hand.html'
p284
aS'http://hands.org/'
p285
aS'/search?q=mother%27s+day+flowers&biw=975&bih=440&source=univ&tbm=shop&tbo=u&sa=X&ei=Xy3PUsqiMofMsQT4uoKYDA&ved=0CCkQsxg'
p286
aS'http://www.proflowers.com/mothers-day-flowers-mdf'
p287
aS'http://www.ftd.com/flowers-ctg/occasion-mothersday-flowers'
p288
aS'http://www.fromyouflowers.com/occasion/mothers-day-flowers-gifts'
p289
aS'/search?q=mother%27s+day+flowers&biw=975&bih=440&tbm=isch&tbo=u&source=univ&sa=X&ei=Xy3PUsqiMofMsQT4uoKYDA&ved=0CF4QsAQ'
p290
aS'http://www.americangreetings.com/'
p291
aS'http://www.americangreetings.com/ecards'
p292
aS'http://www.ask.com/question/aol-free-greeting-cards'
p293
aS'http://www.ask.com/question/aol-e-cards'
p294
aS'http://daol.aol.com/articles/greetings/'
p295
aS'/search?q=101+essential+tips+bonsai&biw=975&bih=440&source=univ&tbm=shop&tbo=u&sa=X&ei=bC3PUv20F9OusATe9YD4Cw&ved=0CCkQsxg'
p296
aS'http://www.amazon.com/Bonsai-Essential-Tips-Harry-Tomlinson/dp/0789496879'
p297
aS'http://www.amazon.com/Bonsai-Essential-Tips-Harry-Tomlinson/product-reviews/0789496879'
p298
aS'http://www.goodreads.com/book/show/835004.Bonsai'
p299
aS'http://us.dk.com/nf/Book/BookDisplay/0,,9780789496874,00.html'
p300
aS'http://www.teleflora.com/international-flowers/international-flower-delivery.asp'
p301
aS'http://www.ftd.com/international-flower-delivery/'
p302
aS'http://www.1800flowers.com/international-flower-delivery'
p303
aS'http://www.flora2000.com/'
p304
aS'http://www.fleurop.com/'
p305
aS'http://www.brewster.wednet.edu/'
p306
aS'http://www.brewsterschools.org/bhsmain/'
p307
aS'http://www.brewsterschools.org/'
p308
aS'http://en.wikipedia.org/wiki/Brewster_High_School_%28Brewster,_New_York%29'
p309
aS'http://en.wikipedia.org/wiki/Brewster_High_School_%28Brewster,_Washington%29'
p310
aS'http://www.brewsterschools.org/'
p311
aS'https://www.brewsterschools.org/BHSMain/about.html'
p312
aS'http://brewsterschools.org/'
p313
aS'http://www.brewsterschools.org/'
p314
aS'http://www.brewsterschools.org/bhsmain/'
p315
aS'https://needmytranscript.com/NY/Brewster/brewster-high-school/50-foggintown-rd'
p316
aS'http://www.brewsterschools.org/'
p317
aS'http://www.brewster.wednet.edu/'
p318
aS'http://www.sequoiahs.org/?id=1071'
p319
aS'http://en.wikipedia.org/wiki/Brewster_High_School_%28Brewster,_New_York%29'
p320
aS'http://www.sunywcc.edu/'
p321
aS'http://www.sunywcc.edu/current-students/'
p322
aS'http://www.sunywcc.edu/academics/course-information/'
p323
aS'http://www.sunywcc.edu/continuing-ed/welcome-to-continuing-education/'
p324
aS'http://www.sunywcc.edu/academics/academic-programs/'
p325
aS'http://www.myflfamilies.com/service-programs/access-florida-food-medical-assistance-cash'
p326
aS'http://www.dcf.state.fl.us/programs/access/fff/'
p327
aS'http://www.dcf.state.fl.us/programs/access/esspolicymanual.shtml'
p328
aS'http://www.dcf.state.fl.us/access/reportfraud/'
p329
aS'http://www.myflorida.com/accessflorida/'
p330
aS'http://www.myflorida.com/accessflorida/'
p331
aS'http://www.myflfamilies.com/'
p332
aS'http://www.myflfamilies.com/service-programs/access-florida-food-medical-assistance-cash'
p333
aS'http://www.myflfamilies.com/contact-us'
p334
aS'http://www.myflfamilies.com/service-programs/access-florida-food-medical-assistance-cash/medicaid'
p335
aS'http://www.foodnetwork.com/recipes/aida-mollenkamp/lemon-chicken-with-artichoke-hearts-recipe/'
p336
aS'http://allrecipes.com/recipe/artichoke-chicken/'
p337
aS'http://allrecipes.com/recipe/romantic-chicken-with-artichokes-and-mushrooms/'
p338
aS'http://www.food.com/recipe/artichoke-and-chicken-bake-69089'
p339
aS'http://www.thekitchn.com/recipe-chicken-and-artichokes-98743'
p340
aS'http://www.orlandosanfordairport.com/'
p341
aS'http://www.orlandosanfordairport.com/airlines.asp'
p342
aS'http://www.orlandosanfordairport.com/area_map.asp'
p343
aS'http://www.orlandosanfordairport.com/fids.asp'
p344
aS'http://www.orlandosanfordairport.com/parking_info.asp'
p345
aS'/search?q=bracciole&biw=975&bih=440&tbm=isch&tbo=u&source=univ&sa=X&ei=rS3PUrO5O4bJsQTI4ID4Cw&ved=0CDQQsAQ'
p346
aS'http://allrecipes.com/recipe/bracciole-flank-steak-rolls/'
p347
aS'http://ouritaliankitchen.blogspot.com/2010/10/bracciole.html'
p348
aS'http://www.foodnetwork.com/recipes/emeril-lagasse/bracciole-recipe/'
p349
aS'http://www.cooks.com/rec/search/0,1-0,bracciole,FF.html'
p350
aS'http://www.valenciagolfclub.com/'
p351
aS'http://valenciacollege.edu/'
p352
aS'http://valenciacollege.edu/hr/'
p353
aS'http://www.valencia.org/'
p354
aS'http://en.wikipedia.org/wiki/Valencia_College'
p355
aS'http://valenciacollege.edu/'
p356
aS'http://valenciacollege.edu/aboutus/locations/'
p357
aS'http://www.valenciagolfandcountryclub.com/'
p358
aS'http://www.valencia.org/'
p359
aS'http://webapp.browardschools.com/XplorStud/pdf/colleges.pdf'
p360
aS'http://valenciacollege.edu/'
p361
aS'http://valenciacollege.edu/aboutus/locations/'
p362
aS'http://www.valenciagolfandcountryclub.com/'
p363
aS'http://en.wikipedia.org/wiki/Valencia_College'
p364
aS'http://www.campusexplorer.com/colleges/89B07B5D/Florida/Orlando/Valencia-Community-College/'
p365
aS'http://www.foodnetwork.com/recipes/food-network-kitchens/sauteed-chicken-breast-with-artichokes-and-peppers-recipe/'
p366
aS'http://allrecipes.com/recipe/romantic-chicken-with-artichokes-and-mushrooms/'
p367
aS'http://ediblemontereybay.com/recipes/spring/chicken-artichoke-and-mushroom-saute/'
p368
aS'http://www.myrecipes.com/recipe/sauted-chicken-with-artichokes-10000000682796/'
p369
aS'http://www.williams-sonoma.com/recipe/chicken-saute-with-artichokes.html'
p370
aS'http://www.foodnetwork.com/recipes/rachael-ray/lemon-chicken-recipe/'
p371
aS'http://www.foodnetwork.com/recipes/ina-garten/lemon-chicken-breasts-recipe/'
p372
aS'http://www.simplyrecipes.com/recipes/lemon_chicken/'
p373
aS'http://americanfood.about.com/od/chickenrecipes/r/Easy-Lemon-Chicken.htm'
p374
aS'http://www.inspiredtaste.net/18649/easy-lemon-chicken-recipe/'
p375
aS'http://www.centralfloridazoo.org/'
p376
aS'http://www.centralfloridazoo.org/admissionhours'
p377
aS'http://www.centralfloridazoo.org/visit'
p378
aS'http://www.centralfloridazoo.org/aboutthezoo'
p379
aS'http://www.centralfloridazoo.org/directions'
p380
aS'/search?q=dunkin+hines+cake+mix&biw=975&bih=440&source=univ&tbm=shop&tbo=u&sa=X&ei=2i3PUpj_H_OmsQTsj4GADA&ved=0CCkQsxg'
p381
aS'http://duncanhines.com/'
p382
aS'https://www.duncanhines.com/products/cakes/classic-yellow-cake-mix/'
p383
aS'https://www.duncanhines.com/products/brownies/chewy-fudge-premium-brownie-mix/'
p384
aS'http://www.duncanhines.com/recipes/cookies-bars/hackshins/cake-mix-cookies/'
p385
aS'http://duncanhines.com/'
p386
aS'http://www.duncanhines.com/recipes/cookies-bars/hackshins/cake-mix-cookies/'
p387
aS'http://www.duncanhines.com/products/cakes/signature-red-velvet-cake-mix/'
p388
aS'http://www.duncanhines.com/baking-tips/cakes/adhoc/bundt-cake-recipes/'
p389
aS'https://www.duncanhines.com/products/cakes/classic-devils-food-cake-mix/'
p390
aS'http://duncanhines.com/'
p391
aS'http://www.duncanhines.com/recipes/cookies-bars/hackshins/cake-mix-cookies/'
p392
aS'http://www.duncanhines.com/products/cakes/signature-red-velvet-cake-mix/'
p393
aS'http://www.duncanhines.com/baking-tips/cakes/adhoc/bundt-cake-recipes/'
p394
aS'https://www.duncanhines.com/products/cakes/classic-devils-food-cake-mix/'
p395
aS'http://www.foodnetwork.com/topics/salmon/'
p396
aS'http://allrecipes.com/recipes/seafood/fish/salmon/'
p397
aS'http://www.realsimple.com/food-recipes/recipe-collections-favorites/popular-ingredients/ways-serve-salmon-00000000015315/'
p398
aS'http://www.health.com/health/gallery/0,,20414928,00.html'
p399
aS'http://www.cookinglight.com/food/top-rated-recipes/five-star-salmon-dishes-00400000041670/'
p400
aS'http://www.amtrak.com/'
p401
aS'http://www.amtrak.com/servlet/ContentServer?pagename=am/am2Station/Station_Page&code=PHL'
p402
aS'http://www.amtrak.com/servlet/ContentServer?pagename=am/am2Station/Station_Page&code=PJC'
p403
aS'http://www.amtrak.com/train-schedules-timetables'
p404
aS'http://www.amtrak.com/northeast-train-bus-stations'
p405
aS'/search?q=sysco+truck&biw=975&bih=440&tbm=isch&tbo=u&source=univ&sa=X&ei=-S3PUtW2Oc-ysATOkIGYDA&ved=0CCkQsAQ'
p406
aS'http://www.sysco.com/careers/job-types.html'
p407
aS'http://www.sysco.com/'
p408
aS'http://www.sysco.com/careers/opco_jobs.html'
p409
aS'http://en.wikipedia.org/wiki/Sysco'
p410
as.