ccollections
defaultdict
p1
(c__builtin__
list
p2
tRp3
S'14581347'
p4
(lp5
S'http://www.aboutcookies.org/DEFAULT.ASPX?page=2'
p6
aS'http://windows.microsoft.com/en-us/internet-explorer/delete-manage-cookies'
p7
aS'http://www.wikihow.com/Clear-Your-Browser%27s-Cookies'
p8
aS'http://www.whatarecookies.com/delete.asp'
p9
aS'http://support.mozilla.org/en-US/kb/delete-cookies-remove-info-websites-stored'
p10
aS'http://leagueoflegends.com/'
p11
aS'http://en.wikipedia.org/wiki/LOL'
p12
aS'http://www.imdb.com/title/tt1592873/'
p13
aS'http://www.urbandictionary.com/define.php?term=lol'
p14
aS'http://www.lolking.net/'
p15
aS'http://www.aolstalker.com/s/www.streetball+layoutz.com/'
p16
aS'http://engrus.com/k/%D1%86%D1%86%D1%86%D1%8E%D1%8B%D0%B5%D0%BA%D1%83%D1%83%D0%B5%D0%B8%D1%84%D0%B4%D0%B4+%D0%B4%D1%84%D0%BD%D1%89%D0%B3%D0%B5%D1%8F%D1%8E%D1%81%D1%89%D1%8C'
p17
aS'http://www.similarsites.com/site/streetball-layoutz.xanga.com'
p18
aS'http://www.realestate.com.au/property-house-qld-ball+bay-111034871'
p19
aS'http://www.youtube.com/watch?v=ggCJHZXE0sU'
p20
aS'/search?q=76er+allen+iverson+wall+paper&biw=975&bih=440&tbm=isch&tbo=u&source=univ&sa=X&ei=Gi7PUof8FarKsQSs7YGIDA&ved=0CCkQsAQ'
p21
aS'http://www.basketwallpapers.com/USA/Allen-Iverson/'
p22
aS'http://www.forwallpaper.com/wallpaper/allen-iverson-76ers-wallpaper-925940.html'
p23
aS'http://streetball.com/photo/photo/listTagged?tag=Allen+Iverson+Wallpaper'
p24
aS'http://streetballblog.com/allen-iverson-wallpaper/'
p25
aS'/search?q=76er+allen+iverson+wallpaper&biw=975&bih=440&tbm=isch&tbo=u&source=univ&sa=X&ei=IC7PUoW5OpS0sQTM14D4DA&ved=0CCkQsAQ'
p26
aS'http://www.basketwallpapers.com/USA/Allen-Iverson/'
p27
aS'http://streetballblog.com/allen-iverson-wallpaper/'
p28
aS'http://www.forwallpaper.com/wallpaper/allen-iverson-76ers-wallpaper-925940.html'
p29
aS'http://streetball.com/photo/photo/listTagged?tag=Allen+Iverson+Wallpaper'
p30
aS'/search?q=76er+allen+iverson+desktop+wallpaper&biw=975&bih=440&tbm=isch&tbo=u&source=univ&sa=X&ei=Jy7PUpq5OKy_sQSW4IDwCw&ved=0CCkQsAQ'
p31
aS'http://www.basketwallpapers.com/USA/Allen-Iverson/'
p32
aS'http://www.desktopnexus.com/tag/philadelphia-76ers/'
p33
aS'http://www.forwallpaper.com/wallpaper/allen-iverson-76ers-wallpaper-925940.html'
p34
aS'http://streetballblog.com/allen-iverson-wallpaper/'
p35
aS'/search?q=allen+iverson+desktop+wallpaper&biw=975&bih=440&tbm=isch&tbo=u&source=univ&sa=X&ei=Li7PUqL2JtHIsASLmICQDA&ved=0CCkQsAQ'
p36
aS'http://www.basketwallpapers.com/USA/Allen-Iverson/'
p37
aS'http://hdw.eweb4.com/search/allen+iverson/'
p38
aS'http://www.posterizes.com/portfolio/allen-iverson-lord-of-war-wallpaper-throwbackseries/'
p39
aS'http://www.mi9.com/wallpapers/nba-player-allen-iverson_2559/'
p40
aS'http://hhs.cabe.k12.wv.us/'
p41
aS'http://hometeamsonline.com/?HUNTINGTONHIGHLANDERS'
p42
aS'http://www.maxpreps.com/high-schools/huntington-highlanders-%28huntington,wv%29/football/home.htm'
p43
aS'http://www.maxpreps.com/high-schools/huntington-highlanders-%28huntington,wv%29/basketball/home.htm'
p44
aS'http://hhspress.net/'
p45
aS'http://en.wikipedia.org/wiki/Allen_Iverson'
p46
aS'http://www.basketball-reference.com/players/i/iversal01.html'
p47
aS'http://espn.go.com/nba/player/_/id/366/allen-iverson'
p48
aS'https://twitter.com/alleniverson'
p49
aS'http://sports.yahoo.com/nba/players/3094/'
p50
aS'/search?q=allen+iverson+and+tracy+mcgrady&biw=975&bih=440&tbm=isch&tbo=u&source=univ&sa=X&ei=Qi7PUp6jH8vMsQT8zIL4Cw&ved=0CC4QsAQ'
p51
aS'http://www.sbnation.com/2013/8/27/4663212/tracy-mcgrady-retires-allen-iverson-retirement'
p52
aS'http://answers.yahoo.com/question/index?qid=20130827054512AAASG5Z'
p53
aS'http://www.youtube.com/watch?v=KSbsIoVAesg'
p54
aS'http://www.youtube.com/watch?v=6h-tfUNldY8'
p55
aS'/search?q=pictures+of+allen+iverson+and+tracy+mcgrady&biw=975&bih=440&tbm=isch&tbo=u&source=univ&sa=X&ei=SS7PUo_LMeO1sAScxYCgDA&ved=0CCkQsAQ'
p56
aS'http://www.sbnation.com/2013/8/27/4663212/tracy-mcgrady-retires-allen-iverson-retirement'
p57
aS'http://search.espn.go.com/allen-iverson/'
p58
aS'http://www.grantland.com/story/_/id/9616069/the-unfortunate-tale-t-mac'
p59
aS'http://bleacherreport.com/articles/426430-shaquille-oneal-tracy-mcgrady-allen-iverson-finding-a-common-thread'
p60
aS'http://hhs.cabe.k12.wv.us/'
p61
aS'http://www.edline.net/pages/Huntington_High_School'
p62
aS'http://www.hufsd.edu/schools/highschool/hs_index.html'
p63
aS'http://www.hufsd.edu/'
p64
aS'http://hboilers.com/'
p65
aS'http://www.nbc.com/Deal_or_No_Deal/game/'
p66
aS'http://www.nbc.com/Deal_or_No_Deal/'
p67
aS'http://en.wikipedia.org/wiki/Deal_or_No_Deal_%28U.S._game_show%29'
p68
aS'http://en.wikipedia.org/wiki/Deal_or_No_Deal_%28U.S._syndicated_game_show%29'
p69
aS'http://en.wikipedia.org/wiki/Deal_or_No_Deal_%28UK_game_show%29'
p70
aS'/search?q=icons+for+an+xanga&biw=975&bih=440&tbm=isch&tbo=u&source=univ&sa=X&ei=XS7PUq7uA5SvsAT7lIGADA&ved=0CCkQsAQ'
p71
aS'http://www.xanga.com/groups/group.aspx?id=1440877'
p72
aS'http://www.123icons.com/'
p73
aS'http://sourceforge.net/projects/xangaarchiver/'
p74
aS'http://sourceforge.net/projects/xangaarchive/'
p75
aS'http://mashable.com/2012/02/13/teenage-jeremy-lin-xanga-pics/'
p76
aS'http://www.aw.noacsc.org/harmonysupport/?jerseysd=9760.shtml'
p77
aS'http://www.buzzfeed.com/jpmoore/teenage-jeremy-lin-imitated-nba-players-headb'
p78
aS'http://paradise-service-associates.org/lag.php?rya=nba-myspace-backgrounds'
p79
aS'http://alien.dyndns.ws/alien87/basketball-layout-myspace-player'
p80
aS'/interstitial?url=http://altalae.com/images/thumbs/article226.html'
p81
aS'http://www.wcom.org.uk/template.php?whichPage=newsdetails&News_ID=102521'
p82
aS'http://www.fehrl.org/?m=102521'
p83
aS'http://www.fehrl.org/?m=556261'
p84
aS'http://www.fehrl.org/?m=423540'
p85
aS'http://news.nationalpost.com/2013/12/19/joni-mitchells-alberta-ballet-project-postponed/'
p86
aS'http://www.nycballet.com/ballets/s/the-song-of-the-nightingale.aspx'
p87
aS'http://www.xanga.com/groups/subdir.aspx?id=55'
p88
aS'http://russianballeticons.com/'
p89
aS'http://aliciabanks.xanga.com/2013/05/12/hobama-is-gunning-for-assata-shakur-ndaa-slays-black-rebels/'
p90
aS'http://www.nba.com/jordan/jordan_icon_thiel.html'
p91
aS'http://jmallory.xanga.com/2010/06/12/michael-jordans-awesome-new/'
p92
aS'http://www.biography.com/people/michael-jordan-9358066'
p93
aS'http://www.fehrl.org/?m=497133'
p94
aS'http://www.wsoctv.com/news/sports/jordan-wedding-guests-no-cameras-or-cellphones/nW6gG/'
p95
aS'/search?q=michael+jordan+icons&biw=975&bih=440&tbm=isch&tbo=u&source=univ&sa=X&ei=fS7PUtqAOvHmsATLnoC4DQ&ved=0CCkQsAQ'
p96
aS'http://www.nba.com/jordan/jordan_icon_thiel.html'
p97
aS'http://newsbusters.org/blogs/tim-graham/2013/11/28/obama-disses-michael-jordan-nobodys-bigger-icon-magic-johnson'
p98
aS'http://www.jordan-michael.com/icons'
p99
aS'http://xroads.virginia.edu/%7Eclass/am483_97/projects/walters/mjplay.html'
p100
aS'/search?q=michael+jordan+layouts&biw=975&bih=440&tbm=isch&tbo=u&source=univ&sa=X&ei=hC7PUommEumqsAS0moHwCw&ved=0CCkQsAQ'
p101
aS'http://www.fehrl.org/?m=556261'
p102
aS'http://videotheque.cnrs.fr/index.php?urlaction=doc&id_doc=599346'
p103
aS'http://videotheque.cnrs.fr/index.php?urlaction=doc&id_doc=852744'
p104
aS'http://www.coolchaser.com/layout/keywords/michael+jordan'
p105
aS'http://en.wikipedia.org/wiki/Michael_Jordan'
p106
aS'/search?q=michael+jordan&biw=975&bih=440&source=univ&tbm=nws&tbo=u&sa=X&ei=ii7PUpjIG8XNsQS_4YH4Cw&ved=0CDQQqAI'
p107
aS'http://www.biography.com/people/michael-jordan-9358066'
p108
aS'http://www.basketball-reference.com/players/j/jordami01.html'
p109
aS'http://espn.go.com/nba/player/_/id/1035/michael-jordan'
p110
aS'http://en.wikipedia.org/wiki/Spud_Webb'
p111
aS'http://www.youtube.com/watch?v=H5wBI98NXEE'
p112
aS'http://www.youtube.com/watch?v=fk-t2HnXfy4'
p113
aS'http://www.basketball-reference.com/players/w/webbsp01.html'
p114
aS'http://deadspin.com/can-spud-webb-still-dunk-596717320'
p115
aS'http://www.nba.com/sixers/'
p116
aS'http://www.nba.com/sixers/roster/2013'
p117
aS'http://www.nba.com/sixers/tickets/'
p118
aS'http://www.nba.com/sixers/schedule'
p119
aS'http://www.nba.com/sixers/news/around_the_web.html'
p120
aS'http://www.cancer.gov/cancertopics/types/alphalist'
p121
aS'http://www.cancer.gov/cancertopics/types/commoncancers'
p122
aS'/search?q=types+of+cancer&biw=975&bih=440&source=univ&tbm=nws&tbo=u&sa=X&ei=nS7PUuWXFNHmsASd-YCoDg&ved=0CD0QqAI'
p123
aS'http://www.cancer.org/cancer/showallcancertypes/index'
p124
aS'http://www.upmccancercenter.com/cainformation/alltypes.cfm'
p125
aS'http://www.skincancer.org/skin-cancer-information/melanoma'
p126
aS'http://en.wikipedia.org/wiki/Melanoma'
p127
aS'http://www.cancer.gov/cancertopics/types/melanoma'
p128
aS'http://www.melanoma.org/'
p129
aS'http://www.medicinenet.com/melanoma/article.htm'
p130
aS'http://www.mayoclinic.org/condition/skin-cancer/multimedia/melanoma/sls-20076095'
p131
aS'http://www.melanoma.org/understand-melanoma/resource-library/pictures-of-melanoma'
p132
aS'http://www.skincheck.org/Page4.php'
p133
aS'http://www.webmd.com/melanoma-skin-cancer/ss/slideshow-skin-lesions-and-cancer'
p134
aS'http://www.cbsnews.com/news/is-it-skin-cancer-38-photos-that-could-save-your-life-pictures/'
p135
aS'http://www.azlyrics.com/'
p136
aS'http://www.lyrics.com/'
p137
aS'/search?q=lyrics&biw=975&bih=440&source=univ&tbm=nws&tbo=u&sa=X&ei=ry7PUo-nKvWosAScxIDwCw&ved=0CD4QqAI'
p138
aS'http://www.lyricsfreak.com/'
p139
aS'http://www.metrolyrics.com/'
p140
aS'http://www.absolutelyrics.com/lyrics/view/lisa_loeb/taffy'
p141
aS'http://www.metrolyrics.com/taffy-lyrics-lisa-loeb.html'
p142
aS'http://www.metrolyrics.com/shake-dat-laffy-taffy-lyrics-d4l.html'
p143
aS'http://www.metrolyrics.com/laffy-taffy-lyrics-d4l.html'
p144
aS'http://www.azlyrics.com/lyrics/lisaloeb/taffy.html'
p145
aS'http://www.lyricsfreak.com/d/d4l/shake+that+laffy+taffy_20815326.html'
p146
aS'http://www.azlyrics.com/lyrics/d4l/laffytaffy.html'
p147
aS'http://www.lyricsmode.com/lyrics/d/d4l/shake_that_laffy_taffy.html'
p148
aS'http://www.lyricsty.com/d4l-shake-that-laffy-taffy-lyrics.html'
p149
aS'http://www.lyriczz.com/lyrics/d4l/18835-laffy-taffy/'
p150
aS'http://www.spinxo.com/screen-names'
p151
aS'http://www.ijis.net/ijis5_1/ijis5_1_whitty_buchanan.html'
p152
aS'http://www.mysticalgateway.com/cool-screen-names.html'
p153
aS'http://help.yahoo.com/kb/index?locale=en_GB&page=content&y=PROD_ACCT&id=SLN2061'
p154
aS'http://help.aol.com/help/microsites/microsite.do?cmd=displayKC&docType=kc&externalId=29510'
p155
aS'/search?q=psp&biw=975&bih=440&source=univ&tbm=shop&tbo=u&sa=X&ei=yC7PUpPXE7PUsATChYCwDA&ved=0CCkQsxg'
p156
aS'http://us.playstation.com/psp/'
p157
aS'http://www.gamestop.com/psp'
p158
aS'http://en.wikipedia.org/wiki/PlayStation_Portable'
p159
aS'http://www.amazon.com/Sony-PSP-Games/b?ie=UTF8&node=11075221'
p160
aS'http://www.cheatcc.com/'
p161
aS'http://www.cheatcc.com/xbox360/xbox360menu.html'
p162
aS'http://www.cheatcc.com/xbox360/grandtheftauto5cheatscodes.html'
p163
aS'http://www.cheatcc.com/ps3/ps3menu.html'
p164
aS'http://www.cheatcc.com/index2.html'
p165
aS'http://xtheband.com/'
p166
aS'http://boards.4chan.org/x/'
p167
aS'http://en.wikipedia.org/wiki/X_%28American_band%29'
p168
aS'http://www.purplemath.com/modules/plane.htm'
p169
aS'http://www.purplemath.com/modules/intrcept.htm'
p170
aS'/search?q=accessories+for+psp&biw=975&bih=440&source=univ&tbm=shop&tbo=u&sa=X&ei=2i7PUrnKI8utsAT5oYGgDA&ved=0CCwQsxg'
p171
aS'http://www.gamestop.com/browse/sony-psp/accessories?nav=28-xu0,1388-58'
p172
aS'http://www.bestbuy.com/site/psp/psp-accessories/abcat0715014.c?id=abcat0715014'
p173
aS'/search?q=accessories+for+psp&biw=975&bih=440&tbm=isch&tbo=u&source=univ&sa=X&ei=2i7PUrnKI8utsAT5oYGgDA&ved=0CGQQsAQ'
p174
aS'http://www.walmart.com/cp/PSP/487891'
p175
aS'http://www.nairaland.com/441971/freestyle-rap-rhymes-battle-wanna'
p176
aS'http://www.flocabulary.com/freestylerap/'
p177
aS'http://rapgenius.com/Busta-rhymes-otis-freestyle-lyrics/bunch-of-blabbermouth-ass-niggas-jackie-gleason?referent=Bunch%20of%20blabbermouth-ass%20niggas:%20Jackie%20Gleason'
p178
aS'http://rapgenius.com/Twista-book-of-rhymes-freestyle-lyrics'
p179
aS'http://lounge.moviecodec.com/music/freestyle-rap-15410/'
p180
aS'http://www.yomamajokesgalore.com/'
p181
aS'http://www.ahajokes.com/yo_mama_jokes.html'
p182
aS'/search?q=yo+mama+jokes&biw=975&bih=440&tbm=isch&tbo=u&source=univ&sa=X&ei=5y7PUuPEDMzIsASq5oHwCw&ved=0CDsQsAQ'
p183
aS'http://www.youtube.com/watch?v=3M4flYnied8'
p184
aS'http://www.youtube.com/watch?v=0qMpmYXl8A0'
p185
aS'http://www.reddit.com/r/leagueoflegends/comments/118t1c/yomama_jokes_on_lol/'
p186
aS'http://yo-mamajokes.tumblr.com/'
p187
aS'http://yo-mamajokes.tumblr.com/page/2'
p188
aS'http://www.tumblr.com/tagged/yo-mama-jokes'
p189
aS'http://forums.eune.leagueoflegends.com/board/showthread.php?t=456925'
p190
aS'http://forums.na.leagueoflegends.com/board/showthread.php?t=4172573'
p191
aS'http://forums.oce.leagueoflegends.com/board/showthread.php?t=15002'
p192
aS'http://forums.euw.leagueoflegends.com/board/showthread.php?t=104918&page=17'
p193
aS'http://na.leagueoflegends.com/board/showthread.php?t=1624517'
p194
aS'http://www.lol-jokes.com/insults/yo-mama'
p195
aS'/search?q=basketball+quotes&biw=975&bih=440&tbm=isch&tbo=u&source=univ&sa=X&ei=-i7PUp3GBYnOsASJg4DoCw&ved=0CCwQsAQ'
p196
aS'http://www.brainyquote.com/quotes/keywords/basketball.html'
p197
aS'http://www.basketball-quotes.net/'
p198
aS'http://www.goodreads.com/quotes/tag/basketball'
p199
aS'http://www.hoopsu.com/basketball-quotations/'
p200
aS'/search?q=basketball+quotes&biw=975&bih=440&tbm=isch&tbo=u&source=univ&sa=X&ei=AC_PUqaoGdbNsQSWiIGoDQ&ved=0CCkQsAQ'
p201
aS'http://www.brainyquote.com/quotes/keywords/basketball.html'
p202
aS'http://www.basketball-quotes.net/'
p203
aS'http://www.goodreads.com/quotes/tag/basketball'
p204
aS'http://www.hoopsu.com/basketball-quotations/'
p205
aS'/search?q=basketball+icons&biw=975&bih=440&tbm=isch&tbo=u&source=univ&sa=X&ei=Bi_PUt68JMXEsAT26oDwCw&ved=0CCkQsAQ'
p206
aS'http://findicons.com/search/basketball'
p207
aS'http://www.iconarchive.com/tag/basketball'
p208
aS'http://www.iconarchive.com/tag/basketball-game'
p209
aS'http://www.iconspedia.com/icon/basketball.html'
p210
aS'http://www.daysinn.com/'
p211
aS'http://www.daysinn.com/hotels/new-jersey/east-windsor/days-inn-east-windsor-hightstown/hotel-overview'
p212
aS'http://www.daysinn.com/hotels/new-jersey/bridgewater/days-inn-bridgewater-conference-center-somerville-area/hotel-overview'
p213
aS'http://www.daysinn.com/hotels/new-jersey/west-windsor-township/search-results'
p214
aS'http://www.daysinn.com/hotels/pennsylvania/philadelphia/days-inn-philadelphia-roosevelt-boulevard/hotel-overview'
p215
aS'/search?q=complaint+letter&biw=975&bih=440&tbm=isch&tbo=u&source=univ&sa=X&ei=Ey_PUsjRBvXIsASbv4KADA&ved=0CCkQsAQ'
p216
aS'http://www.usa.gov/topics/consumer/complaint/complaint-letter.shtml'
p217
aS'http://www.wikihow.com/Write-a-Complaint-Letter-to-a-Company'
p218
aS'http://www.infoplease.com/ipa/A0002121.html'
p219
aS'http://www.pakin.org/complaint/'
p220
aS'/search?q=examples+of+complaint+letter&biw=975&bih=440&tbm=isch&tbo=u&source=univ&sa=X&ei=GS_PUpHiKJXQsATno4G4DQ&ved=0CCkQsAQ'
p221
aS'http://www.usa.gov/topics/consumer/complaint/complaint-letter.shtml'
p222
aS'http://www.businessballs.com/complaintsletters.htm'
p223
aS'http://consumer.georgia.gov/consumer-services/sample-complaint-letter-to-send-to-a-business'
p224
aS'http://www.wikihow.com/Write-a-Complaint-Letter-to-a-Company'
p225
aS'http://www.usa.gov/topics/consumer/complaint/complaint-letter.shtml'
p226
aS'http://www.businessballs.com/complaintsletters.htm'
p227
aS'/search?q=examples+complaint+letter&biw=975&bih=440&tbm=isch&tbo=u&source=univ&sa=X&ei=IC_PUuTlB67esASJzoKoDA&ved=0CDoQsAQ'
p228
aS'http://www.wikihow.com/Write-a-Complaint-Letter-to-a-Company'
p229
aS'http://www2.elc.polyu.edu.hk/cill/eiw/complaint_letter_constructor.htm'
p230
aS'/search?q=examples+of+application+letter&biw=975&bih=440&tbm=isch&tbo=u&source=univ&sa=X&ei=Jy_PUuTCAeu-sQTqioCQDA&ved=0CCkQsAQ'
p231
aS'http://jobsearch.about.com/od/morejobletters/a/jobappletter.htm'
p232
aS'http://jobsearch.about.com/od/coverlettersamples/a/letterofapplication.htm'
p233
aS'http://jobsearch.about.com/od/JobApplicationLetter/'
p234
aS'http://www.uwb.edu/careers/job-search-tools/coverletters/sample-application'
p235
aS'http://www.glitter-graphics.com/xanga/layouts'
p236
aS'/search?q=layouts+for+xanga&biw=975&bih=440&tbm=isch&tbo=u&source=univ&sa=X&ei=LS_PUoPnFs6zsATjz4H4Cw&ved=0CDQQsAQ'
p237
aS'http://www.xanga.com/groups/group.aspx?id=1638664'
p238
aS'http://www.createblog.com/xanga-layouts/'
p239
aS'http://help.xanga.com/topic/can-i-have-my-old-layout-back'
p240
aS'http://answers.yahoo.com/question/?qid=20081130061750AAVDM7X'
p241
aS'http://wiki.answers.com/Q/How_do_you_put_a_layout_on_xanga'
p242
aS'http://www.createblog.com/xanga-layouts/'
p243
aS'http://www.similarsites.com/site/anydayinnovember-layouts.xanga.com'
p244
aS'http://www.similarsites.com/site/insanexx-layouts.xanga.com'
p245
aS'http://www.margery9flqleu.krovatka.su/basketball-layouts-for-xanga.html'
p246
aS'http://www.43things.com/things/view/267932/make-a-xanga-layout'
p247
aS'http://www.43things.com/entries/view/1822820'
p248
aS'http://www.oocities.org/it/nortik1/pages/p3/q/baseball-free-layouts-myspace.html'
p249
aS'http://www.smithfieldherald.com/web_search/?q=z-ro%2520myspace%2520layouts%2520xanga&page=4'
p250
aS'/search?q=basketball+layouts&biw=975&bih=440&tbm=isch&tbo=u&source=univ&sa=X&ei=QC_PUo24OMi3sASVwoCQDA&ved=0CCkQsAQ'
p251
aS'http://www.pinterest.com/lpennix/basketball-layouts/'
p252
aS'http://www.flexcourt.com/court-layouts-basketball.php'
p253
aS'http://www.coolchaser.com/layout/keywords/basketball'
p254
aS'http://www.scrapbook.com/articles/doc/45027.html'
p255
aS'http://www.coolchaser.com/layout/keywords/allen+iverson'
p256
aS'http://www.coolchaser.us/l/keywords/allen%20iverson'
p257
aS'http://www.coolchaser.us/l/keywords/allen%20iverson%20wallpaper'
p258
aS'http://www.coolchaser.us/l/keywords/allen%20iverson%20denver%20nuggets'
p259
aS'http://www.coolchaser.us/l/keywords/carmelo%20anthony%20and%20allen%20iverson'
p260
aS'http://bosfood.prv.pl/abe-s-od90/pro-myspace-layouts.html'
p261
aS'http://dazndragon.xanga.com/'
p262
aS'http://tt.tennis-warehouse.com/archive/index.php/t-165682-p-4.html'
p263
aS'http://blogs.redcross.org.uk/tag/syrian-arab-red-crescent/'
p264
aS'http://www.bowlingballexchange.com/showthread.php?t=38217'
p265
aS'http://www.brainyquote.com/quotes/topics/topic_love.html'
p266
aS'/search?q=love+quotes&biw=975&bih=440&tbm=isch&tbo=u&source=univ&sa=X&ei=Uy_PUvTCN8qrsATv84CoDA&ved=0CDcQsAQ'
p267
aS'http://www.goodreads.com/quotes/tag/love'
p268
aS'http://sayingimages.com/love-quotes-best-images-with-quotes-about-love/'
p269
aS'http://www.cherrybam.com/'
p270
aS'http://www.brainyquote.com/quotes/topics/topic_love.html'
p271
aS'/search?q=love+quotes&biw=975&bih=440&tbm=isch&tbo=u&source=univ&sa=X&ei=WS_PUrvLPIS_sQTc7IHIDg&ved=0CDQQsAQ'
p272
aS'http://www.goodreads.com/quotes/tag/love'
p273
aS'http://sayingimages.com/love-quotes-best-images-with-quotes-about-love/'
p274
aS'http://www.cherrybam.com/'
p275
aS'http://forums.offensivecombat.com/discussion/4739/rap-battles-thread'
p276
aS'http://gprime.net/board/archive/index.php/t-3713.html'
p277
aS'http://answers.yahoo.com/question/index?qid=20120320142353AAKgSyX'
p278
aS'http://rapgenius.com/894888/Buk-lau-bic-boys-dont-hate/Your-rhymes-like-that-insult-you-almost-fucking-had-it'
p279
aS'http://www.wikihow.com/Survive-a-Freestyle-Rap-Battle'
p280
aS'http://forums.offensivecombat.com/discussion/4739/rap-battles-thread'
p281
aS'http://gprime.net/board/archive/index.php/t-3713.html'
p282
aS'http://answers.yahoo.com/question/index?qid=20120320142353AAKgSyX'
p283
aS'http://rapgenius.com/894888/Buk-lau-bic-boys-dont-hate/Your-rhymes-like-that-insult-you-almost-fucking-had-it'
p284
aS'http://www.wikihow.com/Survive-a-Freestyle-Rap-Battle'
p285
aS'http://www.freestyleusa.com/'
p286
aS'http://en.wikipedia.org/wiki/Freestyle_rap'
p287
aS'http://www.brainyquote.com/quotes/keywords/freestyle.html'
p288
aS'http://www.searchquotes.com/search/Freestyle_Rap/'
p289
aS'http://www.searchquotes.com/search/Freestyle/'
p290
aS'http://www.topix.com/forum/music/hip-hop/T3R4L939MSM2B1G42'
p291
aS'http://lounge.moviecodec.com/music/freestyle-rap-15410/'
p292
aS'http://lounge.moviecodec.com/music/freestyle-raps-94355/'
p293
aS'http://rapgenius.com/albums/Eminem/8-mile-freestyles'
p294
aS'http://www.flocabulary.com/freestylerap/'
p295
aS'http://www.iconarchive.com/'
p296
aS'http://www.iconarchive.com/category/people-icons.html'
p297
aS'http://www.iconarchive.com/tag/people'
p298
aS'/search?q=icons&biw=975&bih=440&tbm=isch&tbo=u&source=univ&sa=X&ei=eS_PUqa1NcutsAT5oYGgDA&ved=0CEYQsAQ'
p299
aS'https://www.iconfinder.com/'
p300
aS'/search?q=sport+icons&biw=975&bih=440&tbm=isch&tbo=u&source=univ&sa=X&ei=gC_PUo6KCKapsQS784CwDA&ved=0CCwQsAQ'
p301
aS'http://www.iconarchive.com/category/sport-icons.html'
p302
aS'http://www.iconarchive.com/tag/sport'
p303
aS'http://findicons.com/search/sport'
p304
aS'http://www.icons.com/'
p305
aS'/search?q=icons+for+my+xanga&biw=975&bih=440&tbm=isch&tbo=u&source=univ&sa=X&ei=hi_PUtbJH8vksAT_-ID4Cw&ved=0CCkQsAQ'
p306
aS'http://www.123icons.com/'
p307
aS'http://photobucket.com/images/All+My+Favorite+Xanga+Icons/'
p308
aS'http://photobucket.com/images/all%20my%20favorite%20xanga%20icons?page=1'
p309
aS'http://thetangential.com/2011/06/25/some-thoughts-on-my-xanga/'
p310
aS'/search?q=funny+icons&biw=975&bih=440&tbm=isch&tbo=u&source=univ&sa=X&ei=jC_PUse7JOPisAS_hICgDA&ved=0CCkQsAQ'
p311
aS'http://photobucket.com/images/funny%20icons'
p312
aS'http://www.iconarchive.com/category/funny-icons.html'
p313
aS'http://www.pinterest.com/jocelyn95/funny-icons/'
p314
aS'http://findicons.com/search/funny'
p315
aS'http://www.marshall.edu/'
p316
aS'http://mymu.marshall.edu/'
p317
aS'http://www.marshall.edu/landing/students/'
p318
aS'http://www.marshall.edu/landing/academics/'
p319
aS'http://www.marshall.edu/landing/facultystaff/'
p320
aS'http://personalweb.about.com/od/xangacom/ss/xangamusic.htm'
p321
aS'http://answers.reference.com/digital/web/how_do_i_put_music_on_my_xanga'
p322
aS'http://www.build-a-website.net/xanga-music.shtml'
p323
aS'http://www.ask.com/question/how-do-i-put-music-on-my-xanga-site'
p324
aS'http://www.ask.com/question/how-to-put-music-on-xanga'
p325
aS'http://www.nba.com/playoffs/'
p326
aS'http://en.wikipedia.org/wiki/NBA_playoffs'
p327
aS'/search?q=nba+playoffs&biw=975&bih=440&source=univ&tbm=nws&tbo=u&sa=X&ei=ny_PUrz4DMutsAT5oYGgDA&ved=0CD8QqAI'
p328
aS'http://espn.go.com/nba/playoffs/matchups'
p329
aS'http://espn.go.com/nba/playoffs/2013/matchup/_/teams/spurs-heat'
p330
aS'http://en.wikipedia.org/wiki/Streetball'
p331
aS'http://streetball.com/'
p332
aS'/search?q=streetball&biw=975&bih=440&tbm=isch&tbo=u&source=univ&sa=X&ei=pS_PUtmVFoTKsQS-2IDADA&ved=0CD8QsAQ'
p333
aS'http://www.ballup.com/'
p334
aS'https://twitter.com/streetball'
p335
aS'http://www.youtube.com/watch?v=eNV8JkM0QoM'
p336
aS'http://www.youtube.com/watch?v=H16LXwA1PRw'
p337
aS'http://www.youtube.com/watch?v=rOAp39k921c'
p338
aS'http://www.hoopsvibe.com/basketball-training'
p339
aS'http://snakebasketball.com/streetball-moves-getting-past-defenders/'
p340
aS'http://en.wikipedia.org/wiki/Cabell_Midland_High_School'
p341
aS'http://www.maxpreps.com/high-schools/cabell-midland-knights-%28ona,wv%29/football/home.htm'
p342
aS'http://www.maxpreps.com/high-schools/cabell-midland-knights-%28ona,wv%29/home.htm'
p343
aS'http://www.maxpreps.com/high-schools/cabell-midland-knights-%28ona,wv%29/football/schedule.htm'
p344
aS'http://cmhs.cabe.k12.wv.us/'
p345
aS'http://cmhs.cabe.k12.wv.us/'
p346
aS'http://cmhs.cabe.k12.wv.us/Phonebook/EntryList.php'
p347
aS'http://cmhs.cabe.k12.wv.us/Athletics/Football.php'
p348
aS'http://en.wikipedia.org/wiki/Cabell_Midland_High_School'
p349
aS'http://www.maxpreps.com/high-schools/cabell-midland-knights-%28ona,wv%29/home.htm'
p350
aS'http://hhs.cabe.k12.wv.us/'
p351
aS'http://www.edline.net/pages/Huntington_High_School'
p352
aS'http://en.wikipedia.org/wiki/Huntington_High_School_%28West_Virginia%29'
p353
aS'http://en.wikipedia.org/wiki/Old_Huntington_High_School'
p354
aS'/search?q=huntington+high+school+huntington+west+virginia&biw=975&bih=440&source=univ&tbm=nws&tbo=u&sa=X&ei=wS_PUoesB4fnsATEkIKADA&ved=0CE8QqAI'
p355
aS'http://hhs.cabe.k12.wv.us/'
p356
aS'http://www.edline.net/pages/Huntington_High_School'
p357
aS'http://en.wikipedia.org/wiki/Huntington_High_School_%28West_Virginia%29'
p358
aS'http://en.wikipedia.org/wiki/Old_Huntington_High_School'
p359
aS'/search?q=huntington+high+school+huntington+west+virginia&biw=975&bih=440&source=univ&tbm=nws&tbo=u&sa=X&ei=yC_PUs-VELPRsASMnIH4Cw&ved=0CEwQqAI'
p360
aS'http://cmhs.cabe.k12.wv.us/'
p361
aS'http://cmhs.cabe.k12.wv.us/Phonebook/EntryList.php'
p362
aS'http://cmhs.cabe.k12.wv.us/Athletics/Football.php'
p363
aS'http://en.wikipedia.org/wiki/Cabell_Midland_High_School'
p364
aS'http://www.maxpreps.com/high-schools/cabell-midland-knights-%28ona,wv%29/home.htm'
p365
aS'/search?q=pictures+of+cabell+midland+high+school+ona+west+virginia&biw=975&bih=440&tbm=isch&tbo=u&source=univ&sa=X&ei=1i_PUtqBHbKosATznoH4Cw&ved=0CCkQsAQ'
p366
aS'http://www.maxpreps.com/high-schools/cabell-midland-knights-%28ona,wv%29/home.htm'
p367
aS'http://www.maxpreps.com/high-schools/cabell-midland-knights-%28ona,wv%29/football/home.htm'
p368
aS'http://www.maxpreps.com/high-schools/cabell-midland-knights-%28ona,wv%29/baseball/home.htm'
p369
aS'http://www.maxpreps.com/high-schools/cabell-midland-knights-%28ona,wv%29/football/rankings.htm'
p370
aS'/search?q=nba+wallpapers&biw=975&bih=440&tbm=isch&tbo=u&source=univ&sa=X&ei=3C_PUtW3K_PKsATJpIHoDA&ved=0CCkQsAQ'
p371
aS'http://www.posterizes.com/'
p372
aS'http://www.nba.com/heat/2012-13-wallpaper-collection'
p373
aS'http://www.nba.com/heat/images/wallpaper_index.html'
p374
aS'http://www.nba.com/bucks/wallpaper'
p375
aS'http://en.wikipedia.org/wiki/C_%28programming_language%29'
p376
aS'http://finance.yahoo.com/q?s=C'
p377
aS'http://www.google.com/finance?cid=662713'
p378
aS'http://www.cpictures.tv/'
p379
aS'http://www.cpictures.co.uk/'
p380
aS'http://minus.com/'
p381
aS'http://en.wikipedia.org/wiki/Hyphen'
p382
aS'http://www.kiwisbybeat.com/minus.html'
p383
aS'http://www.m-nus.com/'
p384
aS'http://www.hyphenmagazine.com/'
p385
aS'http://engrus.com/k/%D0%BA%D1%84%D0%B7%D1%8B+%D0%B5%D1%89+%D1%88%D1%8C%D0%B8%D1%83%D0%BA%D0%BA%D1%88%D1%8B%D1%83+%D1%8B%D1%89%D1%8C%D1%83%D1%89%D1%82%D1%83'
p386
aS'http://www.thefreedictionary.com/rap'
p387
aS'http://idioms.thefreedictionary.com/rap'
p388
aS'http://www.wikihow.com/Survive-a-Freestyle-Rap-Battle'
p389
aS'http://dc.broadwayworld.com/board/readmessage.php?thread=1042711&boardid=2'
p390
aS'http://alcoholism.about.com/bio/Buddy-T-37.htm'
p391
aS'http://www.buddytv.com/'
p392
aS'http://www6.chessclub.com/activities/finger.php?handle=BuddyT'
p393
aS'/search?q=buddyt&biw=975&bih=440&tbm=isch&tbo=u&source=univ&sa=X&ei=9C_PUpHiOKzNsQT6iIGYDA&ved=0CEMQsAQ'
p394
aS'https://www.facebook.com/buddytsrestaurant'
p395
as.