ccollections
defaultdict
p1
(c__builtin__
list
p2
tRp3
S'3508801'
p4
(lp5
S'http://www.fueleconomy.gov/feg/findacar.shtml'
p6
aS'http://www.fueleconomy.gov/feg/pdfs/guides/FEG2013.pdf'
p7
aS'http://www.fueleconomy.gov/feg/gasprices/'
p8
aS'http://www.autoblog.com/2013/09/12/average-new-car-fuel-economy-record-24-9-mpg/'
p9
aS'http://www.csmonitor.com/Business/In-Gear/2013/0606/Average-gas-mileage-of-new-cars-hits-record-high'
p10
aS'http://www.fueleconomy.gov/'
p11
aS'http://www.fueleconomy.gov/feg/findacar.shtml'
p12
aS'http://www.fueleconomy.gov/feg/powerSearch.jsp'
p13
aS'http://www.fueleconomy.gov/feg/Find.do?action=sbsSelect'
p14
aS'http://www.fueleconomy.gov/feg/best-worst.shtml'
p15
aS'http://www.nbc12.com/'
p16
aS'http://www.nbc12.com/weather'
p17
aS'http://www.nbc12.com/category/135045/seven-day-planner'
p18
aS'http://www.nbc12.com/category/135038/radar-satellite-center'
p19
aS'http://www.nbc12.com/story/20753106/slideshow-central-virginias-most-wanted'
p20
aS'http://www.nbc12.com/'
p21
aS'http://www.nbc12.com/weather'
p22
aS'http://www.nbc12.com/category/128878/sports'
p23
aS'http://www.nbc12.com/category/134132/richmond-news'
p24
aS'http://www.nbc12.com/category/217877/nbc12-news-live'
p25
aS'http://www.thetd.com/'
p26
aS'http://www.thetd.com/classifieds/index.php'
p27
aS'http://www.thetd.com/obits/index.php'
p28
aS'http://www.timesdispatch.com/'
p29
aS'http://www.timesdispatch.com/obituaries/'
p30
aS'http://www.mapquest.com/'
p31
aS'http://m.mapquest.com/'
p32
aS'http://mobile.mapquest.com/'
p33
aS'http://www.mapquest.com/routeplanner'
p34
aS'http://www.mapquest.com/?le=t&s=name%3AFast+Food&vs='
p35
aS'http://www.ssvirginiaautoauction.com/'
p36
aS'http://www.ssvirginiaautoauction.com/car-lists/'
p37
aS'http://www.ssvirginiaautoauction.com/gallery/'
p38
aS'https://www.facebook.com/SSVAA'
p39
aS'http://www.richmond.com/calendar/event_055bd0c2-5f46-11e2-9e68-10604b9f2f2e.html'
p40
aS'http://haleyauto.com/'
p41
aS'http://haleyauto.com/inventory/newsearch/Used/'
p42
aS'http://haleybuickgmc.com/'
p43
aS'http://www.haleyauto.net/'
p44
aS'http://www.haleytoyota.com/'
p45
aS'http://www.haleyford.com/'
p46
aS'http://www.haleyford.com/inventory/newsearch/Used/'
p47
aS'http://www.haleyford.com/page/Staff-MasterPage/master/secondary/?dealerid=2977'
p48
aS'http://www.haleyford.com/page/testimonials/master/secondary'
p49
aS'http://www.haleyfordsouth.com/'
p50
aS'http://www.autotrader.com/find/cars-for-sale-Richmond-23225.jsp'
p51
aS'http://www.carlotz.com/'
p52
aS'http://www.enterprisecarsales.com/location/2181/Enterprise_Car_Sales_Richmond'
p53
aS'http://www.enterprisecarsales.com/location/2181/RichmondUsedCars'
p54
aS'http://haleycertified.com/'
p55
aS'http://www.music.army.mil/music/buglecalls/'
p56
aS'http://www.music.army.mil/music/'
p57
aS'http://en.wikipedia.org/wiki/Bugle_call'
p58
aS'http://www.music.vt.edu/musicdictionary/appendix/buglecalls/Buglecallslist.html'
p59
aS'http://www.youtube.com/watch?v=Hbfl-afsfLs'
p60
aS'http://www.nvidia.com/page/tnt2.html'
p61
aS'http://en.wikipedia.org/wiki/RIVA_TNT2'
p62
aS'/search?q=nvidia+riva+tnt2&biw=975&bih=440&tbm=isch&tbo=u&source=univ&sa=X&ei=STDPUrSKDqrFsAT8jYDoDA&ved=0CDoQsAQ'
p63
aS'http://www.anandtech.com/show/288'
p64
aS'http://www.anandtech.com/show/393'
p65
aS'http://en.wikipedia.org/wiki/San_Francisco_Rush_2049'
p66
aS'/search?q=rush+2049&biw=975&bih=440&tbm=isch&tbo=u&source=univ&sa=X&ei=TzDPUpuJEoK0sATn6YGQDA&ved=0CDQQsAQ'
p67
aS'http://www.youtube.com/watch?v=f1AMnsZD_KE'
p68
aS'http://www.youtube.com/watch?v=vVKxh4brxKI'
p69
aS'http://www.gamefaqs.com/n64/198529-san-francisco-rush-2049/cheats'
p70
aS'http://mychesterfieldschools.com/'
p71
aS'http://mychesterfieldschools.com/community/employment-opportunities/'
p72
aS'http://mychesterfieldschools.com/parents/preparing-for-school/'
p73
aS'http://mychesterfieldschools.com/schools/calendars/'
p74
aS'http://mychesterfieldschools.com/schools/'
p75
aS'http://www.timesdispatch.com/news/local/henrico/fire-damages-trailer-at-chesterfield-school/article_62846f34-6d6a-11e2-8a7b-0019bb30f31a.html'
p76
aS'http://www.timesdispatch.com/archive/chesterfield-school-leaders-approve-mega-trailer-at-watkins-elementary/article_5aeb574a-18c9-5984-b9ae-35ea76689d17.html'
p77
aS'http://www.wlox.com/story/18702470/chesterfield-approves-mega-trailer-for-overcrowded-school'
p78
aS'http://mychesterfieldschools.com/special-announcement-school-safety-update/'
p79
aS'http://www.chesterfieldmonthly.com/interview/our-man-in-the-classroom'
p80
aS'http://www.chesterfield.gov/WorkArea/DownloadAsset.aspx?id=13189'
p81
aS'http://www.chesterfield.gov/WorkArea/DownloadAsset.aspx?id=3607'
p82
aS'http://virginialmi.com/report_center/community_profiles/5104000041.pdf'
p83
aS'http://statchatva.org/2012/11/13/virginia-population-projections/'
p84
aS'http://www.cvwma.com/storage/File/Section_2.pdf'
p85
aS'http://en.wikiquote.org/wiki/Oliver_Wendell_Holmes,_Jr.'
p86
aS'http://quoteinvestigator.com/2012/04/13/taxes-civilize/'
p87
aS'http://en.wikipedia.org/wiki/Oliver_Wendell_Holmes,_Jr.'
p88
aS'http://www.princeton.edu/%7Estarr/articles/articles05/Starr-PriceFreeSociety-5-05.htm'
p89
aS'http://www.huffingtonpost.com/carl-gibson/america-needs-taxes_b_869744.html'
p90
aS'http://en.wikipedia.org/wiki/George_B._McClellan'
p91
aS'http://www.civilwar.org/education/history/biographies/george-mcclellan.html'
p92
aS'http://www.history.com/topics/george-b-mcclellan'
p93
aS'http://www.britannica.com/EBchecked/topic/353944/George-B-McClellan'
p94
aS'http://www.civilwarhome.com/macbio.htm'
p95
aS'/search?q=repair+headlight+lens&biw=975&bih=440&source=univ&tbm=shop&tbo=u&sa=X&ei=dzDPUpe6Ku_jsATA5IDwDQ&ved=0CCkQsxg'
p96
aS'http://www.youtube.com/watch?v=2lZ96BXoT10'
p97
aS'http://www.wikihow.com/Repair-Oxidized-Cloudy-Headlights-with-a-Headlight-Cleaner'
p98
aS'http://www.amazon.com/3M-39008-Headlight-Restoration-System/dp/B001AIZ5HY'
p99
aS'http://www.3m.com/product/information/Headlight-Lens-Repair.html'
p100
aS'http://www.wikihow.com/Repair-Oxidized-Cloudy-Headlights-with-a-Headlight-Cleaner'
p101
aS'http://www.youtube.com/watch?v=RzZEBXzPHCw'
p102
aS'http://www.youtube.com/watch?v=2lZ96BXoT10'
p103
aS'http://www.allpar.com/fix/headlights.html'
p104
aS'http://www.autogeek.net/lenshowto.html'
p105
aS'http://www.wikihow.com/Repair-Oxidized-Cloudy-Headlights-with-a-Headlight-Cleaner'
p106
aS'http://www.popularmechanics.com/cars/how-to/maintenance/4252611'
p107
aS'http://autos.jdpower.com/content/how-to/7LAJNsO/how-to-repair-cloudy-and-hazy-headlights.htm'
p108
aS'http://www.edmunds.com/how-to/how-to-clear-foggy-headlights.html'
p109
aS'http://video.about.com/autorepair/Restore-Foggy-Headlight-Lenses.htm'
p110
aS'http://www.chevrolet.com/silverado-pickup-trucks.html'
p111
aS'http://www.chevrolet.com/silverado-1500-pickup-truck.html'
p112
aS'http://www.chevrolet.com/'
p113
aS'http://www.chevrolet.com/silverado-1500-pickup-truck/build-your-own.html'
p114
aS'/search?q=chevrolet+truck&biw=975&bih=440&tbm=isch&tbo=u&source=univ&sa=X&ei=izDPUqyqKuPisAS_hICgDA&ved=0CFgQsAQ'
p115
aS'http://www.gmc.com/'
p116
aS'http://www.gmc.com/trucks.html'
p117
aS'http://www.gmc.com/acadia-family-crossover-vehicle.html'
p118
aS'http://www.gmc.com/sierra-1500-pickup-truck.html'
p119
aS'http://www.gmc.com/sierra-trucks/heavy-duty-pickups.html'
p120
aS'/search?q=san+diego+chargers&biw=975&bih=440&source=univ&tbm=nws&tbo=u&sa=X&ei=mDDPUsjNDImxsQSW1oDIDA&ved=0CC8QqAI'
p121
aS'http://www.chargers.com/'
p122
aS'http://espn.go.com/nfl/team/_/name/sd/san-diego-chargers'
p123
aS'http://www.nfl.com/teams/sandiegochargers/profile?team=SD'
p124
aS'https://www.facebook.com/chargers'
p125
aS'http://www.hort.purdue.edu/newcrop/morton/orange.html'
p126
aS'http://www.treeplantation.com/citrus-trees.html'
p127
aS'http://www.algebra.com/algebra/homework/playground/test.faq.question.570984.html'
p128
aS'http://ucce.ucdavis.edu/files/repositoryfiles/ca905p11-59016.pdf'
p129
aS'http://coststudies.ucdavis.edu/files/orangevs07.pdf'
p130
aS'http://www.hort.purdue.edu/newcrop/morton/orange.html'
p131
aS'http://www.treeplantation.com/citrus-trees.html'
p132
aS'http://www.algebra.com/algebra/homework/playground/test.faq.question.570984.html'
p133
aS'http://ucce.ucdavis.edu/files/repositoryfiles/ca905p11-59016.pdf'
p134
aS'http://coststudies.ucdavis.edu/files/orangevs07.pdf'
p135
aS'http://www.energystar.gov/products/specs/system/files/Refrigerators_and_Freezers_Program_Requirements%20v4_1.pdf'
p136
aS'http://www.energystar.gov/ia/partners/product_specs/program_reqs/refrig_prog_req.pdf'
p137
aS'http://yosemite.epa.gov/opa/admpress.nsf/6427a6b7538955c585257359003f0230/3c73467ef759ea0a85257b9600732e67%21OpenDocument'
p138
aS'http://www.oksolar.com/technical/consumption.html'
p139
aS'http://www.buildinggreen.com/auth/article.cfm/2013/7/28/Refrigerators-Freezers-Must-Meet-Tougher-Energy-Star-Requirements/'
p140
aS'http://www.coupons.com/'
p141
aS'http://www.smartsource.com/'
p142
aS'http://www.retailmenot.com/'
p143
aS'http://www.fatwallet.com/'
p144
aS'http://www.coolsavings.com/'
p145
aS'http://www.dell.com/us/dfb/p/vostro-220/pd'
p146
aS'http://www.dell.com/us/dfb/p/vostro-220s/pd'
p147
aS'/search?q=dell+220&biw=975&bih=440&tbm=isch&tbo=u&source=univ&sa=X&ei=uDDPUqn8LLOmsQTWnYG4DA&ved=0CDUQsAQ'
p148
aS'http://reviews.cnet.com/desktops/dell-vostro-220-core/4507-3118_7-33779946.html'
p149
aS'http://www.ebay.com/bhp/dell-vostro-220'
p150
aS'http://en.wikipedia.org/wiki/Salsa_Lizano'
p151
aS'http://www.amazon.com/Salsa-Lizano-23-7-Oz-3-pack/product-reviews/B006ZOWALM'
p152
aS'http://www.lizanosite.com/'
p153
aS'http://www.thekitchn.com/recipe-lizano-style-costa-rican-salsa-176299'
p154
aS'http://books.google.com/books?id=O0OBl7LLaJUC&pg=PA175&lpg=PA175&dq=salsa+lozano&source=bl&ots=nRJnQ6MBA0&sig=M5saZO-WqyaZcPLsqxTlDaevPLs&hl=en&sa=X&ei=vjDPUq7JOMngsASL14DYDA&ved=0CEcQ6AEwBA'
p155
aS'http://en.wikipedia.org/wiki/Salsa_Lizano'
p156
aS'http://www.amazon.com/Lizano-Salsa-23-7-Costa-Sauce/dp/B005TBURAI'
p157
aS'http://www.amazon.com/Salsa-Lizano-23-7-Oz-3-pack/dp/B006ZOWALM'
p158
aS'/search?q=salsa+lizano&biw=975&bih=440&tbm=isch&tbo=u&source=univ&sa=X&ei=xTDPUqKiB5PgsAS8wIGoDA&ved=0CEQQsAQ'
p159
aS'http://www.thekitchn.com/recipe-lizano-style-costa-rican-salsa-176299'
p160
aS'/search?q=salsa+lizano&biw=975&bih=440&source=univ&tbm=shop&tbo=u&sa=X&ei=yzDPUqGcELOqsATAiYGADA&ved=0CCkQsxg'
p161
aS'http://en.wikipedia.org/wiki/Salsa_Lizano'
p162
aS'http://www.amazon.com/Lizano-Salsa-23-7-Costa-Sauce/dp/B005TBURAI'
p163
aS'http://www.amazon.com/Salsa-Lizano-23-7-Oz-3-pack/dp/B006ZOWALM'
p164
aS'/search?q=salsa+lizano&biw=975&bih=440&tbm=isch&tbo=u&source=univ&sa=X&ei=yzDPUqGcELOqsATAiYGADA&ved=0CF8QsAQ'
p165
aS'http://www.aolstalker.com/s/prodregister.com/'
p166
aS'http://www.npcanada.org/links.php?orderby=1&dir=1&lnk_i=1810&lnk_n=10&orderby=1'
p167
aS'http://www.idahostatesman.com/web_search/?q=lg%2520usa%2520register%2520register'
p168
aS'http://a248.e.akamai.net/pix.crutchfield.com/manuals/079/079xrs9690.pdf'
p169
aS'http://a248.e.akamai.net/pix.crutchfield.com/Manuals/689/689BD570.PDF'
p170
aS'http://www.dominos.com/'
p171
aS'http://pizza.dominos.com/new-jersey/princeton-junction/08550/33-princeton-hightstown-rd/'
p172
aS'http://pizza.dominos.com/new-jersey/hammonton/08037/109-bellevue-ave/'
p173
aS'http://pizza.dominos.com/new-jersey/princeton-junction/'
p174
aS'http://pizza.dominos.com/new-jersey/leonia/07605/440-broad-ave/'
p175
aS'http://www.dominos.com/'
p176
aS'http://pizza.dominos.com/'
p177
aS'https://order.dominos.com/en/pages/customer/opt-in.jsp'
p178
aS'https://order.dominos.com/en/pages/order/menu.jsp'
p179
aS'http://www.dominos.co.uk/'
p180
aS'http://www.cheersandgears.com/topic/77604-haynes-vs-chilton-repair-manuals/'
p181
aS'http://www.autopia.org/forum/topic/126920-repair-manuals-chilton-vs-haynes/'
p182
aS'http://www.youtube.com/watch?v=XAM_5JLTszE'
p183
aS'http://community.cartalk.com/discussion/2131076/which-is-best-haynes-or-chilton-repair-manuals'
p184
aS'http://repairmannny.blogspot.com/2010/11/auto-repair-manuals-review-chilton-vs.html'
p185
aS'http://www.haynes.com/mole'
p186
aS'http://www.haynes.com/'
p187
aS'http://www.haynes.com/onlinerepairmanuals'
p188
aS'http://www.haynes.com/repairmanuals'
p189
aS'http://www.haynes.com/mole-video'
p190
aS'http://www.nps.gov/ancm/'
p191
aS'http://en.wikipedia.org/wiki/Battle_of_Antietam'
p192
aS'http://www.civilwar.org/battlefields/antietam.html'
p193
aS'/search?q=antietam&biw=975&bih=440&tbm=isch&tbo=u&source=univ&sa=X&ei=8TDPUsAbzeOwBM3CgogM&ved=0CEMQsAQ'
p194
aS'http://www.history.com/topics/battle-of-antietam'
p195
aS'http://en.wikipedia.org/wiki/Battle_of_Antietam'
p196
aS'http://www.history.com/news/7-ways-the-battle-of-antietam-changed-america'
p197
aS'http://www.commandposts.com/2012/09/battle-of-antietam-chronology-and-aftermath/'
p198
aS'http://www.brotherswar.com/Antietam-Aftermath.htm'
p199
aS'/search?q=antietam+aftermath&biw=975&bih=440&tbm=isch&tbo=u&source=univ&sa=X&ei=9zDPUqyzFe3ksASNy4KoDA&ved=0CEkQsAQ'
p200
aS'/search?q=union+and+confederate+flags&biw=975&bih=440&tbm=isch&tbo=u&source=univ&sa=X&ei=_jDPUpmYAY7MsQS5voKwDA&ved=0CCkQsAQ'
p201
aS'http://en.wikipedia.org/wiki/Flags_of_the_Confederate_States_of_America'
p202
aS'http://www.wtv-zone.com/civilwar/flags.html'
p203
aS'http://www.loeser.us/flags/civil.html'
p204
aS'http://www.americancivilwarstory.com/civil-war-flags.html'
p205
aS'http://bible.oremus.org/'
p206
aS'http://bible.oremus.org/nrsvae/'
p207
aS'http://bible.oremus.org/?passage=Mark+6'
p208
aS'http://bible.oremus.org/?passage=Genesis+1'
p209
aS'http://bible.oremus.org/?passage=Luke+24'
p210
aS'http://www.g4tv.com/games/cheats/'
p211
aS'http://www.g4tv.com/cheat/codes/index.html'
p212
aS'http://www.g4tv.com/cheat/videos/index.html'
p213
aS'http://en.wikipedia.org/wiki/Cheat%21'
p214
aS'http://www.youtube.com/watch?v=xqO7AWvfEjg'
p215
aS'http://www.g4tv.com/'
p216
aS'http://www.g4tv.com/games/xplay/'
p217
aS'http://www.g4tv.com/thefeed/'
p218
aS'http://www.g4tv.com/attackoftheshow/'
p219
aS'http://www.g4tv.com/shows/'
p220
aS'/search?q=cast+iron+cookery&biw=975&bih=440&source=univ&tbm=shop&tbo=u&sa=X&ei=FzHPUtPEBdPRsASo64DwCw&ved=0CCwQsxg'
p221
aS'http://www.lodgemfg.com/'
p222
aS'http://en.wikipedia.org/wiki/Cast-iron_cookware'
p223
aS'http://www.williams-sonoma.com/shop/cookware/cookware-cast-iron/'
p224
aS'http://www.overstock.com/Home-Garden/Cookware/Cast-Iron,/material,/1458/cat.html'
p225
aS'/search?q=camping+cast+iron+cookery&biw=975&bih=440&source=univ&tbm=shop&tbo=u&sa=X&ei=HTHPUsKUN6HmsAToqYHQDQ&ved=0CCkQsxg'
p226
aS'http://www.basspro.com/Cast-Iron/_/S-12325006002'
p227
aS'http://www.lodgemfg.com/seasoned-cast-iron/camp-ovens-and-grills'
p228
aS'http://whatscookingamerica.net/Information/DutchOven/DutchOvenCooking.htm'
p229
aS'http://www.coleman.com/Products/5140/cast-iron-amp-camping-cookware'
p230
aS'http://www.alcopeland.com/'
p231
aS'http://www.alcopeland.com/company.html'
p232
aS'http://www.alcopeland.com/restaurants.html'
p233
aS'http://www.alcopeland.com/contact.html'
p234
aS'http://www.alcopeland.com/gift-cards.html'
p235
aS'http://www.winemag.com/wine-for-beginners/'
p236
aS'http://winefolly.com/tutorial/wine-for-beginners-infographic/'
p237
aS'http://www.publix.com/wine/'
p238
aS'http://www.traderjoes.com/guides/wine-guide.asp'
p239
aS'http://www.internetwineguide.com/'
p240
aS'http://www.winemag.com/wine-for-beginners/'
p241
aS'http://winefolly.com/wine-basics-beginners-guide/'
p242
aS'http://winefolly.com/tutorial/wine-for-beginners-infographic/'
p243
aS'http://www.totalwine.com/eng/guide-to-wine/index.cfm?utm_source=BenchmarkEmail&utm_campaign=May_01_2013&utm_medium=email'
p244
aS'http://wine.about.com/od/winebasic1/'
p245
aS'http://www.puritancleaners.com/'
p246
aS'http://www.puritancleaners.com/locations/'
p247
aS'http://www.puritancleaners.com/community/coats-for-kids/'
p248
aS'http://puritancleaners.com/'
p249
aS'http://puritancleaners.com/'
p250
aS'http://www.handcraftdrycleaners.com/'
p251
aS'http://www.handcraftdrycleaners.com/'
p252
aS'http://puritancleaners.com/'
p253
aS'http://www.yelp.com/search?find_desc=Dry+Cleaners&find_loc=Richmond%2C+VA'
p254
aS'http://www.yelp.com/search?cflt=drycleaninglaundry&find_loc=Richmond%2C+VA'
p255
aS'http://www.yellowpages.com/palmyra-nj/mip/harbour-cleaners-15733405'
p256
aS'http://www.harbourcleaners.com/'
p257
aS'http://www.yelp.com/biz/harbour-cleaners-huntington-beach'
p258
aS'http://www.yelp.com/biz/harbour-cleaners-palmyra'
p259
aS'http://www.yelp.com/biz/harbour-cleaners-rockaway-park'
p260
aS'http://www.yelp.com/biz/harborgate-cleaners-richmond'
p261
aS'http://www.manta.com/c/mm6s4bt/harbour-cleaners'
p262
aS'http://richmond.citysearch.com/profile/44149299/chesterfield_va/harbour_cleaners.html'
p263
aS'https://plus.google.com/103416853011910937412/about?hl=en&socfid=web:lu:unknown:localgroupedresult&socpid=1'
p264
aS'https://plus.google.com/116152071751437710923/about?hl=en&socfid=web:lu:unknown:localgroupedresult&socpid=1'
p265
aS'http://en.wikipedia.org/wiki/The_Pussycat_Dolls'
p266
aS'http://www.youtube.com/watch?v=VCLxJd1d84s'
p267
aS'http://www.youtube.com/watch?v=YNSxNsr4wmA'
p268
aS'http://www.youtube.com/watch?v=K0K46C82v9o'
p269
aS'http://www.youtube.com/watch?v=K1uNjmxJQUo'
p270
aS'http://www.timesdispatch.com/'
p271
aS'http://www.timesdispatch.com/news/state-regional/'
p272
aS'http://www.timesdispatch.com/obituaries/'
p273
aS'http://www.timesdispatch.com/sports/'
p274
aS'http://www.timesdispatch.com/classifieds/'
p275
aS'http://www.timesdispatch.com/'
p276
aS'http://www.timesdispatch.com/sports/'
p277
aS'http://www.timesdispatch.com/classifieds/jobs/'
p278
aS'http://www.timesdispatch.com/obituaries/death-notices/'
p279
aS'http://www.timesdispatch.com/news/local/'
p280
as.