ccollections
defaultdict
p1
(c__builtin__
list
p2
tRp3
S'8093253'
p4
(lp5
S'http://www.ask.com/'
p6
aS'http://www.ask.com/question/'
p7
aS'http://blog.ask.com/'
p8
aS'http://en.wikipedia.org/wiki/Ask.com'
p9
aS'http://www.askjeeves.com/webtvmirror/index.asp'
p10
aS'http://www.ask.com/question/how-to-spot-a-fake-michele-watch'
p11
aS'http://www.ask.com/question/michele-watches'
p12
aS'http://www.ask.com/explore/most-luxurious-styles-michele-watches-women'
p13
aS'http://www.ask.com/answers/91778181/how-to-spot-a-fake-michele-michele-watch'
p14
aS'http://www.ask.com/question/how-to-spot-a-fake-watch'
p15
aS'http://www.michele.com/'
p16
aS'http://www.michele.com/en_US/shop/watches.html'
p17
aS'http://www.michele.com/en_US/shop/straps.html'
p18
aS'http://shop.nordstrom.com/c/michele-watches'
p19
aS'http://www.ebay.com/bhp/michele-watch'
p20
aS'http://www.michele.com/'
p21
aS'http://shop.nordstrom.com/c/michele-watches'
p22
aS'http://www.amazon.com/s?rh=n%3A377110011%2Cp_4%3AMichele'
p23
aS'http://www.amazon.com/gp/shops/A3501ASPUSJXQ6'
p24
aS'http://www1.bloomingdales.com/shop/jewelry-accessories/michele?id=16296'
p25
aS'http://www.wildginger.net/'
p26
aS'http://www.wildginger.net/our-food/menus.aspx'
p27
aS'http://www.wildginger.net/our-locations/Bellevue.aspx'
p28
aS'http://www.wildginger.com/'
p29
aS'http://www.wildginger.com/products/wildthings.htm'
p30
aS'http://www.wildginger.net/'
p31
aS'http://www.wildginger.net/our-food/menus.aspx'
p32
aS'http://www.wildginger-restaurant.com/'
p33
aS'http://www.wildginger.info/'
p34
aS'http://www.wildgingerrestaurant.net/'
p35
aS'http://www.wildginger-ct.com/'
p36
aS'http://openmenu.com/restaurant/2155e046-15bb-11e0-b40e-0018512e6b26'
p37
aS'http://www.menuism.com/restaurants/wild-ginger-greenwich-274177'
p38
aS'http://www.allmenus.com/ct/greenwich/25500-wild-ginger/menu/'
p39
aS'http://local.yahoo.com/info-84350236-wild-ginger-greenwich'
p40
aS'http://www.yelp.com/biz/onyx-bar-and-lounge-stamford'
p41
aS'http://events.stamfordadvocate.com/stamford_ct/venues/show/504047-onyx-bar-and-lounge'
p42
aS'http://events.ctpost.com/stamford_ct/venues/show/504047-onyx-bar-and-lounge'
p43
aS'http://events.jsonline.com/stamford_ct/venues/show/504047-onyx-bar-and-lounge'
p44
aS'http://events.mysanantonio.com/stamford_ct/venues/show/504047-onyx-bar-and-lounge'
p45
aS'http://www.yelp.com/biz/onyx-bar-and-lounge-stamford'
p46
aS'http://events.stamfordadvocate.com/stamford_ct/venues/show/504047-onyx-bar-and-lounge'
p47
aS'http://events.ctpost.com/stamford_ct/venues/show/504047-onyx-bar-and-lounge'
p48
aS'http://events.jsonline.com/stamford_ct/venues/show/504047-onyx-bar-and-lounge'
p49
aS'http://events.mysanantonio.com/stamford_ct/venues/show/504047-onyx-bar-and-lounge'
p50
aS'http://www.yelp.com/biz/onyx-bar-and-lounge-stamford'
p51
aS'http://events.jsonline.com/stamford_ct/venues/show/504047-onyx-bar-and-lounge'
p52
aS'http://www.menupix.com/r/5707321'
p53
aS'http://www.zvents.com/stamford_ct/venues/show/504047-onyx-bar-and-lounge'
p54
aS'http://events.mysanantonio.com/stamford_ct/venues/show/504047-onyx-bar-and-lounge'
p55
aS'http://www.amigo-us.com/'
p56
aS'http://www.amigo-us.com/faqs.cfm'
p57
aS'http://www.amigo-us.com/rates.cfm'
p58
aS'http://www.amigo-us.com/rates.cfm?cvID=315'
p59
aS'http://www.amigo-us.com/about-us.cfm'
p60
aS'http://www.yelp.com/search?find_desc=Wine+Store&find_loc=Brooklyn%2C+NY'
p61
aS'http://www.yelp.com/biz/prospect-wine-shop-brooklyn'
p62
aS'http://brooklyn.about.com/od/shoppingservices/tp/best-wine-shops.htm'
p63
aS'http://www.heightschateau.com/'
p64
aS'http://www.bkwinery.com/brooklyn-wine-stores'
p65
aS'http://www.yelp.com/biz/orlander-liquors-brooklyn'
p66
aS'http://www.yelp.com/biz/orlander-h-wines-liqrs-brooklyn'
p67
aS'https://www.facebook.com/pages/Orlander-Liquors/143539662344007'
p68
aS'http://www.1800banners.com/address/liquor-stores/orlanders-liquor-store/in/brooklyn/new-york/jobs'
p69
aS'https://foursquare.com/v/orlander-liquors/4f323c9319836c91c7c3a5fc'
p70
aS'http://www.united.com/'
p71
aS'http://en.wikipedia.org/wiki/Continental_Airlines'
p72
aS'http://flights.expedia.com/continental-airlines-reservations-and-flight-deals/'
p73
aS'http://us.makemytrip.com/airlines-to-india/continental-airlines.php'
p74
aS'http://www.cocargo.com/'
p75
aS'http://www.united.com/'
p76
aS'https://www.united.com/web/en-Us/Content/reservations/default.aspx'
p77
aS'http://www.united.com/travel/checkin/start.aspx'
p78
aS'https://www.united.com/web/en-us/apps/travel/flightstatus/default.aspx'
p79
aS'https://www.united.com/web/en-US/content/mileageplus/awards/default.aspx'
p80
aS'http://www.gucci.com/'
p81
aS'http://www.gucci.com/us/category/f/handbags'
p82
aS'http://www.gucci.com/int/home'
p83
aS'http://www.gucci.com/us'
p84
aS'http://www.gucci.com/'
p85
aS'http://www.gucci.com/us/category/f/women_s_ready_to_wear'
p86
aS'http://www.style.com/fashionshows/review/S2014RTW-GUCCI'
p87
aS'http://www.style.com/fashionshows/complete/S2014RTW-GUCCI'
p88
aS'http://www.style.com/fashionshows/review/S2012RTW-GUCCI'
p89
aS'http://www.wwd.com/runway/spring-ready-to-wear-2014/review/gucci'
p90
aS'http://www.gucci.com/'
p91
aS'http://www.gucci.com/int/home'
p92
aS'http://www.gucci.com/us/category/f/sunglasses'
p93
aS'http://www.gucci.com/us/category/f/handbags'
p94
aS'http://www.gucci.com/us/category/u/sale'
p95
aS'http://www.opentable.com/'
p96
aS'http://www.opentable.com/philadelphia-restaurants'
p97
aS'http://www.opentable.com/opentable-restaurant-management-system'
p98
aS'http://www.opentable.com/new-york-city-restaurants'
p99
aS'http://www.opentable.com/los-angeles-restaurants'
p100
aS'http://www.babbonyc.com/'
p101
aS'http://www.babbonyc.com/menu/dinner/'
p102
aS'http://www.babbonyc.com/ristorantemenu/reservations/'
p103
aS'http://nymag.com/listings/restaurant/babbo/'
p104
aS'http://www.zagat.com/r/babbo-new-york'
p105
aS'http://www.delposto.com/'
p106
aS'http://www.delposto.com/restaurant.cfm'
p107
aS'http://www.opentable.com/del-posto'
p108
aS'http://www.yelp.com/biz/del-posto-new-york'
p109
aS'http://nymag.com/listings/restaurant/del-posto/'
p110
aS'http://www.ebay.com/'
p111
aS'http://www.ebay.com/motors'
p112
aS'http://www.ebay.com/electronics/cell-phone-pda'
p113
aS'http://deals.ebay.com/'
p114
aS'http://www.ebay.com/electronics'
p115
aS'http://www.brooklynmuseum.org/'
p116
aS'http://www.brooklynmuseum.org/exhibitions/'
p117
aS'https://www.brooklynmuseum.org/calendar/'
p118
aS'https://www.brooklynmuseum.org/visit/'
p119
aS'http://www.brooklynmuseum.org/about/'
p120
aS'http://www.brooklynmuseum.org/'
p121
aS'http://www.brooklynmuseum.org/exhibitions/'
p122
aS'https://www.brooklynmuseum.org/visit/directions.php'
p123
aS'https://www.brooklynmuseum.org/visit/'
p124
aS'http://www.brooklynmuseum.org/collections/'
p125
aS'http://www.menusny.com/'
p126
aS'http://www.menusny.com/co-op.php'
p127
aS'http://www.menusny.com/content/menus/dl277.pdf'
p128
aS'http://www.menusny.com/menupdf2.php?id=281'
p129
aS'http://www.menusny.com/menupdf2.php?id=285'
p130
aS'http://menumania.seccionamarilla.com.mx/'
p131
aS'http://menumania.seccionamarilla.com.mx/guadalajara'
p132
aS'http://menumania.seccionamarilla.com.mx/restaurantes/cantinas/distrito-federal/1'
p133
aS'http://menumania.seccionamarilla.com.mx/monterrey'
p134
aS'http://menumania.seccionamarilla.com.mx/alimentos/restaurantes'
p135
aS'http://www.menupages.com/'
p136
aS'http://philadelphia.menupages.com/'
p137
aS'http://www.menupages.com/restaurants/midtown-west/all-neighborhoods/all-cuisines/'
p138
aS'http://www.menupages.com/restaurants/upper-east-side/all-neighborhoods/all-cuisines/'
p139
aS'http://www.menupages.com/restaurants/brooklyn/all-neighborhoods/all-cuisines/'
p140
aS'http://www.chabad.org/holidays/passover/pesach_cdo/aid/671901/jewish/When-is-Passover-in-2013-2014-2015-2016-and-2017.htm'
p141
aS'http://www.infoplease.com/spot/movablefeasts1.html'
p142
aS'http://www.hebcal.com/holidays/2013-2014'
p143
aS'http://www.timeanddate.com/holidays/us/first-day-of-passover'
p144
aS'http://www.when-is.com/passover-2014.asp'
p145
aS'http://www.fourseasons.com/'
p146
aS'http://www.fourseasons.com/find_a_hotel_or_resort/'
p147
aS'http://www.fourseasons.com/chicagofs/'
p148
aS'http://www.fourseasons.com/newyork/'
p149
aS'http://www.fourseasons.com/westlakevillage/'
p150
aS'http://www.stamfordctguide.com/category/restaurants'
p151
aS'http://www.yelp.com/search?find_desc=Best+Restaurants&find_loc=Stamford%2C+CT'
p152
aS'http://www.tripadvisor.com/Restaurants-g33936-Stamford_Connecticut.html'
p153
aS'http://www.zagat.com/c/connecticut-ct/stamford-restaurants'
p154
aS'http://www.urbanspoon.com/n/297/35320/Fairfield-County/Stamford-restaurants'
p155
aS'http://www.stamfordctguide.com/category/restaurants'
p156
aS'http://www.yelp.com/search?find_desc=Best+Restaurants&find_loc=Stamford%2C+CT'
p157
aS'http://www.tripadvisor.com/Restaurants-g33936-Stamford_Connecticut.html'
p158
aS'http://www.zagat.com/c/connecticut-ct/stamford-restaurants'
p159
aS'http://www.urbanspoon.com/n/297/35320/Fairfield-County/Stamford-restaurants'
p160
aS'http://www.zagat.com/c/connecticut-ct/fairfield-restaurants'
p161
aS'http://www.zagat.com/connecticut'
p162
aS'http://www.zagat.com/r/artisan-southport'
p163
aS'http://www.zagat.com/r/osianna-fairfield'
p164
aS'http://www.examiner.com/article/zagat-says-fairfield-county-has-more-than-35-superb-restaurants'
p165
aS'http://www.marquesa.com/'
p166
aS'http://www.marquesa.com/cafe-marquesa.htm'
p167
aS'http://www.marquesa.com/accommodations.htm'
p168
aS'http://www.marquesa.com/specials.cfm'
p169
aS'http://www.marquesa.com/photo-tour.htm'
p170
aS'http://www.tv5.org/cms/chaine-francophone/meteo/p-176-lg3-Ixtapa-Zihuatan.htm?id_ville=1793'
p171
aS'http://www.tv5.org/cms/chaine-francophone/meteo/p-176-lg8-Ixtapa-Zihuatan.htm?id_ville=1793'
p172
aS'http://meteonews.ch/en/Measurements/M76758000/Ixtapa-Zihuatan'
p173
aS'https://es-es.facebook.com/SEFOTURGuerrero/posts/665745976783283'
p174
aS'http://meteo.france24.com/en/meteo/ville/Ixtapa-Zihuatan/23260'
p175
aS'http://doubletree3.hilton.com/en/hotels/florida/doubletree-by-hilton-hotel-grand-key-resort-key-west-EYWDTDT/'
p176
aS'http://waldorfastoria3.hilton.com/en/hotels/florida/the-reach-a-waldorf-astoria-resort-EYWRRWA/'
p177
aS'http://www.expedia.com/Key-West-Florida-Keys-Hotels-Hilton-Worldwide.0-n6062965-0--bHiltonWorldwide.Travel-Guide-Filter-Hotels'
p178
aS'http://www.tripadvisor.com/Hotel_Review-g34345-d209384-Reviews-DoubleTree_by_Hilton_Hotel_Grand_Key_Resort_Key_West-Key_West_Florida_Keys_Florida.html'
p179
aS'http://casamarinaresort.com/'
p180
aS'/search?q=gevril+watches.com&biw=975&bih=440&source=univ&tbm=shop&tbo=u&sa=X&ei=SDLPUqjNOpLlsAT01IKADA&ved=0CCkQsxg'
p181
aS'http://www.gevril.com/'
p182
aS'http://www.amazon.com/s?ie=UTF8&field-lbr_brands_browse-bin=Gevril&page=1&rh=n%3A377110011%2Cp_89%3AGevril'
p183
aS'http://gevrilgroup.com/gevril-watches/'
p184
aS'http://www.ebay.com/bhp/gevril-watch'
p185
aS'http://zoetryresorts.com/paraiso/'
p186
aS'http://www.zoetryresorts.com/paraiso/contactus.html'
p187
aS'http://www.zoetryresorts.com/paraiso/photo-gallery.html'
p188
aS'http://www.zoetryresorts.com/Paraiso/contactus.html'
p189
aS'http://www.tripadvisor.com/Hotel_Review-g240327-d488579-Reviews-Zoetry_Paraiso_de_la_Bonita-Puerto_Morelos_Yucatan_Peninsula.html'
p190
aS'http://www.usairways.com/'
p191
aS'http://www.usairways.com/Flifo/Default.aspx'
p192
aS'http://shopping.usairways.com/Flights/AdvancedSearch.aspx'
p193
aS'https://reservations.usairways.com/'
p194
aS'http://www.usairways.com/en-US/traveltools/baggage/baggagepolicies.html'
p195
aS'http://www.aavacations.com/'
p196
aS'https://www.aavacations.com/deals/Caribbean'
p197
aS'https://www.aavacations.com/deals/USA-Hawaii'
p198
aS'https://www.aavacations.com/deals/Shop_By_Theme-All_Inclusive_Vacations'
p199
aS'https://www.aavacations.com/deals/USA'
p200
aS'http://www.tripadvisor.com/Hotels-g32684-Marina_del_Rey_California-Hotels.html'
p201
aS'http://www.expedia.com/Marina-Del-Rey-Hotels.d10380.Travel-Guide-Hotels'
p202
aS'http://www.hotels.com/de1405691/hotels-marina-del-rey-california/'
p203
aS'http://www.marriott.com/hotels/travel/laxmb-marina-del-rey-marriott/'
p204
aS'http://doubletree3.hilton.com/en/hotels/california/hotel-mdr-marina-del-rey-a-doubletree-by-hilton-LAXMADT/index.html'
p205
aS'http://www.mirage.com/'
p206
aS'http://www.mirage.com/hotel/'
p207
aS'http://www.mirage.com/restaurants/'
p208
aS'http://www.mirage.com/entertainment/'
p209
aS'http://www.mirage.com/hotel/guest-rooms.aspx'
p210
aS'http://www.bellagio.com/'
p211
aS'http://www.bellagio.com/hotel/'
p212
aS'http://www.bellagio.com/restaurants/'
p213
aS'http://www.bellagio.com/contact/contact-us.aspx'
p214
aS'http://www.bellagio.com/attractions/fountains-of-bellagio.aspx'
p215
aS'/aclk?sa=L&ai=CJ8xsdTLPUt_QL-O06AGw1IDwDui4n_EBqOrm_CKMx-IECAUQAVDu6s3D_P____8BYMmGh4u8pKAayAEBqgQcT9CTBl6GsUDHRvNACmFCTOm_SkKqLcy_5wEtGqAGGoAH8I7mF5AHAw&sig=AOD64_1PEOG-HTVXH-SX6dLnG2oh7glO1w&xparam=d%3D2014-01-19%26n%3D1&ved=0CCoQuB0&adurl=http://www.google.com/hotels/ad%3Fl%3DLas%2BVegas,%2BNevada%26q%3Dhotel%2Bshows%2Blas%2Bvegas%26gl%3DUS%26cu_link%3D1'
p216
aS'http://www.lasvegas.com/'
p217
aS'http://www.vegas.com/'
p218
aS'http://www.vegas.com/sitemap_home.html'
p219
aS'/search?q=hotel+shows+las+vegas&biw=975&bih=440&source=univ&tbm=nws&tbo=u&sa=X&ei=dTLPUsO6LKelsQTNuoDQDA&ved=0CE8QqAI'
p220
aS'http://www.caesarspalace.com/'
p221
aS'http://www.caesarspalace.com/hotel.html'
p222
aS'http://www.caesarspalace.com/casino.html'
p223
aS'http://www.caesarspalace.com/shows.html'
p224
aS'http://www.caesarspalace.com/things-to-do.shopping.html'
p225
aS'http://www.lasvegas.com/restaurants/'
p226
aS'http://www.yelp.com/c/las-vegas/restaurants'
p227
aS'http://www.tripadvisor.com/Restaurants-g45963-Las_Vegas_Nevada.html'
p228
aS'http://www.vegas.com/restaurant/'
p229
aS'http://www.urbanspoon.com/c/18/Las-Vegas-restaurants.html'
p230
aS'http://www.lasvegas.com/restaurants/'
p231
aS'http://www.yelp.com/c/las-vegas/restaurants'
p232
aS'http://www.tripadvisor.com/Restaurants-g45963-Las_Vegas_Nevada.html'
p233
aS'http://www.vegas.com/restaurant/'
p234
aS'http://www.urbanspoon.com/lb/18/best-restaurants-Las-Vegas'
p235
aS'http://www.mgmgrand.com/'
p236
aS'http://www.mgmgrand.com/hotel/'
p237
aS'https://www.mgmgrand.com/entertainment/'
p238
aS'http://www.mgmgrand.com/amenities/'
p239
aS'https://www.mgmgrand.com/restaurants/'
p240
aS'http://www.mirage.com/'
p241
aS'http://www.mirage.com/entertainment/'
p242
aS'http://www.mirage.com/restaurants/'
p243
aS'http://www.mirage.com/hotel-promotions/'
p244
aS'http://www.mirage.com/contact/'
p245
aS'http://nearandfaraid.org/'
p246
aS'http://nearandfaraid.org/events.html'
p247
aS'http://nearandfaraid.org/sponsor-list.html'
p248
aS'http://nearandfaraid.org/grants.html'
p249
aS'http://nearandfaraid.org/tour_de_force_near_far_aid_house_tour_benefits_neightbors_in_need.html'
p250
aS'http://www.mirage.com/'
p251
aS'http://www.mirage.com/contact/'
p252
aS'http://www.mirage.com/hotel-promotions/'
p253
aS'http://www.mirage.com/hotel/guest-suites.aspx'
p254
aS'http://www.mirage.com/promotions/'
p255
aS'http://www.bellagio.com/'
p256
aS'http://www.bellagio.com/hotel/'
p257
aS'http://www.bellagio.com/contact/contact-us.aspx'
p258
aS'http://www.bellagio.com/wireless/'
p259
aS'http://www.bellagio.com/amenities/pools-and-courtyards.aspx'
p260
aS'http://www.caesarspalace.com/'
p261
aS'http://www.caesarspalace.com/casino.html'
p262
aS'http://www.caesarspalace.com/hotel.html'
p263
aS'http://www.caesarspalace.com/shows.html'
p264
aS'http://www.caesars.com/'
p265
aS'http://www.planethollywoodresort.com/'
p266
aS'http://en.wikipedia.org/wiki/Planet_Hollywood_Resort_%26_Casino'
p267
aS'http://www.a2zlasvegas.com/hotels/history/h-aladdin.html'
p268
aS'/search?q=aladdin+hotel+and+casino&biw=975&bih=440&tbm=isch&tbo=u&source=univ&sa=X&ei=tzLPUtqYH4i-sQTmsYKgDA&ved=0CE0QsAQ'
p269
aS'http://www.youtube.com/watch?v=cRaNwPGcQcM'
p270
aS'http://www.planethollywoodresort.com/'
p271
aS'http://en.wikipedia.org/wiki/Planet_Hollywood_Resort_%26_Casino'
p272
aS'http://www.a2zlasvegas.com/hotels/history/h-aladdin.html'
p273
aS'/search?q=aladdin+hotel+and+casino&biw=975&bih=440&tbm=isch&tbo=u&source=univ&sa=X&ei=vjLPUvLOCJWksQTi5oGADA&ved=0CE0QsAQ'
p274
aS'http://www.youtube.com/watch?v=cRaNwPGcQcM'
p275
aS'http://www.yelp.com/biz/commanders-palace-las-vegas'
p276
aS'http://en.wikipedia.org/wiki/Commander%27s_Palace'
p277
aS'http://www.commanderspalace.com/'
p278
aS'http://www.tripadvisor.com/ShowTopic-g45963-i10-k1644467-Any_news_on_Commanders_Palace-Las_Vegas_Nevada.html'
p279
aS'http://menusearch.net/lasvegas/restaurant.php?name=437'
p280
aS'http://www.mandalaybay.com/'
p281
aS'http://www.mandalaybay.com/accommodations/'
p282
aS'http://www.mandalaybay.com/accommodations/mandalay-bay/'
p283
aS'http://www.mandalaybay.com/dining/'
p284
aS'http://www.mandalaybay.com/accommodations/promotions/'
p285
aS'http://www.zagat.com/las-vegas'
p286
aS'http://blog.zagat.com/2013/01/10-best-restaurants-in-las-vegas.html'
p287
aS'http://blog.zagat.com/2012/06/las-vegas-10-best-restaurants.html'
p288
aS'http://www.zagat.com/c/las-vegas-nv/italian-restaurants'
p289
aS'http://www.zagat.com/c/las-vegas-nv/seafood-restaurants'
p290
aS'http://www.palms.com/'
p291
aS'http://www.palms.com/guestrooms'
p292
aS'http://www.palms.com/package-types'
p293
aS'http://www.palms.com/casual-dining'
p294
aS'http://www.palms.com/content/palms/en_us/casino-resort/stay/palms-place'
p295
aS'http://www.newyorknewyork.com/'
p296
aS'http://www.newyorknewyork.com/hotel/'
p297
aS'http://www.newyorknewyork.com/entertainment/'
p298
aS'http://www.newyorknewyork.com/hotel/rooms/'
p299
aS'http://www.newyorknewyork.com/restaurants/'
p300
aS'http://www.wynnlasvegas.com/'
p301
aS'http://www.wynnlasvegas.com/Rooms'
p302
aS'http://www.wynnlasvegas.com/AboutUs/ContactInformation'
p303
aS'http://www.wynnlasvegas.com/Restaurants/'
p304
aS'http://www.wynnlasvegas.com/Rooms/EncoreResorts'
p305
aS'http://www.docksoysterhouse.com/'
p306
aS'http://www.opentable.com/docks-oyster-house'
p307
aS'http://www.tripadvisor.com/Restaurant_Review-g29750-d491036-Reviews-Dock_s_Oyster_House-Atlantic_City_New_Jersey.html'
p308
aS'http://www.yelp.com/biz/docks-oyster-house-atlantic-city'
p309
aS'http://www.urbanspoon.com/r/289/1245148/restaurant/South-Jersey/Docks-Oyster-House-Atlantic-City'
p310
aS'http://www.atlanticcitynj.com/eat/'
p311
aS'http://www.tripadvisor.com/Restaurants-g29750-Atlantic_City_New_Jersey.html'
p312
aS'http://www.yelp.com/c/atlantic-city-nj-us/restaurants'
p313
aS'http://www.opentable.com/atlantic-city-restaurants'
p314
aS'http://www.acrestaurantweek.com/restaurants/'
p315
aS'http://www.cbs.com/shows/survivor/'
p316
aS'http://en.wikipedia.org/wiki/Survivor_%28TV_series%29'
p317
aS'http://en.wikipedia.org/wiki/Survivor_%28U.S._TV_series%29'
p318
aS'http://en.wikipedia.org/wiki/Survivor_%28band%29'
p319
aS'http://www.imdb.com/title/tt0239195/'
p320
aS'http://minus.com/'
p321
aS'http://en.wikipedia.org/wiki/Hyphen'
p322
aS'http://www.kiwisbybeat.com/minus.html'
p323
aS'http://www.m-nus.com/'
p324
aS'http://www.hyphenmagazine.com/'
p325
aS'http://www.mapquest.com/'
p326
aS'http://www.mapquest.com/maps?2a=1450%20S%20Atherton%20St&2c=State%20College&2s=PA&2z=16801'
p327
aS'http://www.mapquest.com/satellite-maps/'
p328
aS'http://www.mapquest.com/routeplanner'
p329
aS'http://m.mapquest.com/maps'
p330
aS'http://nylottery.ny.gov/'
p331
aS'http://www.lotteryusa.com/lottery/NY/NY_fcur.html'
p332
aS'http://www.lotterypost.com/results/ny'
p333
aS'http://www.us-lotteries.com/new_york/'
p334
aS'http://www.lotto.net/new-york-lotto-results.asp'
p335
aS'http://nylottery.ny.gov/'
p336
aS'http://www.lotteryusa.com/lottery/NY/NY_fcur.html'
p337
aS'http://www.lotterypost.com/results/ny'
p338
aS'http://www.lottostrategies.com/script/last_results/233/NY/new-york-lottery-results.html'
p339
aS'http://www.lotto.net/new-york-lotto-results.asp'
p340
aS'http://www.united.com/'
p341
aS'https://www.united.com/web/en-us/apps/travel/flightstatus/default.aspx'
p342
aS'https://www.united.com/web/en-Us/apps/reservation/default.aspx'
p343
aS'https://www.united.com/web/en-Us/Content/reservations/default.aspx'
p344
aS'https://www.united.com/web/en-US/content/mileageplus/awards/default.aspx'
p345
aS'http://www.google.co.in/'
p346
aS'http://www.google.co.in/imghp'
p347
aS'http://translate.google.co.in/'
p348
aS'/search?q=www.goog&biw=975&bih=440&source=univ&tbm=nws&tbo=u&sa=X&ei=HjPPUpbMAdOysQTyiIDADA&ved=0CDoQqAI'
p349
aS'http://www.google.co.uk/'
p350
aS'http://www.rheumatology.org/Practice/Clinical/Patients/Diseases_And_Conditions/Psoriatic_Arthritis/'
p351
aS'http://www.medicinenet.com/psoriatic_arthritis/article.htm'
p352
aS'http://www.psoriasis.org/psoriatic-arthritis'
p353
aS'http://en.wikipedia.org/wiki/Psoriatic_arthritis'
p354
aS'http://www.mayoclinic.org/diseases-conditions/psoriatic-arthritis/basics/definition/con-20015006'
p355
aS'http://www.amazon.com/s?ie=UTF8&page=1&rh=n%3A378526011%2Cp_4%3AGV2%20by%20Gevril%2Cp_6%3AA25Q8ZCG0YLQ1F'
p356
aS'http://www.amazon.com/GV2-Gevril-4042R3-Powerball-Sub-Second/dp/B0057WEXWC'
p357
aS'http://demo.emthemes.com/watchstore/index.php/apparel/test1/gevril.html'
p358
aS'/search?q=gevril+sport&biw=975&bih=440&tbm=isch&tbo=u&source=univ&sa=X&ei=KjPPUo_xHqaxsQSLzoGwDA&ved=0CEQQsAQ'
p359
aS'http://www.overstock.com/Jewelry-Watches/Gevril-Gv2-Mens-Stainless-Steel-Black-Strap-Sport-Watch/1463589/product.html'
p360
aS'http://www.youtube.com/watch?v=_h-WjGa9kRA'
p361
aS'http://www.ebay.com/bhp/gevril-gv2-watch'
p362
aS'http://gevrilgroup.com/gv2-watches/'
p363
aS'http://www.amazon.com/GV2-Gevril-3000R-Parachute-Chronograph/dp/B005EJGMKO'
p364
aS'http://www.amazon.com/GV2-Gevril-4512-Submarine-24-Hour/dp/B0057WF63M'
p365
aS'http://www.amazon.com/Watches-Mens-Womens-Kids-Accessories/b?ie=UTF8&node=377110011'
p366
aS'http://www.amazon.com/Sale-Watches/b?ie=UTF8&node=390021011'
p367
aS'http://www.amazon.com/b?node=6358543011'
p368
aS'http://www.amazon.com/b?node=6358539011'
p369
aS'http://www.amazon.com/b?ie=UTF8&node=6461804011'
p370
aS'http://www.allmenus.com/'
p371
aS'http://www.pizzahut.com/'
p372
aS'http://www.mcdonalds.com/'
p373
aS'http://thesandwichspot.com/locations-menus/'
p374
aS'http://www.suncafe.com/images/menu.pdf'
p375
aS'http://www.allmenus.com/'
p376
aS'http://www.menus.com/'
p377
aS'http://devwww.menus.com/'
p378
aS'https://www.facebook.com/pages/Printed-Menus-com/207590129258849'
p379
aS'http://hungrymenus.com/islandpark/'
p380
aS'http://www.menus.com/'
p381
aS'http://www.allmenus.com/'
p382
aS'http://philadelphia.menupages.com/'
p383
aS'/search?q=menus.com&biw=975&bih=440&source=univ&tbm=nws&tbo=u&sa=X&ei=STPPUqnfE6u0sATF1YGgDA&ved=0CD8QqAI'
p384
aS'http://www.scarletmenus.com/'
p385
aS'http://www.nymenus.com/'
p386
aS'http://www.alexa.com/siteinfo/nymenus.com'
p387
aS'http://loandomainsanalyzer.com/domain/nymenus.com/'
p388
aS'http://analizatar.com/domain/nymenus.com/'
p389
aS'http://www.ip-adress.com/ip_tracer/nymenus.com'
p390
aS'http://www.wnymenu.com/'
p391
aS'http://www.wnymenu.com/category/grand-island/'
p392
aS'http://www.wnymenu.com/2010/04/'
p393
aS'http://www.wnymenu.com/2010/05/'
p394
aS'http://www.wnymenu.com/xmlrpc.php?rsd'
p395
aS'http://www.menupages.com/'
p396
aS'http://www.menupages.com/restaurants/upper-west-side/all-neighborhoods/all-cuisines/'
p397
aS'http://www.menupages.com/restaurants/upper-east-side/all-neighborhoods/all-cuisines/'
p398
aS'http://www.menupages.com/restaurants/village-w-village/all-neighborhoods/all-cuisines/'
p399
aS'http://www.menupages.com/restaurants/brooklyn/all-neighborhoods/all-cuisines/'
p400
aS'http://newyorkmenus.com/'
p401
aS'http://www.menupages.com/'
p402
aS'http://nymag.com/menus/'
p403
aS'http://www.aquavit.org/restaurant/newyork/menus.asp'
p404
aS'http://www.aboutus.org/newyorkmenus.com'
p405
aS'http://www.killmeyers.com/'
p406
aS'http://www.killmeyers.com/category/specials/'
p407
aS'http://www.killmeyers.com/wp-content/uploads/2012/06/Dinner-Menu.pdf'
p408
aS'http://www.killmeyers.com/category/killmeyers-events/'
p409
aS'http://www.killmeyers.com/about-killmeyers/'
p410
aS'http://www.killmeyers.com/'
p411
aS'http://www.killmeyers.com/killmeyers-beer-list/'
p412
aS'http://www.killmeyers.com/about-killmeyers/'
p413
aS'http://www.killmeyers.com/wp-content/uploads/2012/06/Lunch-Menu.pdf'
p414
aS'http://www.killmeyers.com/wp-content/uploads/2012/06/Beer-Garden-Pig-Roast-BBQ.pdf'
p415
aS'http://www.aolstalker.com/s/www.nikeuseashoe.com/'
p416
aS'http://www.nike.com/us/en_us/c/better-world/stories/2013/05/reuse-a-shoe'
p417
aS'http://engrus.com/k/%D1%86%D1%86%D1%86%D1%8E%D1%82%D1%88%D0%BB%D1%83%D0%B3%D1%8B%D1%83%D1%84%D1%8B%D1%80%D1%89%D1%83%D1%8E%D1%81%D1%89%D1%8C'
p418
aS'http://198.170.83.99/AboutCET/PressReleases/CET-RAS-1stpress.doc'
p419
aS'http://westvirginia.sierraclub.org/newsletter/archives/2005/09/WV_SC_NL%2009-2005.pdf'
p420
aS'http://www.marriott.com/default.mi'
p421
aS'http://www.marriott.com/hotels/travel/ttnww-residence-inn-princeton-at-carnegie-center/'
p422
aS'http://www.marriott.com/search/default.mi'
p423
aS'http://www.marriott.com/careers/default.mi?stop_mobi=yes'
p424
aS'http://www.marriott.com/hotels/travel/phldt-philadelphia-marriott-downtown/'
p425
as.