(dp1
I0
(lp2
S'http://tsite.jp'
p3
aS'http://wav.tv'
p4
aS'http://bp.blogspot.com'
p5
aS'http://kotobank.jp'
p6
aS'http://ameba.jp'
p7
aS'http://a-q-f.com'
p8
aS'http://doorblog.jp'
p9
aS'http://appgame.com'
p10
aS'http://xvideos-field.com'
p11
aS'http://wordpress.com'
p12
aS'http://homes.co.jp'
p13
aS'http://po-kaki-to.com'
p14
aS'http://gizmodo.jp'
p15
aS'http://wix.com'
p16
aS'http://pinterest.com'
p17
aS'http://tudou.com'
p18
aS'http://uploaded.net'
p19
aS'http://apple.com'
p20
aS'http://teacup.com'
p21
aS'http://flickr.com'
p22
aS'http://qq.com'
p23
aS'http://elog-ch.com'
p24
aS'http://smbc.co.jp'
p25
aS'http://prcm.jp'
p26
aS'http://qoo10.jp'
p27
aS'http://goo-net.com'
p28
aS'http://lohaco.jp'
p29
aS'http://gamefactory.jp'
p30
aS'http://seesaawiki.jp'
p31
aS'http://allabout.co.jp'
p32
aS'http://iza.ne.jp'
p33
aS'http://response.jp'
p34
aS'http://indeed.com'
p35
aS'http://goo.ne.jp'
p36
aS'http://fujitv.co.jp'
p37
aS'http://livedoor.biz'
p38
aS'http://himasoku.com'
p39
aS'http://daily.co.jp'
p40
aS'http://jal.co.jp'
p41
aS'http://vector.co.jp'
p42
aS'http://cybozulive.com'
p43
aS'http://redtube.com'
p44
aS'http://pixiv.net'
p45
aS'http://kakaku.com'
p46
aS'http://imdb.com'
p47
aS'http://e-words.jp'
p48
aS'http://toyokeizai.net'
p49
aS'http://instagram.com'
p50
aS'http://mainichi.jp'
p51
aS'http://tokyo-porn-tube.com'
p52
aS'http://akb48matomemory.com'
p53
aS'http://dlsite.com'
p54
aS'http://searchina.net'
p55
aS'http://suzukikenichi.com'
p56
aS'http://shopbop.com'
p57
aS'http://main.jp'
p58
aS'http://with2.net'
p59
aS'http://goodgamestudios.com'
p60
aS'http://mozilla.org'
p61
aS'http://groupon.jp'
p62
aS'http://askul.co.jp'
p63
aS'http://sponichi.co.jp'
p64
aS'http://dropbox.com'
p65
aS'http://ldblog.jp'
p66
aS'http://impressrd.jp'
p67
aS'http://macromill.com'
p68
aS'http://cnn.com'
p69
aS'http://carview.co.jp'
p70
aS'http://infotop.jp'
p71
aS'http://dmm.co.jp'
p72
aS'http://ntv.co.jp'
p73
aS'http://riverisland.com'
p74
aS'http://ustream.tv'
p75
aS'http://alfalfalfa.com'
p76
aS'http://soso.com'
p77
aS'http://tube8.com'
p78
aS'http://minnano-av.com'
p79
aS'http://yahoo-mbga.jp'
p80
aS'http://sourceforge.jp'
p81
aS'http://antenam.info'
p82
aS'http://discas.net'
p83
aS'http://sagawa-exp.co.jp'
p84
aS'http://xsrv.jp'
p85
aS'http://nordstrom.com'
p86
aS'http://2dbook.com'
p87
aS'http://lenovo.com'
p88
aS'http://saisoncard.co.jp'
p89
aS'http://netmile.co.jp'
p90
aS'http://google.co.jp'
p91
aS'http://hmv.co.jp'
p92
aS'http://ti-da.net'
p93
aS'http://tripadvisor.jp'
p94
aS'http://imobile.com.cn'
p95
aS'http://sblo.jp'
p96
aS'http://mynavi.jp'
p97
aS'http://takuhai.jp'
p98
aS'http://qinbei.com'
p99
aS'http://diamond.jp'
p100
aS'http://ocn.ne.jp'
p101
aS'http://sub.jp'
p102
aS'http://makeshop.jp'
p103
aS'http://liginc.co.jp'
p104
aS'http://toyota.jp'
p105
aS'http://mixi.jp'
p106
aS'http://rakuten-bank.co.jp'
p107
aS'http://mbok.jp'
p108
aS'http://jpc.com'
p109
aS'http://sina.com.cn'
p110
aS'http://twipple.jp'
p111
aS'http://blogcms.jp'
p112
aS'http://shopstyle.com'
p113
aS'http://4gamer.net'
p114
aS'http://rakuten.com'
p115
aS'http://bakufu.jp'
p116
aS'http://value-domain.com'
p117
aS'http://msn.com'
p118
aS'http://nhk.or.jp'
p119
aS'http://wikipedia.org'
p120
aS'http://suumo.jp'
p121
aS'http://2ch-c.net'
p122
aS'http://nissen.co.jp'
p123
aS'http://leo-net.jp'
p124
aS'http://panasonic.jp'
p125
aS'http://b9dm.com'
p126
aS'http://hateblo.jp'
p127
aS'http://aucfan.com'
p128
aS'http://its-mo.com'
p129
aS'http://blogos.com'
p130
aS'http://eroantenna.com'
p131
aS'http://say-move.org'
p132
aS'http://techcrunch.com'
p133
aS'http://mizuhobank.co.jp'
p134
aS'http://blogspot.jp'
p135
aS'http://pia.jp'
p136
aS'http://esuteru.com'
p137
aS'http://valuecommerce.com'
p138
aS'http://tokyodisneyresort.jp'
p139
aS'http://girlschannel.net'
p140
aS'http://pideo.net'
p141
aS'http://matchesfashion.com'
p142
aS'http://hangame.co.jp'
p143
aS'http://mhlw.go.jp'
p144
aS'http://sourceforge.net'
p145
aS'http://ascii.jp'
p146
aS'http://microsoft.com'
p147
aS'http://webry.info'
p148
aS'http://wsj.com'
p149
aS'http://tv-tokyo.co.jp'
p150
aS'http://dmm.com'
p151
aS'http://ameblo.jp'
p152
aS'http://japanpost.jp'
p153
aS'http://cityheaven.net'
p154
aS'http://carsensor.net'
p155
aS'http://siteadvisor.com'
p156
aS'http://modcloth.com'
p157
aS'http://pornhub.com'
p158
aS'http://pex.jp'
p159
aS'http://geocities.co.jp'
p160
aS'http://oricon.co.jp'
p161
aS'http://archive.org'
p162
aS'http://hardsextube.com'
p163
aS'http://radiko.jp'
p164
aS'http://itmedia.co.jp'
p165
aS'http://nikkan-gendai.com'
p166
aS'http://excite.co.jp'
p167
aS'http://himado.in'
p168
aS'http://jorudan.co.jp'
p169
aS'http://fc2.com'
p170
aS'http://geocities.jp'
p171
aS'http://nicozon.net'
p172
aS'http://kyodo-d.jp'
p173
aS'http://enet.com.cn'
p174
aS'http://xvideo-jp.com'
p175
aS'http://sanspo.com'
p176
aS'http://ponparemall.com'
p177
aS'http://onamae.com'
p178
aS'http://clkmon.com'
p179
aS'http://thisav.com'
p180
aS'http://research-panel.jp'
p181
aS'http://ebates.com'
p182
aS'http://hatelabo.jp'
p183
aS'http://xinhuanet.com'
p184
aS'http://papy.co.jp'
p185
aS'http://asos.com'
p186
aS'http://news-postseven.com'
p187
aS'http://rednet.cn'
p188
aS'http://nukistream.com'
p189
aS'http://nttdocomo.co.jp'
p190
aS'http://vimeo.com'
p191
aS'http://facebook.com'
p192
aS'http://gmail.com'
p193
aS'http://thepage.jp'
p194
aS'http://aliexpress.com'
p195
aS'http://tokyo-tube.com'
p196
aS'http://taobao.com'
p197
aS'http://eelly.com'
p198
aS'http://morodora.com'
p199
aS'http://heteml.jp'
p200
aS'http://immoral.jp'
p201
aS'http://tokonatsu-sns.com'
p202
asI1
(lp203
S'http://yahoo.co.jp'
p204
ag178
aS'http://people.com.cn'
p205
aS'http://shitaraba.com'
p206
ag61
ag127
aS'http://ponpare.jp'
p207
aS'http://imgur.com'
p208
aS'http://shopserve.jp'
p209
aS'http://fifa.com'
p210
ag101
aS'http://qhit.net'
p211
aS'http://jobtalk.jp'
p212
aS'http://lolipop.jp'
p213
aS'http://weibo.com'
p214
ag196
ag151
ag36
aS'http://ismedia.jp'
p215
aS'http://lyst.com'
p216
aS'http://goal.com'
p217
aS'http://caribbeancom.com'
p218
ag191
ag184
ag19
aS'http://uol.com.br'
p219
ag9
ag130
ag111
ag172
ag55
aS'http://biglobe.ne.jp'
p220
aS'http://punyu.com'
p221
aS'http://asahi.com'
p222
ag190
ag7
aS'http://nikkei.co.jp'
p223
aS'http://ninja.co.jp'
p224
aS'http://anyang.gov.cn'
p225
aS'http://fc2web.com'
p226
ag201
aS'http://dion.ne.jp'
p227
aS'http://xvideos.com'
p228
aS'http://become.co.jp'
p229
aS'http://twitter.com'
p230
ag52
aS'http://suruga-ya.jp'
p231
ag4
ag33
ag156
ag137
aS'http://sbisec.co.jp'
p232
ag167
aS'http://slideshare.net'
p233
aS'http://google.com.hk'
p234
ag116
aS'http://trovigo.com'
p235
aS'http://vippers.jp'
p236
aS'http://ekitan.com'
p237
aS'http://valuecommerce.ne.jp'
p238
aS'http://yomiuri.co.jp'
p239
aS'http://japannetbank.co.jp'
p240
ag169
aS'http://rakuten.ne.jp'
p241
ag5
ag182
aS'http://appbank.net'
p242
ag171
ag153
aS'http://biz-journal.jp'
p243
aS'http://ecnavi.jp'
p244
aS'http://jreast.co.jp'
p245
ag170
ag106
aS'http://zakzak.co.jp'
p246
aS'http://plala.or.jp'
p247
ag140
ag70
aS'http://sogou.com'
p248
aS'http://syosetu.org'
p249
ag192
ag195
ag84
aS'http://soccer-king.jp'
p250
aS'http://xrea.com'
p251
ag95
ag65
ag141
ag119
aS'http://erotube.org'
p252
ag175
ag134
ag37
aS'http://3158.cn'
p253
aS'http://cookpad.com'
p254
aS'http://sokmil.com'
p255
aS'http://skype.com'
p256
aS'http://amazon.com'
p257
ag128
aS'http://anitube.se'
p258
aS'http://tv-asahi.co.jp'
p259
ag64
aS'http://rakuten.co.jp'
p260
aS'http://conduit.com'
p261
aS'http://2chblog.jp'
p262
aS'http://atmarkit.co.jp'
p263
aS'http://gree.jp'
p264
aS'http://duga.jp'
p265
aS'http://yahoo-help.jp'
p266
ag107
aS'http://retailmenot.com'
p267
aS'http://seesaa.net'
p268
aS'http://markezine.jp'
p269
ag197
aS'http://anime44.com'
p270
aS'http://seesaa.jp'
p271
aS'http://hao123.com'
p272
aS'http://exblog.jp'
p273
ag63
aS'http://nicovideo.jp'
p274
ag185
ag24
aS'http://amazon.co.uk'
p275
aS'http://a8.net'
p276
aS'http://tabelog.com'
p277
aS'http://accesstrade.ne.jp'
p278
aS'http://popads.net'
p279
ag194
ag114
aS'http://evernote.com'
p280
aS'http://googleusercontent.com'
p281
ag13
aS'http://ana.co.jp'
p282
aS'http://m2newmedia.com'
p283
aS'http://accesstrade.net'
p284
aS'http://athome.co.jp'
p285
ag82
ag146
aS'http://shufoo.net'
p286
aS'http://matomeantena.com'
p287
aS'http://rocketnews24.com'
p288
ag50
ag44
ag10
aS'http://bakusai.com'
p289
ag143
aS'http://myus.com'
p290
aS'http://nosub.tv'
p291
aS'http://ashleyrnadison.com'
p292
ag76
ag142
aS'http://expedia.co.jp'
p293
ag166
aS'http://gigazine.net'
p294
aS'http://mery.jp'
p295
aS'http://impress.co.jp'
p296
aS'http://doublepimp.com'
p297
ag8
ag188
aS'http://lifehacker.jp'
p298
aS'http://weathernews.jp'
p299
ag89
ag135
aS'http://bellemaison.jp'
p300
aS'http://jtb.co.jp'
p301
ag152
aS'http://ebay.com'
p302
ag67
ag46
aS'http://amazon.co.jp'
p303
ag173
aS'http://cocolog-nifty.com'
p304
aS'http://fmworld.net'
p305
ag47
aS'http://firestorage.jp'
p306
aS'http://kuronekoyamato.co.jp'
p307
aS'http://tbs.co.jp'
p308
aS'http://netsea.jp'
p309
aS'http://okwave.jp'
p310
ag187
aS'http://anipo.jp'
p311
aS'http://kddi.com'
p312
aS'http://mapion.co.jp'
p313
aS'http://jugem.jp'
p314
aS'http://dtiserv2.com'
p315
aS'http://hotpepper.jp'
p316
ag160
ag20
aS'http://iqoo.me'
p317
ag199
ag12
aS'http://dailymotion.com'
p318
aS'http://gnavi.co.jp'
p319
aS'http://rakuten-card.co.jp'
p320
aS'http://line.me'
p321
aS'http://yaplog.jp'
p322
aS'http://jpn.org'
p323
ag112
ag38
aS'http://gendama.jp'
p324
asI2
(lp325
g196
ag132
aS'http://asg.to'
p326
aS'http://toukoucity.to'
p327
ag59
ag112
ag306
ag70
aS'http://chatwork.com'
p328
ag90
aS'http://bunshun.jp'
p329
ag182
ag41
ag40
aS'http://t.co'
p330
ag321
ag181
aS'http://blogimg.jp'
p331
aS'http://home.ne.jp'
p332
ag125
aS'http://blogspot.com'
p333
ag276
ag21
ag271
ag305
ag87
aS'http://logsoku.com'
p334
aS'http://nifty.com'
p335
ag308
ag223
ag102
aS'http://4travel.jp'
p336
ag39
ag92
ag16
ag316
ag312
aS'http://youtube.com'
p337
aS'http://shopstyle.co.uk'
p338
ag38
aS'http://alibaba.com'
p339
ag6
aS'http://tenki.jp'
p340
ag186
ag240
aS'http://rikunabi.com'
p341
aS'http://bing.com'
p342
aS'http://criteo.com'
p343
ag255
ag55
aS'http://weblio.jp'
p344
ag250
aS'http://xvideos-field5.com'
p345
aS'http://shop-pro.jp'
p346
ag13
ag150
aS'http://blomaga.jp'
p347
aS'http://natalie.mu'
p348
aS'http://cybozu.com'
p349
ag245
ag57
aS'http://rakuten-sec.co.jp'
p350
aS'http://yodobashi.com'
p351
ag207
ag131
ag99
ag76
aS'http://infoseek.co.jp'
p352
ag205
ag224
ag154
aS'http://reddit.com'
p353
ag118
aS'http://i-mobile.co.jp'
p354
ag185
aS'http://sony.jp'
p355
aS'http://adcash.com'
p356
aS'http://togetter.com'
p357
ag114
ag18
ag234
ag270
aS'http://fh21.com.cn'
p358
ag304
aS'http://en-japan.com'
p359
ag7
aS'http://dell.com'
p360
aS'http://goo.gl'
p361
ag95
ag252
ag27
aS'http://cosme.net'
p362
ag119
ag124
ag94
aS'http://salesforce.com'
p363
ag192
ag279
ag151
ag142
ag160
aS'http://kickass.to'
p364
ag222
aS'http://atwiki.jp'
p365
ag104
ag284
ag261
aS'http://google.com.br'
p366
ag23
ag324
ag78
ag69
aS'http://nyaa.se'
p367
ag190
ag88
ag101
ag273
ag290
ag236
ag202
ag314
ag227
ag63
ag298
ag294
ag289
ag172
ag93
aS'http://dopr.net'
p368
ag144
aS'http://php.net'
p369
aS'http://townwork.net'
p370
ag139
ag266
aS'http://read2ch.net'
p371
aS'http://shinobi.jp'
p372
ag176
ag128
ag9
ag84
aS'http://doda.jp'
p373
ag295
aS'http://bbspink.com'
p374
ag195
ag256
aS'http://hochi.co.jp'
p375
ag109
aS'http://zozo.jp'
p376
ag157
ag317
ag291
ag122
aS'http://polyvore.com'
p377
ag199
aS'http://jp-xvideos-av.com'
p378
ag257
ag310
ag287
aS'http://netbk.co.jp'
p379
aS'http://hatena.ne.jp'
p380
ag286
ag159
ag178
ag215
ag164
ag264
ag49
aS'http://reuters.com'
p381
ag313
aS'http://yoox.com'
p382
ag269
aS'http://ero-video.net'
p383
ag74
ag320
aS'http://mlit.go.jp'
p384
ag214
ag216
aS'http://suntory.co.jp'
p385
aS'http://xhamster.com'
p386
aS'http://yahoo.com'
p387
ag323
aS'http://qiita.com'
p388
aS'http://tumblr.com'
p389
ag89
aS'http://golfdigest.co.jp'
p390
aS'http://apserver.net'
p391
ag246
ag26
ag98
aS'http://google.com'
p392
ag322
ag220
aS'http://outbrain.com'
p393
ag134
ag137
aS'http://langlaoda.com'
p394
aS'http://saksfifthavenue.com'
p395
ag249
aS'http://loading-delivery1.com'
p396
ag61
asI3
(lp397
g258
aS'http://wikiwiki.jp'
p398
ag277
ag383
aS'http://buyma.com'
p399
ag262
ag313
ag205
aS'http://honda.co.jp'
p400
ag326
aS'http://hatenablog.com'
p401
ag328
aS'http://mytheresa.com'
p402
ag367
ag92
aS'http://baidu.com'
p403
ag271
ag236
ag6
aS'http://zappos.com'
p404
ag138
ag95
ag178
aS'http://biccamera.com'
p405
ag388
ag329
ag373
ag208
ag344
ag149
ag338
aS'http://navitime.co.jp'
p406
ag384
ag311
ag199
ag392
ag161
aS'http://tmall.com'
p407
ag110
aS'http://linkedin.com'
p408
aS'http://gucheng.com'
p409
ag242
ag347
ag172
ag152
ag19
ag175
aS'http://huffingtonpost.jp'
p410
ag210
ag96
aS'http://sakura.ne.jp'
p411
ag280
ag204
ag303
ag396
ag63
ag312
ag156
ag89
aS'http://eonet.jp'
p412
aS'http://moudamepo.com'
p413
ag38
ag73
ag386
ag24
ag168
ag70
ag173
ag109
aS'http://livedoor.com'
p414
ag133
aS'http://afpbb.com'
p415
ag260
aS'http://47news.jp'
p416
ag261
ag188
ag192
ag223
ag232
aS'http://getnews.jp'
p417
ag297
ag197
ag202
aS'http://jimdo.com'
p418
ag382
ag160
ag176
ag247
ag283
aS'http://nanapi.jp'
p419
ag361
ag79
ag207
aS'http://ask.com'
p420
ag282
ag256
aS'http://news-us.jp'
p421
aS'http://famitsu.com'
p422
ag34
ag186
ag119
ag90
ag180
ag284
ag254
aS'http://naver.jp'
p423
ag250
aS'http://idol-blog.com'
p424
aS'http://amazonaws.com'
p425
ag20
ag385
aS'http://benesse.ne.jp'
p426
ag366
ag121
aS'http://nikkei.com'
p427
aS'http://alc.co.jp'
p428
ag275
ag332
ag65
ag291
ag105
aS'http://jma.go.jp'
p429
ag183
ag5
ag343
ag182
ag100
ag320
ag391
ag107
aS'http://ocnk.net'
p430
ag295
aS'http://adobe.com'
p431
ag273
ag56
aS'http://lancers.jp'
p432
ag206
ag12
ag351
ag216
ag61
ag218
ag298
ag162
ag116
aS'http://j-cast.com'
p433
ag368
ag354
ag286
ag365
aS'http://so-net.ne.jp'
p434
ag153
ag359
ag93
ag118
ag17
ag290
ag82
ag299
ag350
ag393
aS'http://bbc.com'
p435
aS'http://nikkeibp.co.jp'
p436
ag293
ag371
ag44
ag126
ag51
ag98
ag370
aS'http://pandora.tv'
p437
ag251
ag28
aS'http://neimanmarcus.com'
p438
ag376
ag49
aS'http://stackoverflow.com'
p439
ag274
aS'http://zombie.jp'
p440
ag267
ag115
ag55
aS'http://p-world.co.jp'
p441
ag200
ag77
ag164
ag86
aS'http://7netshopping.jp'
p442
aS'http://revolveclothing.com'
p443
ag288
ag108
ag140
ag194
aS'http://ero-an.com'
p444
ag272
ag389
ag125
ag387
ag145
aS'http://nikkansports.com'
p445
asI4
(lp446
S'http://coocan.jp'
p447
ag355
ag34
ag52
ag234
ag137
aS'http://gekisaka.jp'
p448
ag356
ag24
ag236
ag117
ag311
aS'http://inbox.com'
p449
ag50
ag408
ag184
ag422
ag64
ag232
ag147
ag36
ag407
ag94
ag138
ag353
ag185
ag145
ag69
ag162
ag344
ag174
ag193
ag285
ag128
aS'http://smbc-card.com'
p450
ag56
ag292
ag146
aS'http://spnavi2014.com'
p451
ag272
ag110
ag439
aS'http://avjavjav.com'
p452
ag47
ag65
ag78
ag385
ag433
ag386
ag158
ag233
ag260
ag384
ag198
ag220
ag227
ag428
ag368
ag165
aS'http://dtiblog.com'
p453
ag345
aS'http://globo.com'
p454
ag312
aS'http://farfetch.com'
p455
aS'http://163.com'
p456
aS'http://feedly.com'
p457
ag305
ag431
ag49
ag293
ag7
ag327
ag75
ag28
ag247
ag46
ag160
ag15
ag434
aS'http://doubleclick.com'
p458
ag143
ag371
ag83
ag31
ag245
ag63
aS'http://inazumanews2.com'
p459
ag96
ag17
ag372
ag441
ag278
aS'http://walkerplus.com'
p460
ag166
ag415
ag39
ag181
ag282
ag289
ag249
ag339
ag401
ag240
aS'http://eiga.com'
p461
ag315
ag413
ag140
ag364
aS'http://hellowork.go.jp'
p462
ag402
ag420
ag437
ag37
ag444
ag337
ag26
aS'http://uniqlo.com'
p463
ag205
ag139
ag297
aS'http://twitcasting.tv'
p464
aS'http://paypal.com'
p465
ag317
ag187
ag126
aS'http://rui.jp'
p466
ag416
ag123
ag303
ag119
ag357
ag276
ag277
ag202
ag168
ag204
ag331
aS'http://his-j.com'
p467
ag206
ag183
ag254
ag379
ag27
ag100
ag394
ag114
ag405
ag30
ag373
ag132
ag213
ag92
ag421
ag411
ag430
aS'http://e-hentai.org'
p468
ag380
aS'http://tokyo-sports.co.jp'
p469
ag347
ag176
ag269
ag152
ag340
ag425
ag88
ag264
ag224
ag310
ag309
ag418
ag196
ag341
ag112
aS'http://jin115.com'
p470
ag102
ag122
ag115
ag442
ag95
ag350
ag281
ag210
ag118
ag82
aS'http://muji.net'
p471
aS'http://jra.go.jp'
p472
ag76
ag326
ag367
ag87
ag21
aS'http://nta.go.jp'
p473
ag89
aS'http://coreprice.com'
p474
aS'http://shueisha.co.jp'
p475
ag188
ag85
aS'http://jiji.com'
p476
ag358
ag275
asI5
(lp477
g183
ag257
ag233
ag90
ag59
ag296
ag360
ag275
ag99
ag89
ag223
ag390
aS'http://seocheki.net'
p478
ag436
ag364
ag243
ag119
ag7
ag144
ag227
ag21
ag448
ag415
ag17
ag219
ag67
ag8
ag388
ag87
aS'http://hamusoku.com'
p479
ag162
aS'http://mag2.com'
p480
ag23
ag475
ag187
ag198
ag311
ag303
ag433
ag100
ag406
ag55
ag86
ag381
ag282
ag131
ag10
ag213
ag83
ag326
ag192
ag288
ag85
ag235
ag164
ag36
ag467
ag205
ag408
ag377
ag133
ag180
ag147
ag268
ag340
ag424
ag333
aS'http://mufg.jp'
p481
ag41
ag170
ag320
ag302
aS'http://jalan.net'
p482
ag341
ag184
ag354
ag177
ag430
ag330
ag314
ag111
ag386
ag423
ag285
ag236
aS'http://jcb.co.jp'
p483
ag383
ag61
ag151
ag266
ag280
ag270
ag155
ag310
ag25
ag153
ag117
ag458
ag49
ag286
ag142
ag459
aS'http://coneco.net'
p484
ag271
ag97
aS'http://blog.jp'
p485
ag56
ag103
ag16
ag293
ag62
ag128
ag312
ag193
ag398
ag338
ag33
aS'http://ikyu.com'
p486
ag252
ag444
ag71
ag382
ag413
ag400
ag81
ag431
ag37
ag134
aS'http://systweak.com'
p487
ag212
ag414
ag355
ag210
ag31
ag370
ag75
ag332
ag14
aS'http://sohu.com'
p488
ag350
ag272
ag363
ag437
ag466
ag322
ag290
ag165
ag82
ag107
ag28
ag316
ag417
ag132
ag347
ag98
ag344
ag179
aS'http://j-sen.jp'
p489
ag476
ag77
ag32
ag349
ag422
ag251
ag222
ag238
ag253
ag44
ag412
ag368
ag346
ag137
ag125
ag327
ag460
ag190
ag156
ag450
ag465
ag353
ag228
ag244
ag432
ag348
ag39
ag91
ag442
ag457
ag211
ag264
ag407
ag76
ag260
ag113
ag380
ag425
ag318
ag439
ag182
ag297
asI6
(lp490
g132
ag13
ag281
ag352
ag58
ag459
ag266
ag376
ag161
aS'http://softbank.jp'
p491
ag344
ag31
ag205
ag19
ag408
ag118
ag389
ag322
ag261
ag35
aS'http://github.com'
p492
ag125
aS'http://blogmura.com'
p493
ag212
ag178
ag207
ag298
ag61
ag48
ag68
ag71
ag179
ag66
ag244
ag327
ag98
ag237
ag445
ag198
ag38
ag26
ag308
ag166
ag305
ag117
ag36
ag159
ag213
ag195
ag33
aS'http://engadget.com'
p494
ag164
ag382
ag268
ag345
ag126
ag15
ag447
ag290
ag255
ag60
ag75
ag270
ag466
ag165
ag11
aS'http://tokyo.jp'
p495
ag471
ag201
ag390
ag340
ag17
ag43
ag284
ag105
ag386
ag473
ag70
ag135
ag222
ag371
ag81
ag183
ag485
ag129
aS'http://twimg.com'
p496
ag150
ag114
ag418
ag154
ag420
ag210
ag468
ag73
ag277
ag64
ag367
ag188
ag206
ag321
ag304
ag180
ag329
ag333
ag10
ag156
ag148
ag49
ag79
ag396
ag225
ag192
ag104
ag5
ag379
ag425
ag204
aS'http://cnet.com'
p497
ag314
ag280
ag343
ag14
ag479
ag362
ag454
ag275
ag407
ag37
ag403
ag346
ag247
ag331
ag200
ag86
ag18
ag209
ag409
ag378
ag457
ag245
ag189
ag339
ag193
ag486
ag312
ag181
ag353
ag170
ag108
ag419
ag184
ag411
ag283
ag100
ag375
ag208
ag242
ag163
ag372
ag220
ag175
ag4
ag187
ag152
ag191
ag20
ag113
ag96
ag215
ag464
ag144
ag168
ag370
ag78
ag101
ag251
ag106
ag88
ag317
ag449
ag443
ag22
ag460
ag394
ag434
ag303
ag433
ag462
ag265
ag56
ag77
ag300
ag82
ag32
ag199
ag262
ag243
ag145
ag91
ag373
asI7
(lp498
g202
ag73
ag125
ag239
ag370
ag290
ag266
ag108
aS'http://bestadbid.com'
p499
ag346
ag453
ag186
ag55
ag424
ag95
ag36
ag204
ag356
ag210
ag219
ag400
ag114
ag91
ag178
ag43
ag137
ag134
ag274
ag376
ag472
ag249
ag413
ag167
ag198
ag252
ag276
ag304
ag34
ag90
ag172
ag267
ag99
ag65
ag318
ag328
ag221
ag445
ag457
ag3
ag437
ag488
ag387
ag193
ag71
ag236
ag207
ag425
ag292
ag8
ag322
ag106
ag436
ag492
ag181
ag48
ag473
aS'http://wordpress.org'
p500
ag270
ag81
ag23
ag451
ag127
ag93
ag17
ag467
ag159
ag15
ag335
ag243
ag262
ag197
ag227
ag422
aS'http://monotaro.com'
p501
ag331
ag435
ag169
ag491
ag83
ag35
ag9
ag238
ag103
ag411
ag431
ag213
ag27
ag333
ag409
ag458
ag334
ag102
ag433
ag154
ag348
ag288
ag224
ag40
ag110
ag64
ag57
ag440
ag142
ag417
ag56
ag208
ag495
ag59
ag116
ag191
aS'http://hulu.jp'
p502
ag392
ag332
ag19
aS'http://live.com'
p503
ag418
ag147
ag78
ag427
ag450
ag163
ag100
ag7
ag179
ag157
ag234
ag355
ag144
ag303
ag212
ag32
ag359
ag493
ag173
ag216
ag462
ag401
ag463
ag314
ag31
ag363
ag54
ag354
ag133
ag268
ag151
ag76
ag115
ag126
ag209
ag264
ag487
ag307
ag255
ag300
ag109
ag247
ag380
ag242
ag92
ag117
ag136
ag166
ag58
ag339
ag329
ag404
ag481
ag378
ag41
ag231
ag42
ag360
ag398
ag310
ag403
ag205
ag301
ag447
ag349
ag192
ag468
ag293
ag459
ag483
ag383
ag70
ag365
ag441
ag194
asI8
(lp504
g212
ag355
ag202
ag353
ag124
ag317
ag75
ag367
ag114
ag4
ag345
ag70
ag144
ag382
ag17
ag475
ag177
ag130
ag160
ag392
ag33
ag180
ag8
ag16
ag452
ag375
ag460
ag455
ag443
ag237
ag206
ag69
ag27
ag289
ag486
ag148
ag21
ag298
ag270
ag185
ag478
ag285
ag62
ag465
ag343
ag329
ag474
ag95
ag290
ag227
ag161
ag319
ag10
ag458
ag168
ag369
ag485
ag132
ag500
ag193
ag461
ag103
ag415
ag207
ag462
ag428
ag272
ag41
ag127
ag86
ag301
ag332
ag200
ag284
ag128
ag479
ag387
ag6
ag277
ag359
ag440
ag292
ag174
ag214
ag482
ag324
ag116
ag77
ag225
ag418
ag453
ag481
ag222
ag411
ag204
ag416
ag404
ag445
ag57
ag158
ag255
ag395
ag134
ag32
ag39
ag54
ag441
ag330
ag320
ag81
ag163
ag183
ag9
ag248
ag305
aS'http://nomura.co.jp'
p505
ag372
ag97
ag14
ag383
ag162
ag113
ag145
ag406
ag61
ag58
ag152
ag96
ag409
ag309
ag79
ag99
ag274
ag220
ag259
ag235
ag471
ag179
ag184
ag120
ag105
ag363
ag215
ag449
ag493
ag262
ag421
ag24
aS'http://2ch.sc'
p506
ag380
ag209
ag427
ag341
ag430
ag102
ag173
ag138
ag480
ag12
ag157
ag5
ag126
ag417
ag178
ag386
ag252
ag92
ag196
ag122
ag131
ag125
ag112
ag176
ag366
ag370
ag84
aS'http://2ch.net'
p507
ag247
ag288
ag432
ag287
ag316
ag166
ag302
ag52
ag371
ag28
ag238
ag34
ag42
ag198
ag426
ag390
ag304
aS'http://googleadservices.com'
p508
ag221
ag23
ag374
ag473
ag216
asI9
(lp509
g42
ag309
ag205
ag267
ag83
ag448
ag241
ag256
ag368
ag51
ag34
ag298
ag475
ag263
ag293
ag422
ag151
ag171
ag190
ag87
ag460
ag27
ag304
ag166
ag353
ag351
ag245
ag465
ag506
ag22
ag162
ag163
ag265
ag129
ag316
ag222
ag280
ag80
ag5
ag21
ag63
ag345
ag31
ag367
ag294
ag118
ag67
ag28
ag401
ag279
ag99
ag122
ag19
ag462
ag230
ag221
ag442
ag461
ag347
ag389
ag507
ag109
ag24
ag210
ag77
ag102
ag32
ag12
ag331
ag328
ag131
ag46
ag206
ag305
ag59
ag234
ag466
ag427
ag338
ag311
ag249
ag248
ag185
ag189
ag484
ag349
ag273
ag274
ag37
ag400
ag469
ag411
ag435
ag65
ag201
ag437
ag292
ag496
ag90
ag14
ag443
ag412
ag188
ag405
ag18
ag297
ag169
ag209
ag146
ag276
ag71
ag348
ag88
ag352
ag144
ag476
ag474
ag239
ag497
ag418
ag502
ag464
ag295
ag130
ag48
ag194
ag50
ag381
ag403
ag371
ag72
ag491
ag91
ag140
ag56
ag164
ag482
ag100
ag493
ag145
ag179
ag436
ag355
ag391
ag413
ag150
ag238
ag237
ag363
ag354
ag29
ag472
ag124
ag288
ag410
ag489
ag98
ag319
ag229
ag6
ag271
ag300
ag350
ag380
ag313
aS'http://labaq.com'
p510
ag385
ag53
ag326
ag390
ag327
ag343
ag94
ag289
ag154
ag458
ag290
ag451
ag478
ag242
ag342
ag369
ag261
ag495
ag296
ag225
ag366
ag128
ag184
ag399
ag481
ag204
ag199
ag376
ag308
ag160
ag115
ag365
ag428
ag26
asI10
(lp511
g308
ag70
ag337
ag20
ag353
ag46
ag42
ag440
ag73
aS'http://msn.co.jp'
p512
ag441
ag307
ag101
ag279
ag464
ag402
ag303
ag60
ag388
ag487
ag474
ag319
ag57
ag150
ag330
ag226
ag239
ag74
ag93
ag471
ag301
ag162
ag344
ag505
ag310
ag175
ag278
ag362
ag347
ag13
ag336
ag340
ag494
ag66
ag453
ag116
ag156
ag385
ag30
ag221
ag346
ag109
ag470
ag348
ag277
ag403
ag451
ag190
ag442
ag48
ag146
ag133
ag296
ag364
ag500
ag462
ag35
ag193
ag234
ag98
ag157
ag249
ag457
ag112
ag503
ag326
ag247
ag377
ag302
ag314
ag479
ag493
ag358
ag145
ag400
ag304
ag147
ag381
ag299
ag3
ag246
ag43
ag465
ag361
ag298
ag55
ag379
ag430
ag67
ag291
ag178
ag36
ag445
ag222
ag415
ag121
ag84
ag62
ag349
ag89
ag339
ag360
ag378
ag50
ag218
ag497
ag165
ag345
ag202
ag114
ag332
ag481
ag244
ag76
ag439
ag287
ag87
ag484
ag257
ag262
ag53
ag366
ag374
ag151
ag383
ag335
ag266
ag460
ag216
ag243
ag82
ag365
ag351
ag394
ag200
ag159
ag180
ag461
ag422
ag140
ag173
ag406
ag502
ag174
ag293
ag138
ag134
ag467
ag192
ag423
ag255
ag281
ag323
ag206
ag324
ag56
ag405
ag136
ag427
ag413
ag25
ag420
ag29
ag270
ag38
ag435
ag152
ag425
ag274
ag282
ag123
ag492
ag34
ag33
ag283
ag305
ag329
ag241
ag444
ag456
ag242
ag214
ag248
ag24
ag219
ag455
ag252
ag117
ag359
ag389
asI11
(lp513
g368
ag507
ag172
ag351
ag15
ag113
ag31
ag455
ag438
ag324
ag110
ag164
ag208
ag34
ag347
ag231
ag129
ag493
ag7
ag6
ag179
ag313
ag175
ag459
ag115
ag161
ag291
ag178
ag271
ag483
ag410
ag297
ag353
ag262
ag143
ag69
ag17
ag20
ag79
ag87
ag450
ag284
ag382
ag21
ag92
ag215
ag304
ag53
ag270
ag489
ag467
ag501
ag123
ag384
ag25
ag90
ag48
ag374
ag380
ag308
ag319
ag206
ag452
ag478
ag432
ag116
ag333
ag108
ag253
ag112
ag323
ag128
ag252
ag72
ag462
ag259
ag429
ag211
ag210
ag216
ag299
ag500
ag377
ag39
ag30
ag222
ag236
ag326
ag379
ag327
ag298
ag120
ag290
ag492
ag464
ag125
ag9
ag212
ag189
ag155
ag62
ag234
ag246
ag373
ag263
ag14
ag443
ag405
ag75
ag119
ag205
ag494
ag506
ag427
ag139
ag150
ag399
ag43
ag484
ag133
ag249
ag387
ag395
ag350
ag89
ag261
ag224
ag40
ag56
ag80
ag473
ag240
ag29
ag18
ag361
ag487
ag130
ag10
ag55
ag149
ag269
ag247
ag266
ag286
ag151
ag312
ag488
ag243
ag19
ag166
ag194
ag388
ag260
ag366
ag396
ag248
ag226
ag342
ag279
ag277
ag330
ag400
ag435
ag345
ag499
ag8
ag456
ag423
ag77
ag482
ag27
ag177
ag431
ag301
ag280
ag466
ag370
ag328
ag390
ag197
ag167
ag132
ag338
ag265
ag44
ag337
ag88
ag227
ag407
ag32
ag502
ag445
ag148
ag200
ag356
ag365
ag409
ag422
ag476
ag202
asI12
(lp514
g396
ag479
ag55
ag113
ag91
ag131
ag223
ag36
ag317
ag427
ag489
ag97
ag324
ag118
ag73
ag292
ag75
ag491
ag384
ag348
ag59
ag109
ag383
ag64
ag255
ag21
ag353
ag147
ag437
ag456
ag365
ag501
ag240
ag301
ag484
ag194
ag236
ag190
ag53
ag78
ag387
ag23
ag235
ag124
ag102
ag347
ag418
ag314
ag486
ag111
ag50
ag295
ag358
ag388
ag157
ag436
ag273
ag56
ag391
ag202
ag360
ag374
ag409
ag271
ag188
ag159
ag443
ag432
ag328
ag206
ag447
ag231
ag146
ag293
ag44
ag499
ag453
ag287
ag359
ag81
ag406
ag276
ag425
ag459
ag493
ag135
ag306
ag370
ag386
ag373
ag502
ag368
ag210
ag233
ag30
ag87
ag487
ag104
ag468
ag57
ag415
ag205
ag480
ag366
ag451
ag232
ag77
ag496
ag426
ag121
ag362
ag349
ag160
ag430
ag72
ag3
ag407
ag71
ag80
ag120
ag204
ag9
ag250
ag196
ag474
ag454
ag378
ag251
ag438
ag182
ag148
ag183
ag175
ag95
ag243
ag290
ag274
ag69
ag283
ag330
ag269
ag12
ag455
ag216
ag207
ag332
ag423
ag114
ag336
ag294
ag61
ag449
ag441
ag355
ag19
ag258
ag154
ag112
ag494
ag167
ag33
ag239
ag319
ag318
ag475
ag463
ag171
ag270
ag40
ag105
ag289
ag48
ag450
ag333
ag43
ag506
ag180
ag481
ag285
ag401
ag510
ag257
ag242
ag47
ag193
ag371
ag296
ag254
ag130
ag70
ag323
ag262
ag101
ag132
ag214
ag414
ag265
ag38
ag309
ag93
asI13
(lp515
g114
ag278
ag239
ag357
ag21
ag274
ag465
ag86
ag245
ag494
ag457
ag351
ag323
ag387
ag428
ag322
ag54
ag237
ag127
ag309
ag437
ag216
ag94
ag242
ag58
ag453
ag168
ag339
ag226
ag286
ag441
ag59
ag331
ag307
ag202
ag343
ag47
ag289
ag74
ag116
ag508
ag401
ag37
ag475
ag91
ag26
ag110
ag468
ag55
ag179
ag67
ag392
ag78
ag435
ag413
ag372
ag60
ag359
ag66
ag282
ag389
ag476
ag89
ag49
ag361
ag353
ag123
ag229
ag154
ag230
ag434
ag64
ag463
ag507
ag300
ag43
ag326
ag156
ag209
ag181
ag248
ag301
ag266
ag223
ag8
ag198
ag220
ag212
ag259
ag393
ag10
ag130
ag419
ag194
ag16
ag500
ag292
ag344
ag204
ag297
ag427
ag166
ag186
ag27
ag140
ag61
ag17
ag375
ag273
ag30
ag356
ag182
ag268
ag447
ag298
ag492
ag42
ag308
ag349
ag271
ag338
ag208
ag158
ag33
ag382
ag444
ag436
ag313
ag449
ag368
ag109
ag57
ag143
ag380
ag394
ag416
ag71
ag455
ag88
ag281
ag11
ag173
ag252
ag267
ag7
ag489
ag418
ag39
ag373
ag420
ag283
ag376
ag464
ag294
ag176
ag195
ag414
ag386
ag277
ag406
ag142
ag391
ag148
ag102
ag303
ag438
ag318
ag117
ag314
ag460
ag371
ag113
ag161
ag430
ag290
ag272
ag395
ag305
ag369
ag12
ag378
ag152
ag217
ag472
ag96
ag83
ag76
ag302
ag199
ag68
ag105
ag275
ag227
ag84
ag228
ag327
ag28
ag454
ag215
ag108
asI14
(lp516
g285
ag102
ag37
ag258
ag228
ag243
ag206
ag361
ag205
ag434
ag483
ag273
ag39
ag438
ag169
ag191
ag227
ag468
ag420
ag253
ag143
ag322
ag177
ag176
ag367
ag198
ag218
ag202
ag441
ag104
ag436
ag339
ag35
ag270
ag195
ag225
ag334
ag257
ag32
ag282
ag312
ag495
ag408
ag314
ag403
ag486
ag506
ag199
ag512
ag392
ag332
ag237
ag208
ag153
ag396
ag388
ag93
ag302
ag298
ag385
ag40
ag12
ag291
ag78
ag200
ag240
ag170
ag465
ag321
ag184
ag16
ag503
ag469
ag470
ag435
ag45
ag236
ag460
ag445
ag461
ag426
ag101
ag412
ag264
ag52
ag146
ag245
ag363
ag299
ag105
ag65
ag79
ag293
ag5
ag431
ag158
ag351
ag163
ag493
ag19
ag62
ag344
ag114
ag233
ag57
ag459
ag347
ag372
ag103
ag215
ag288
ag148
ag318
ag168
ag171
ag60
ag278
ag475
ag21
ag111
ag110
ag308
ag365
ag492
ag115
ag252
ag260
ag90
ag166
ag67
ag220
ag457
ag411
ag155
ag178
ag353
ag496
ag42
ag284
ag41
ag126
ag315
ag117
ag439
ag44
ag63
ag121
ag10
ag210
ag124
ag489
ag346
ag9
ag26
ag106
ag31
ag409
ag193
ag327
ag151
ag398
ag145
ag352
ag181
ag410
ag249
ag272
ag239
ag287
ag123
ag390
ag43
ag422
ag23
ag58
ag167
ag447
ag307
ag306
ag428
ag472
ag196
ag371
ag188
ag280
ag383
ag86
ag238
ag418
ag442
ag449
ag80
ag221
ag61
ag376
ag433
ag263
ag294
ag55
ag175
asI15
(lp517
g411
ag197
ag55
ag260
ag209
ag248
ag180
ag98
ag29
ag235
ag292
ag19
ag374
ag302
ag463
ag38
ag276
ag313
ag81
ag383
ag358
ag469
ag305
ag502
ag190
ag133
ag318
ag170
ag103
ag298
ag309
ag80
ag194
ag461
ag101
ag124
ag15
ag471
ag85
ag337
ag399
ag317
ag135
ag218
ag10
ag131
ag362
ag346
ag116
ag378
ag503
ag277
ag373
ag414
ag489
ag510
ag334
ag108
ag384
ag343
ag106
ag474
ag482
ag119
ag163
ag495
ag491
ag377
ag338
ag340
ag227
ag420
ag46
ag283
ag45
ag501
ag70
ag50
ag492
ag130
ag74
ag379
ag483
ag291
ag251
ag304
ag152
ag267
ag153
ag72
ag145
ag207
ag172
ag432
ag255
ag26
ag240
ag410
ag299
ag233
ag434
ag284
ag357
ag270
ag296
ag241
ag141
ag66
ag168
ag392
ag239
ag452
ag17
ag258
ag12
ag341
ag159
ag470
ag455
ag310
ag494
ag5
ag204
ag398
ag87
ag139
ag306
ag389
ag478
ag359
ag21
ag468
ag79
ag354
ag184
ag93
ag69
ag268
ag447
ag224
ag89
ag83
ag31
ag77
ag122
ag49
ag348
ag460
ag440
ag274
ag263
ag52
ag250
ag508
ag285
ag225
ag365
ag78
ag281
ag347
ag311
ag149
ag75
ag231
ag450
ag454
ag488
ag472
ag169
ag24
ag403
ag426
ag507
ag242
ag146
ag322
ag316
ag406
ag408
ag293
ag464
ag205
ag94
ag442
ag386
ag4
ag214
ag290
ag147
ag376
ag266
ag479
ag132
ag356
ag405
ag228
ag102
ag16
ag451
ag222
asI16
(lp518
g430
ag91
ag224
ag192
ag508
ag177
ag441
ag161
ag471
ag106
ag339
ag455
ag408
ag449
ag172
ag96
ag8
ag287
ag197
ag437
ag404
ag219
ag303
ag52
ag95
ag368
ag416
ag427
ag128
ag497
ag185
ag273
ag306
ag473
ag491
ag151
ag454
ag61
ag302
ag417
ag418
ag155
ag396
ag469
ag7
ag407
ag126
ag42
ag171
ag286
ag180
ag334
ag145
ag154
ag134
ag213
ag443
ag297
ag312
ag410
ag314
ag230
ag317
ag429
ag277
ag503
ag210
ag71
ag233
ag102
ag402
ag510
ag162
ag253
ag153
ag442
ag178
ag271
ag345
ag323
ag111
ag194
ag204
ag385
ag80
ag436
ag479
ag19
ag296
ag262
ag165
ag6
ag428
ag225
ag299
ag318
ag240
ag461
ag298
ag444
ag313
ag252
ag398
ag12
ag421
ag129
ag136
ag389
ag156
ag341
ag409
ag5
ag413
ag400
ag478
ag214
ag439
ag372
ag169
ag373
ag374
ag200
ag117
ag3
ag104
ag459
ag184
ag53
ag507
ag281
ag238
ag357
ag170
ag505
ag40
ag32
ag27
ag348
ag369
ag46
ag375
ag30
ag124
ag76
ag58
ag359
ag18
ag295
ag308
ag98
ag440
ag470
ag64
ag86
ag275
ag114
ag74
ag328
ag390
ag364
ag140
ag73
ag279
ag127
ag22
ag272
ag483
ag226
ag456
ag118
ag319
ag361
ag254
ag36
ag48
ag342
ag109
ag376
ag363
ag327
ag474
ag212
ag336
ag267
ag11
ag383
ag406
ag207
ag411
ag243
ag47
ag347
ag472
ag501
ag358
ag269
ag285
ag181
ag216
ag475
asI17
(lp519
g106
ag321
ag61
ag154
ag469
ag159
ag338
ag248
ag503
ag161
ag291
ag343
ag364
ag461
ag163
ag260
ag324
ag114
ag334
ag370
ag177
ag85
ag196
ag315
ag90
ag112
ag393
ag252
ag483
ag424
ag279
ag185
ag199
ag229
ag8
ag495
ag472
ag127
ag62
ag347
ag346
ag278
ag323
ag247
ag152
ag439
ag220
ag280
ag156
ag57
ag65
ag436
ag481
ag176
ag16
ag238
ag5
ag88
ag236
ag385
ag331
ag146
ag14
ag190
ag380
ag270
ag485
ag479
ag454
ag475
ag75
ag145
ag116
ag71
ag374
ag82
ag401
ag95
ag10
ag107
ag174
ag262
ag484
ag99
ag332
ag302
ag164
ag39
ag59
ag488
ag171
ag328
ag12
ag304
ag366
ag319
ag396
ag301
ag354
ag79
ag181
ag293
ag493
ag182
ag376
ag452
ag329
ag187
ag151
ag27
ag264
ag340
ag195
ag383
ag458
ag84
ag399
ag407
ag318
ag60
ag431
ag335
ag24
ag282
ag314
ag480
ag167
ag243
ag218
ag66
ag462
ag500
ag489
ag246
ag377
ag213
ag441
ag402
ag394
ag226
ag422
ag381
ag207
ag228
ag368
ag466
ag403
ag395
ag168
ag382
ag166
ag254
ag309
ag142
ag81
ag400
ag389
ag11
ag205
ag21
ag348
ag322
ag487
ag208
ag459
ag447
ag256
ag201
ag351
ag55
ag313
ag463
ag20
ag83
ag478
ag206
ag265
ag87
ag25
ag283
ag440
ag390
ag170
ag31
ag428
ag173
ag155
ag53
ag23
ag336
ag245
ag44
ag259
ag58
ag421
ag339
ag227
ag365
ag505
ag456
asI18
(lp520
g364
ag388
ag467
ag487
ag385
ag358
ag205
ag384
ag299
ag174
ag485
ag444
ag267
ag405
ag80
ag430
ag425
ag178
ag83
ag263
ag86
ag18
ag429
ag350
ag107
ag74
ag222
ag305
ag381
ag323
ag202
ag400
ag398
ag380
ag90
ag42
ag144
ag448
ag506
ag147
ag121
ag48
ag190
ag283
ag300
ag104
ag251
ag180
ag458
ag463
ag78
ag196
ag148
ag355
ag433
ag157
ag459
ag473
ag262
ag411
ag404
ag240
ag181
ag7
ag201
ag310
ag214
ag451
ag420
ag33
ag204
ag127
ag242
ag275
ag149
ag410
ag97
ag36
ag20
ag344
ag359
ag493
ag468
ag469
ag366
ag5
ag47
ag495
ag68
ag38
ag395
ag79
ag335
ag206
ag16
ag460
ag133
ag455
ag72
ag168
ag50
ag211
ag287
ag393
ag454
ag88
ag505
ag315
ag231
ag175
ag13
ag419
ag278
ag188
ag500
ag488
ag266
ag330
ag260
ag163
ag161
ag105
ag450
ag241
ag399
ag160
ag431
ag452
ag417
ag31
ag131
ag140
ag308
ag122
ag228
ag354
ag365
ag193
ag3
ag225
ag27
ag372
ag312
ag238
ag120
ag342
ag438
ag427
ag98
ag273
ag9
ag82
ag383
ag276
ag139
ag95
ag418
ag261
ag59
ag373
ag84
ag491
ag396
ag259
ag6
ag19
ag332
ag142
ag421
ag125
ag169
ag126
ag134
ag77
ag53
ag209
ag135
ag158
ag328
ag216
ag422
ag403
ag219
ag489
ag116
ag46
ag290
ag43
ag284
ag423
ag141
ag401
ag512
ag114
ag357
ag329
ag191
ag145
ag508
ag374
asI19
(lp521
g168
ag422
ag424
ag294
ag493
ag361
ag185
ag401
ag251
ag20
ag464
ag178
ag395
ag101
ag243
ag193
ag460
ag77
ag175
ag345
ag313
ag98
ag444
ag200
ag471
ag497
ag215
ag287
ag451
ag328
ag29
ag209
ag192
ag116
ag128
ag339
ag463
ag40
ag274
ag16
ag506
ag9
ag227
ag271
ag161
ag179
ag465
ag349
ag303
ag208
ag164
ag41
ag3
ag476
ag117
ag62
ag158
ag502
ag229
ag406
ag418
ag78
ag390
ag191
ag119
ag500
ag245
ag226
ag442
ag197
ag314
ag147
ag223
ag214
ag275
ag363
ag165
ag366
ag123
ag265
ag378
ag302
ag171
ag45
ag414
ag233
ag211
ag300
ag486
ag467
ag373
ag201
ag412
ag188
ag160
ag240
ag55
ag131
ag124
ag289
ag329
ag183
ag221
ag462
ag153
ag392
ag69
ag143
ag149
ag485
ag177
ag169
ag450
ag487
ag312
ag512
ag290
ag32
ag38
ag199
ag323
ag232
ag398
ag60
ag14
ag330
ag166
ag436
ag452
ag96
ag253
ag396
ag88
ag7
ag44
ag47
ag441
ag154
ag43
ag299
ag106
ag461
ag204
ag141
ag234
ag428
ag293
ag113
ag155
ag466
ag120
ag246
ag430
ag24
ag388
ag68
ag46
ag133
ag220
ag89
ag31
ag216
ag79
ag434
ag435
ag126
ag27
ag134
ag33
ag17
ag286
ag73
ag296
ag470
ag170
ag57
ag269
ag5
ag195
ag207
ag367
ag258
ag355
ag218
ag254
ag263
ag266
ag326
ag37
ag507
ag189
ag138
ag182
ag25
ag162
ag420
ag333
ag105
ag67
ag237
asI20
(lp522
g33
ag167
ag193
ag19
ag335
ag103
ag383
ag124
ag369
ag250
ag413
ag225
ag465
ag299
ag178
ag355
ag448
ag460
ag160
ag318
ag502
ag462
ag241
ag496
ag105
ag316
ag470
ag455
ag391
ag149
ag110
ag53
ag392
ag255
ag88
ag279
ag256
ag59
ag283
ag378
ag293
ag134
ag290
ag410
ag280
ag138
ag49
ag93
ag260
ag60
ag198
ag179
ag406
ag253
ag132
ag210
ag72
ag426
ag62
ag289
ag114
ag505
ag116
ag450
ag346
ag38
ag331
ag441
ag185
ag170
ag282
ag175
ag307
ag76
ag344
ag296
ag390
ag21
ag326
ag361
ag216
ag351
ag102
ag63
ag474
ag420
ag135
ag180
ag148
ag122
ag166
ag147
ag306
ag220
ag257
ag173
ag127
ag427
ag157
ag380
ag195
ag119
ag489
ag139
ag303
ag27
ag91
ag101
ag384
ag44
ag494
ag394
ag278
ag164
ag140
ag16
ag89
ag194
ag501
ag186
ag137
ag408
ag399
ag168
ag249
ag96
ag480
ag214
ag343
ag106
ag86
ag453
ag262
ag238
ag328
ag163
ag261
ag301
ag67
ag75
ag235
ag171
ag329
ag224
ag507
ag221
ag424
ag212
ag379
ag36
ag54
ag32
ag442
ag412
ag227
ag112
ag176
ag95
ag415
ag61
ag158
ag314
ag512
ag276
ag473
ag483
ag143
ag320
ag308
ag338
ag128
ag423
ag177
ag230
ag358
ag324
ag357
ag323
ag6
ag219
ag381
ag447
ag9
ag330
ag387
ag319
ag433
ag111
ag345
ag457
ag120
ag479
ag206
ag468
ag372
ag251
ag362
ag190
ag438
ag371
asI21
(lp523
g57
ag321
ag127
ag295
ag480
ag389
ag341
ag180
ag22
ag132
ag443
ag166
ag265
ag436
ag415
ag434
ag258
ag129
ag459
ag85
ag506
ag64
ag328
ag39
ag194
ag302
ag122
ag472
ag247
ag312
ag250
ag162
ag95
ag189
ag337
ag8
ag327
ag391
ag231
ag507
ag494
ag105
ag144
ag251
ag117
ag399
ag392
ag405
ag372
ag366
ag466
ag168
ag135
ag305
ag473
ag70
ag31
ag393
ag58
ag292
ag271
ag230
ag19
ag207
ag475
ag205
ag362
ag340
ag333
ag444
ag92
ag338
ag422
ag150
ag320
ag276
ag374
ag512
ag256
ag119
ag500
ag47
ag136
ag107
ag30
ag15
ag309
ag9
ag126
ag120
ag303
ag68
ag481
ag254
ag49
ag300
ag222
ag133
ag234
ag36
ag456
ag269
ag442
ag240
ag78
ag297
ag432
ag45
ag385
ag371
ag289
ag228
ag239
ag237
ag448
ag381
ag21
ag264
ag46
ag71
ag288
ag145
ag108
ag449
ag348
ag155
ag235
ag380
ag430
ag330
ag121
ag418
ag454
ag176
ag34
ag314
ag310
ag486
ag469
ag184
ag80
ag81
ag478
ag344
ag161
ag421
ag83
ag492
ag124
ag280
ag453
ag7
ag400
ag419
ag29
ag261
ag484
ag317
ag411
ag324
ag424
ag33
ag335
ag458
ag334
ag20
ag197
ag284
ag238
ag60
ag223
ag138
ag69
ag218
ag287
ag262
ag403
ag143
ag79
ag437
ag404
ag505
ag353
ag270
ag116
ag118
ag390
ag347
ag212
ag210
ag193
ag356
ag388
ag299
ag123
ag89
ag445
ag277
ag293
ag326
asI22
(lp524
g133
ag402
ag191
ag290
ag175
ag229
ag111
ag276
ag10
ag101
ag197
ag45
ag48
ag463
ag199
ag420
ag96
ag134
ag202
ag411
ag384
ag451
ag424
ag250
ag257
ag37
ag178
ag231
ag26
ag237
ag30
ag24
ag334
ag474
ag105
ag372
ag146
ag357
ag260
ag486
ag254
ag483
ag153
ag8
ag132
ag92
ag347
ag121
ag31
ag82
ag62
ag88
ag262
ag18
ag428
ag81
ag77
ag183
ag213
ag158
ag19
ag493
ag364
ag413
ag122
ag218
ag401
ag67
ag184
ag117
ag247
ag223
ag421
ag361
ag251
ag489
ag502
ag25
ag331
ag385
ag512
ag470
ag47
ag459
ag412
ag328
ag233
ag15
ag431
ag193
ag456
ag78
ag127
ag280
ag344
ag265
ag484
ag152
ag346
ag427
ag76
ag113
ag329
ag102
ag228
ag441
ag365
ag232
ag131
ag341
ag245
ag443
ag123
ag499
ag214
ag458
ag277
ag33
ag468
ag320
ag406
ag390
ag259
ag5
ag500
ag469
ag392
ag208
ag192
ag417
ag94
ag57
ag358
ag187
ag190
ag442
ag370
ag289
ag61
ag182
ag226
ag444
ag336
ag124
ag256
ag205
ag181
ag7
ag375
ag87
ag399
ag60
ag396
ag109
ag430
ag244
ag204
ag510
ag98
ag462
ag488
ag59
ag217
ag416
ag28
ag261
ag44
ag434
ag408
ag188
ag319
ag89
ag39
ag303
ag371
ag314
ag49
ag467
ag454
ag118
ag363
ag195
ag491
ag288
ag440
ag34
ag172
ag311
ag70
ag386
ag281
ag99
ag351
ag297
ag240
ag299
ag317
ag485
ag90
ag342
asI23
(lp525
g414
ag319
ag176
ag85
ag406
ag44
ag306
ag45
ag89
ag372
ag184
ag353
ag74
ag192
ag162
ag392
ag487
ag337
ag358
ag449
ag235
ag417
ag500
ag139
ag143
ag435
ag208
ag155
ag173
ag458
ag69
ag389
ag377
ag46
ag154
ag79
ag43
ag387
ag411
ag345
ag265
ag82
ag83
ag183
ag410
ag436
ag133
ag320
ag64
ag212
ag59
ag159
ag201
ag352
ag87
ag282
ag335
ag103
ag114
ag191
ag383
ag97
ag409
ag220
ag7
ag295
ag149
ag313
ag485
ag29
ag90
ag346
ag428
ag439
ag240
ag329
ag99
ag245
ag379
ag199
ag390
ag127
ag23
ag207
ag243
ag157
ag403
ag228
ag451
ag172
ag128
ag380
ag365
ag48
ag39
ag182
ag98
ag167
ag178
ag50
ag135
ag391
ag40
ag12
ag479
ag254
ag260
ag279
ag360
ag148
ag68
ag367
ag141
ag160
ag317
ag55
ag226
ag169
ag110
ag466
ag146
ag287
ag93
ag425
ag269
ag63
ag188
ag495
ag214
ag483
ag194
ag250
ag137
ag321
ag480
ag13
ag303
ag253
ag255
ag494
ag165
ag71
ag216
ag328
ag262
ag275
ag465
ag142
ag459
ag433
ag399
ag84
ag174
ag96
ag3
ag472
ag363
ag338
ag200
ag348
ag51
ag512
ag355
ag450
ag508
ag305
ag120
ag242
ag359
ag424
ag323
ag113
ag66
ag381
ag34
ag211
ag315
ag341
ag140
ag467
ag171
ag501
ag456
ag419
ag422
ag145
ag307
ag493
ag502
ag368
ag123
ag175
ag67
ag232
ag475
ag374
ag76
ag292
ag17
ag189
asI24
(lp526
g486
ag435
ag296
ag293
ag399
ag337
ag134
ag343
ag85
ag194
ag272
ag88
ag129
ag64
ag235
ag40
ag492
ag358
ag10
ag385
ag466
ag282
ag370
ag61
ag378
ag367
ag406
ag146
ag355
ag46
ag26
ag457
ag53
ag114
ag502
ag266
ag271
ag220
ag279
ag221
ag48
ag68
ag201
ag43
ag75
ag57
ag100
ag340
ag273
ag431
ag41
ag58
ag281
ag167
ag56
ag449
ag79
ag4
ag255
ag67
ag240
ag390
ag269
ag379
ag444
ag507
ag298
ag403
ag494
ag86
ag506
ag97
ag106
ag416
ag440
ag508
ag441
ag83
ag376
ag332
ag176
ag30
ag393
ag90
ag453
ag190
ag299
ag125
ag42
ag157
ag216
ag14
ag189
ag510
ag373
ag285
ag166
ag317
ag394
ag171
ag421
ag361
ag130
ag291
ag209
ag91
ag92
ag226
ag133
ag377
ag465
ag306
ag499
ag432
ag154
ag174
ag160
ag184
ag329
ag407
ag398
ag314
ag142
ag181
ag36
ag143
ag310
ag289
ag34
ag483
ag365
ag149
ag87
ag386
ag270
ag489
ag333
ag497
ag259
ag364
ag211
ag96
ag107
ag137
ag442
ag204
ag239
ag312
ag237
ag187
ag17
ag54
ag454
ag402
ag150
ag23
ag309
ag428
ag196
ag31
ag228
ag111
ag44
ag197
ag250
ag89
ag450
ag70
ag424
ag63
ag227
ag433
ag110
ag213
ag151
ag225
ag140
ag445
ag472
ag159
ag243
ag318
ag264
ag177
ag409
ag320
ag274
ag451
ag170
ag50
ag495
ag353
ag251
ag474
ag244
ag11
ag484
ag418
ag461
ag468
as.