(dp1
I0
(lp2
S'http://free-tv-video-online.me'
p3
aS'http://about.com'
p4
aS'http://bluehost.com'
p5
aS'http://thefreedictionary.com'
p6
aS'http://ups.com'
p7
aS'http://wellsfargo.com'
p8
aS'http://toysrus.com'
p9
aS'http://indeed.com'
p10
aS'http://dailycaller.com'
p11
aS'http://upworthy.com'
p12
aS'http://evernote.com'
p13
aS'http://chron.com'
p14
aS'http://wow.com'
p15
aS'http://theverge.com'
p16
aS'http://shopathome.com'
p17
aS'http://verizonwireless.com'
p18
aS'http://gmail.com'
p19
aS'http://perezhilton.com'
p20
aS'http://intentmedia.net'
p21
aS'http://archive.org'
p22
aS'http://linksynergy.com'
p23
aS'http://bbc.com'
p24
aS'http://worldstarhiphop.com'
p25
aS'http://chaturbate.com'
p26
aS'http://lockerdome.com'
p27
aS'http://sina.com.cn'
p28
aS'http://tinyurl.com'
p29
aS'http://qq.com'
p30
aS'http://fedex.com'
p31
aS'http://flickr.com'
p32
aS'http://rr.com'
p33
aS'http://deviantart.com'
p34
aS'http://codecanyon.net'
p35
aS'http://cracked.com'
p36
aS'http://youtube.com'
p37
aS'http://okcupid.com'
p38
aS'http://pogo.com'
p39
aS'http://slickdeals.net'
p40
aS'http://ijreview.com'
p41
aS'http://cars.com'
p42
aS'http://coupons.com'
p43
aS'http://loading-delivery1.com'
p44
aS'http://dmv.org'
p45
aS'http://macys.com'
p46
aS'http://4dsply.com'
p47
aS'http://alibaba.com'
p48
aS'http://pinimg.com'
p49
aS'http://ew.com'
p50
aS'http://target.com'
p51
aS'http://bhphotovideo.com'
p52
aS'http://foxnews.com'
p53
aS'http://usps.com'
p54
aS'http://craigslist.org'
p55
aS'http://twitch.tv'
p56
aS'http://sourceforge.net'
p57
aS'http://buzzfeed.com'
p58
aS'http://domaintools.com'
p59
aS'http://proptp.net'
p60
aS'http://themeforest.net'
p61
aS'http://aliexpress.com'
p62
aS'http://github.io'
p63
aS'http://overstock.com'
p64
aS'http://adcash.com'
p65
aS'http://faithtap.com'
p66
aS'http://feedly.com'
p67
aS'http://6pm.com'
p68
aS'http://zendesk.com'
p69
aS'http://wikimedia.org'
p70
aS'http://verizon.com'
p71
aS'http://hubpages.com'
p72
aS'http://pnc.com'
p73
aS'http://msn.com'
p74
aS'http://ticketmaster.com'
p75
aS'http://allrecipes.com'
p76
aS'http://entrepreneur.com'
p77
aS'http://usaa.com'
p78
aS'http://expedia.com'
p79
aS'http://boston.com'
p80
aS'http://walgreens.com'
p81
aS'http://aol.com'
p82
aS'http://vice.com'
p83
aS'http://adobe.com'
p84
aS'http://amazonaws.com'
p85
aS'http://walmart.com'
p86
aS'http://warriorforum.com'
p87
aS'http://bodybuilding.com'
p88
aS'http://food.com'
p89
aS'http://hp.com'
p90
aS'http://worlddaily.com'
p91
aS'http://homedepot.com'
p92
aS'http://hostgator.com'
p93
aS'http://match.com'
p94
aS'http://petflow.com'
p95
aS'http://weather.com'
p96
aS'http://gamefaqs.com'
p97
aS'http://abcnews.go.com'
p98
aS'http://thepiratebay.se'
p99
aS'http://force.com'
p100
aS'http://shareasale.com'
p101
aS'http://bbandt.com'
p102
aS'http://livingsocial.com'
p103
aS'http://outlook.com'
p104
aS'http://bloomberg.com'
p105
aS'http://avg.com'
p106
aS'http://slate.com'
p107
aS'http://facebook.com'
p108
aS'http://trovi.com'
p109
aS'http://zeobit.com'
p110
aS'http://motherless.com'
p111
aS'http://eventbrite.com'
p112
aS'http://staples.com'
p113
aS'http://livejournal.com'
p114
aS'http://skype.com'
p115
aS'http://statcounter.com'
p116
aS'http://cj.com'
p117
aS'http://srv123.com'
p118
aS'http://quora.com'
p119
aS'http://pof.com'
p120
aS'http://barnesandnoble.com'
p121
aS'http://ancestry.com'
p122
aS'http://kmart.com'
p123
aS'http://duckduckgo.com'
p124
aS'http://shutterstock.com'
p125
aS'http://nbcsports.com'
p126
aS'http://whitepages.com'
p127
aS'http://onclickads.net'
p128
aS'http://tmz.com'
p129
aS'http://myfreecams.com'
p130
aS'http://wimp.com'
p131
aS'http://pandora.com'
p132
aS'http://centurylink.com'
p133
aS'http://media.tumblr.com'
p134
aS'http://typepad.com'
p135
aS'http://dell.com'
p136
aS'http://espnfc.us'
p137
aS'http://espn.go.com'
p138
aS'http://pbs.org'
p139
aS'http://hulu.com'
p140
aS'http://autotrader.com'
p141
aS'http://united.com'
p142
aS'http://irs.gov'
p143
aS'http://simplyhired.com'
p144
aS'http://manta.com'
p145
aS'http://conduit.com'
p146
aS'http://sears.com'
p147
aS'http://gfycat.com'
p148
aS'http://java.com'
p149
aS'http://stackoverflow.com'
p150
aS'http://optimum.net'
p151
aS'http://urbandictionary.com'
p152
aS'http://qvc.com'
p153
aS'http://huffingtonpost.com'
p154
aS'http://trulia.com'
p155
aS'http://mlb.com'
p156
aS'http://fool.com'
p157
aS'http://howstuffworks.com'
p158
aS'http://nbcnews.com'
p159
aS'http://primewire.ag'
p160
aS'http://ebay.com'
p161
aS'http://today.com'
p162
aS'http://sfgate.com'
p163
aS'http://marketwatch.com'
p164
aS'http://bbb.org'
p165
aS'http://cnbc.com'
p166
aS'http://xnxx.com'
p167
aS'http://constantcontact.com'
p168
aS'http://discovercard.com'
p169
aS'http://discover.com'
p170
aS'http://wix.com'
p171
aS'http://fbcdn.net'
p172
aS'http://hootsuite.com'
p173
aS'http://empowernetwork.com'
p174
aS'http://go.com'
p175
aS'http://pcmag.com'
p176
aS'http://azlyrics.com'
p177
aS'http://baidu.com'
p178
aS'http://disney.go.com'
p179
aS'http://pinterest.com'
p180
aS'http://timeanddate.com'
p181
aS'http://picmonkey.com'
p182
aS'http://gawker.com'
p183
aS'http://privatehomeclips.com'
p184
aS'http://nba.com'
p185
aS'http://ning.com'
p186
aS'http://t-mobile.com'
p187
aS'http://likes.com'
p188
aS'http://earthlink.net'
p189
aS'http://moz.com'
p190
aS'http://theblaze.com'
p191
aS'http://cbsnews.com'
p192
aS'http://hotels.com'
p193
aS'http://charter.net'
p194
aS'http://battle.net'
p195
aS'http://photobucket.com'
p196
aS'http://ashleyrnadison.com'
p197
aS'http://odesk.com'
p198
aS'http://soundcloud.com'
p199
aS'http://wayfair.com'
p200
aS'http://thekitchn.com'
p201
aS'http://chase.com'
p202
asI1
(lp203
g187
aS'http://leadpages.net'
p204
aS'http://rantlifestyle.com'
p205
aS'http://ehow.com'
p206
aS'http://ny.gov'
p207
ag116
aS'http://w3schools.com'
p208
ag69
ag33
aS'http://nordstrom.com'
p209
ag174
ag142
ag148
aS'http://fandango.com'
p210
aS'http://comcast.net'
p211
aS'http://kohls.com'
p212
aS'http://mailchimp.com'
p213
ag129
aS'http://cbs.com'
p214
aS'http://bestbuy.com'
p215
ag165
ag125
aS'http://weibo.com'
p216
ag41
aS'http://espnfc.com'
p217
ag53
aS'http://webmd.com'
p218
aS'http://hilton.com'
p219
aS'http://googleusercontent.com'
p220
ag82
aS'http://oracle.com'
p221
ag62
aS'http://outbrain.com'
p222
aS'http://answers.com'
p223
aS'http://babycenter.com'
p224
ag201
aS'http://tagged.com'
p225
aS'http://state.tx.us'
p226
ag20
ag123
ag108
aS'http://secureserver.net'
p227
aS'http://nhl.com'
p228
aS'http://southwest.com'
p229
ag43
ag99
ag198
aS'http://zappos.com'
p230
aS'http://costco.com'
p231
aS'http://jcpenney.com'
p232
aS'http://comcast.com'
p233
aS'http://newsmax.com'
p234
aS'http://zimbio.com'
p235
aS'http://kbb.com'
p236
aS'http://breitbart.com'
p237
aS'http://bing.com'
p238
aS'http://monster.com'
p239
aS'http://fidelity.com'
p240
ag32
ag130
aS'http://directrev.com'
p241
aS'http://rackspace.com'
p242
aS'http://vk.com'
p243
aS'http://microsoftonline.com'
p244
ag171
aS'http://drudgereport.com'
p245
ag127
aS'http://wikihow.com'
p246
aS'http://digg.com'
p247
aS'http://rakuten.com'
p248
aS'http://newegg.com'
p249
ag36
aS'http://github.com'
p250
aS'http://mapquest.com'
p251
ag95
ag131
ag136
ag181
aS'http://reference.com'
p252
aS'http://deadspin.com'
p253
aS'http://marriott.com'
p254
ag105
aS'http://taobao.com'
p255
aS'http://shopify.com'
p256
ag153
aS'http://twitter.com'
p257
aS'http://etsy.com'
p258
aS'http://1and1.com'
p259
aS'http://live.com'
p260
aS'http://wnd.com'
p261
ag164
ag144
aS'http://hotwire.com'
p262
ag46
ag6
ag178
aS'http://suntrust.com'
p263
aS'http://dropbox.com'
p264
aS'http://cbslocal.com'
p265
aS'http://bp.blogspot.com'
p266
ag183
aS'http://dailymotion.com'
p267
aS'http://redfin.com'
p268
ag7
ag23
aS'http://glassdoor.com'
p269
ag72
ag42
ag199
aS'http://yelp.com'
p270
ag103
aS'http://nih.gov'
p271
aS'http://sbnation.com'
p272
ag138
aS'http://wikipedia.org'
p273
aS'http://google.com'
p274
aS'http://gap.com'
p275
ag25
ag89
aS'http://bbc.co.uk'
p276
aS'http://zazzle.com'
p277
aS'http://rollingstone.com'
p278
aS'http://cox.com'
p279
aS'http://tigerdirect.com'
p280
aS'http://nypost.com'
p281
aS'http://att.net'
p282
aS'http://forbes.com'
p283
aS'http://cnn.com'
p284
aS'http://mozilla.org'
p285
aS'http://optmd.com'
p286
ag110
aS'http://zoho.com'
p287
ag157
ag122
aS'http://cnet.com'
p288
aS'http://latimes.com'
p289
aS'http://mayoclinic.org'
p290
ag77
aS'http://stumbleupon.com'
p291
aS'http://mtv.com'
p292
ag17
aS'http://shutterfly.com'
p293
ag109
aS'http://people.com'
p294
ag90
aS'http://americanexpress.com'
p295
aS'http://priceline.com'
p296
aS'http://indiatimes.com'
p297
aS'http://paypal.com'
p298
aS'http://att.com'
p299
ag112
ag182
aS'http://apple.com'
p300
aS'http://diply.com'
p301
aS'http://citrixonline.com'
p302
ag98
ag49
ag51
aS'http://myspace.com'
p303
aS'http://timewarnercable.com'
p304
ag86
aS'http://rt.com'
p305
ag94
aS'http://rottentomatoes.com'
p306
aS'http://fatwallet.com'
p307
ag9
aS'http://capitalone360.com'
p308
ag169
ag85
ag175
aS'http://nfl.com'
p309
ag16
aS'http://techcrunch.com'
p310
ag92
aS'http://screencast.com'
p311
aS'http://ign.com'
p312
aS'http://doubleclick.com'
p313
aS'http://kickstarter.com'
p314
ag12
ag185
ag167
ag188
aS'http://hubspot.com'
p315
aS'http://scribd.com'
p316
ag133
aS'http://kickass.to'
p317
ag149
aS'http://chicagotribune.com'
p318
ag119
aS'http://livestrong.com'
p319
aS'http://xhamster.com'
p320
aS'http://liveleak.com'
p321
ag118
aS'http://squarespace.com'
p322
aS'http://redtube.com'
p323
aS'http://microsoft.com'
p324
aS'http://adverstitial.com'
p325
ag27
ag52
aS'http://npr.org'
p326
asI2
(lp327
S'http://tripadvisor.com'
p328
aS'http://weather.gov'
p329
aS'http://zergnet.com'
p330
ag147
aS'http://adp.com'
p331
aS'http://edmunds.com'
p332
ag40
ag245
ag235
ag71
ag56
ag77
ag73
ag267
aS'http://thechive.com'
p333
ag300
aS'http://mediafire.com'
p334
aS'http://emgn.com'
p335
ag17
ag123
ag288
ag228
ag263
ag47
aS'http://time.com'
p336
ag278
ag161
ag309
aS'http://beeg.com'
p337
ag282
aS'http://vrbo.com'
p338
ag163
ag132
ag198
ag215
ag145
aS'http://clicksvenue.com'
p339
aS'http://imdb.com'
p340
ag279
ag264
ag324
aS'http://businessweek.com'
p341
ag49
ag204
aS'http://tumblr.com'
p342
aS'http://schwab.com'
p343
ag269
ag55
ag26
aS'http://elitedaily.com'
p344
ag60
aS'http://bitly.com'
p345
aS'http://taboola.com'
p346
ag134
ag107
ag119
ag85
aS'http://thedailybeast.com'
p347
aS'http://aa.com'
p348
ag275
ag268
aS'http://biblegateway.com'
p349
ag96
ag167
ag136
ag93
aS'http://audible.com'
p350
aS'http://yellowpages.com'
p351
aS'http://samsclub.com'
p352
ag172
aS'http://adultfriendfinder.com'
p353
ag302
ag154
ag25
ag165
aS'http://zulily.com'
p354
aS'http://netflix.com'
p355
aS'http://seekingalpha.com'
p356
ag65
ag156
ag252
ag306
ag9
aS'http://blogspot.com'
p357
ag6
aS'http://gotomeeting.com'
p358
ag8
aS'http://city-data.com'
p359
ag168
aS'http://wikia.com'
p360
aS'http://redbox.com'
p361
ag271
ag174
ag186
ag121
ag82
aS'http://cox.net'
p362
ag13
ag276
ag194
ag222
aS'http://blogger.com'
p363
ag274
ag129
ag183
ag250
ag63
ag170
aS'http://adnxs.com'
p364
ag91
aS'http://sprint.com'
p365
ag207
aS'http://ikea.com'
p366
ag234
ag220
aS'http://salesforce.com'
p367
ag151
ag24
ag262
ag58
ag169
ag102
ag108
aS'http://yahoo.com'
p368
ag218
ag286
ag72
ag246
ag122
ag299
aS'http://legacy.com'
p369
ag316
aS'http://intuit.com'
p370
ag127
aS'http://ask.com'
p371
ag70
aS'http://wordpress.com'
p372
ag16
aS'http://bloglovin.com'
p373
ag87
ag66
ag273
aS'http://steampowered.com'
p374
aS'http://engadget.com'
p375
ag105
ag187
aS'http://backpage.com'
p376
ag46
ag318
aS'http://eonline.com'
p377
ag36
aS'http://akamaihd.net'
p378
aS'http://bankrate.com'
p379
aS'http://vube.com'
p380
ag86
ag111
aS'http://playbuzz.com'
p381
ag10
aS'http://clickbank.com'
p382
ag80
aS'http://gofundme.com'
p383
ag191
ag195
aS'http://infowars.com'
p384
ag240
ag277
aS'http://lowes.com'
p385
aS'http://getresponse.com'
p386
ag182
aS'http://travelocity.com'
p387
ag137
aS'http://houzz.com'
p388
aS'http://sitescout.com'
p389
ag140
ag294
ag321
aS'http://cloudfront.net'
p390
aS'http://foxsports.com'
p391
aS'http://foodnetwork.com'
p392
ag150
aS'http://amazon.com'
p393
aS'http://reddit.com'
p394
ag23
ag295
ag310
aS'http://washingtonpost.com'
p395
ag81
aS'http://imgur.com'
p396
ag143
ag197
ag20
ag212
ag100
ag231
ag243
ag124
ag149
ag4
ag98
ag109
asI3
(lp397
S'http://youporn.com'
p398
ag380
aS'http://reuters.com'
p399
ag102
ag109
aS'http://pornhub.com'
p400
ag331
aS'http://usatoday.com'
p401
ag378
ag106
ag130
ag190
aS'http://cvs.com'
p402
aS'http://patch.com'
p403
aS'http://roblox.com'
p404
aS'http://swagbucks.com'
p405
aS'http://ksl.com'
p406
ag219
ag139
aS'http://list-manage.com'
p407
ag104
ag210
ag234
ag68
aS'http://stackexchange.com'
p408
ag107
ag31
ag235
ag273
ag36
ag127
ag304
ag19
ag213
ag40
ag192
ag300
ag374
ag351
ag310
aS'http://fiverr.com'
p409
ag45
ag174
aS'http://speedtest.net'
p410
ag342
ag4
ag271
aS'http://groupon.com'
p411
ag324
ag220
aS'http://custhelp.com'
p412
ag253
ag270
ag365
ag193
ag47
ag188
aS'http://elance.com'
p413
ag87
ag364
ag99
ag54
ag182
ag359
ag313
ag372
ag205
ag336
ag278
ag358
ag196
ag168
ag185
ag103
aS'http://m-w.com'
p414
ag170
ag275
ag254
aS'http://citi.com'
p415
ag315
aS'http://woot.com'
p416
ag347
aS'http://youjizz.com'
p417
ag311
ag337
ag298
ag288
aS'http://kayak.com'
p418
ag89
ag194
aS'http://bizjournals.com'
p419
ag100
ag246
aS'http://dailymail.co.uk'
p420
ag285
ag261
ag257
ag323
aS'http://examiner.com'
p421
ag326
ag242
aS'http://nytimes.com'
p422
aS'http://noaa.gov'
p423
aS'http://capitalone.com'
p424
ag373
ag214
ag147
ag143
aS'http://myfitnesspal.com'
p425
ag222
aS'http://linkedin.com'
p426
ag8
ag33
ag178
ag240
ag216
aS'http://booking.com'
p427
ag95
ag224
ag91
ag59
ag13
ag83
aS'http://meetup.com'
p428
ag249
ag123
aS'http://aweber.com'
p429
ag75
ag355
ag302
ag116
aS'http://xhamstercams.com'
p430
ag299
aS'http://t.co'
p431
ag23
ag92
ag125
aS'http://vimeo.com'
p432
ag199
aS'http://adf.ly'
p433
ag126
aS'http://topix.com'
p434
ag187
aS'http://box.com'
p435
ag191
ag395
ag283
ag392
ag167
ag388
ag24
ag287
ag277
ag39
ag238
ag119
ag230
aS'http://instagram.com'
p436
ag169
ag141
ag41
aS'http://wsj.com'
p437
ag138
aS'http://io9.com'
p438
ag120
ag111
ag155
ag208
ag93
ag60
ag90
ag317
ag353
aS'http://accuweather.com'
p439
aS'http://nydailynews.com'
p440
ag265
ag80
ag65
ag211
ag328
ag12
aS'http://dnsrsearch.com'
p441
ag15
ag177
ag184
ag86
ag51
ag345
ag163
ag303
ag35
ag241
ag344
ag70
ag5
ag34
aS'http://iflscience.com'
p442
aS'http://infusionsoft.com'
p443
ag237
ag207
asI4
(lp444
S'http://torrentz.eu'
p445
ag162
ag356
ag286
ag370
ag338
ag275
aS'http://usnews.com'
p446
ag303
ag328
ag70
ag367
ag41
ag193
ag384
ag191
ag435
ag420
ag409
ag147
ag48
ag96
ag283
ag90
ag163
ag363
ag156
ag42
ag51
ag78
ag440
ag165
ag188
aS'http://bedbathandbeyond.com'
p447
aS'http://wordpress.org'
p448
ag19
ag77
ag142
ag431
ag152
ag176
ag145
ag298
ag62
ag102
aS'http://wired.com'
p449
aS'http://salon.com'
p450
ag293
ag35
ag316
ag126
ag355
ag196
ag393
ag111
ag85
ag82
ag330
ag361
aS'http://businessinsider.com'
p451
ag240
ag106
ag289
ag274
ag177
ag320
ag425
ag72
ag242
ag135
ag372
ag308
ag218
aS'http://cbssports.com'
p452
ag109
ag319
ag403
ag206
ag130
ag201
aS'http://files.wordpress.com'
p453
aS'http://doublepimp.com'
p454
ag371
ag37
ag17
ag290
ag228
ag205
ag160
ag139
ag73
ag375
ag86
ag297
aS'http://addthis.com'
p455
ag377
ag105
ag398
ag421
ag433
ag385
ag404
ag21
ag151
ag345
aS'http://accountonline.com'
p456
ag305
ag299
ag46
aS'http://citibank.com'
p457
ag209
ag226
aS'http://jvzoo.com'
p458
ag265
ag245
aS'http://vistaprint.com'
p459
ag113
aS'http://pch.com'
p460
ag149
ag43
ag168
ag262
ag214
ag281
ag277
aS'http://univision.com'
p461
ag362
ag153
ag423
ag399
ag38
ag99
ag136
ag224
ag91
ag390
ag414
ag103
ag22
ag141
ag171
ag39
ag248
ag170
ag332
ag376
aS'http://fifa.com'
p462
ag174
ag210
ag83
ag127
ag424
ag220
ag13
ag237
aS'http://usmagazine.com'
p463
ag234
ag341
ag33
ag314
ag249
ag251
ag144
ag238
ag267
ag365
ag250
ag71
ag266
ag241
ag125
ag368
ag131
ag324
ag284
ag411
ag29
aS'http://bankofamerica.com'
p464
ag175
ag221
ag116
ag306
ag354
ag190
ag357
aS'http://xtube.com'
p465
ag32
ag169
ag373
ag183
ag182
ag437
ag18
aS'http://livejasmin.com'
p466
ag49
ag347
ag369
ag311
ag310
ag239
asI5
(lp467
g346
ag108
ag40
ag463
ag147
ag226
ag261
ag304
ag57
ag201
ag174
ag385
aS'http://wunderground.com'
p468
ag41
ag398
ag179
ag445
ag212
aS'http://retailmenot.com'
p469
ag110
ag232
ag156
aS'http://jezebel.com'
p470
ag17
ag80
ag123
ag109
ag247
ag279
aS'http://telegraph.co.uk'
p471
ag95
ag158
aS'http://weebly.com'
p472
ag148
ag320
aS'http://theguardian.com'
p473
ag440
ag27
aS'http://taleo.net'
p474
ag141
ag335
ag59
ag302
ag215
ag254
ag13
ag190
ag278
ag85
ag16
ag125
ag415
ag323
ag214
ag23
ag66
aS'http://zillow.com'
p475
ag188
ag161
ag155
ag29
ag354
ag383
ag334
ag362
ag295
ag265
ag139
ag358
ag14
ag50
ag285
ag403
ag184
ag49
ag153
ag329
ag86
ag434
ag377
aS'http://tdbank.com'
p476
ag431
ag418
ag142
ag32
ag47
ag367
ag460
ag82
ag81
ag53
ag133
ag210
ag359
aS'http://slideshare.net'
p477
ag193
ag396
ag137
ag223
ag337
ag248
ag45
ag195
ag191
ag408
ag54
ag298
ag423
ag213
ag73
ag290
ag410
ag249
ag218
ag164
ag157
ag84
ag160
ag280
ag372
ag381
ag432
ag94
ag37
ag145
ag20
ag357
ag331
aS'http://orbitz.com'
p478
ag351
ag281
ag116
ag253
ag340
ag433
ag454
ag404
ag38
ag293
ag4
ag22
ag48
ag221
ag75
ag303
ag138
ag71
ag61
ag453
ag451
ag185
ag24
ag389
ag258
ag176
ag204
ag100
ag388
ag263
aS'http://delta.com'
p479
ag205
ag342
ag182
ag284
ag150
ag360
ag92
ag443
ag275
ag235
ag237
ag200
ag240
aS'http://goodreads.com'
p480
ag456
ag286
ag25
ag196
ag231
ag458
ag393
ag186
aS'http://godaddy.com'
p481
ag241
ag464
ag309
aS'http://zedo.com'
p482
ag452
ag414
ag197
ag136
ag208
ag15
aS'http://cam4.com'
p483
ag250
ag442
ag259
ag382
ag79
ag77
asI6
(lp484
g398
ag70
ag481
ag213
ag144
ag482
ag388
ag227
aS'http://careerbuilder.com'
p485
ag71
ag167
ag407
ag283
aS'http://basecamp.com'
p486
ag255
ag468
ag357
ag14
ag416
ag176
ag380
ag228
ag190
ag353
ag356
aS'http://gamespot.com'
p487
ag396
ag424
ag437
ag242
ag436
ag49
aS'http://disqus.com'
p488
ag230
ag87
ag146
ag355
ag223
ag338
ag153
ag336
ag216
ag200
ag296
ag417
ag294
ag115
aS'http://mashable.com'
p489
ag18
ag164
ag3
ag313
ag385
ag198
ag419
ag33
ag201
ag381
ag319
ag278
ag471
ag124
aS'http://realtor.com'
p490
ag391
ag405
ag195
ag343
ag254
ag72
ag469
ag474
ag21
ag260
ag244
ag352
ag455
ag55
ag95
ag65
ag459
ag99
ag372
ag51
ag268
ag333
ag253
ag425
ag100
ag48
ag449
ag112
ag180
ag131
ag286
ag243
ag451
ag68
ag172
ag411
ag225
ag108
ag229
ag281
ag139
ag54
ag363
ag450
ag142
ag12
ag92
ag43
ag263
ag342
ag394
ag74
ag346
ag94
ag26
aS'http://ca.gov'
p491
ag412
ag101
ag445
ag404
aS'http://authorize.net'
p492
ag258
ag270
ag186
ag232
ag334
ag368
ag208
ag56
ag19
ag111
ag399
ag104
ag113
ag402
ag297
ag367
ag30
ag378
ag366
ag282
ag360
ag284
ag181
ag207
ag41
ag257
ag20
ag428
ag422
ag462
ag77
ag427
ag344
ag123
ag267
ag377
ag316
ag192
ag188
ag9
ag299
ag226
ag273
ag107
ag57
ag64
ag330
ag46
ag44
aS'http://directv.com'
p493
ag247
ag231
ag189
ag421
ag248
ag240
ag415
ag238
ag162
ag130
ag62
ag187
ag196
ag392
ag401
ag202
aS'http://politico.com'
p494
ag440
ag361
ag406
ag206
ag478
ag303
ag322
ag205
ag441
asI7
(lp495
g28
ag241
ag326
ag220
ag357
ag195
ag450
ag134
ag186
ag154
ag425
ag209
ag405
ag312
ag452
ag19
ag335
ag376
ag295
ag50
ag89
ag234
ag65
ag38
ag429
ag95
ag437
ag362
ag311
ag337
ag135
ag124
ag57
ag188
ag410
ag374
ag68
ag269
ag227
ag244
ag223
ag196
ag423
ag91
ag359
aS'http://tube8.com'
p496
ag128
ag178
ag29
ag354
ag58
ag412
ag155
ag251
ag386
ag5
ag347
ag324
ag108
ag301
ag230
ag53
ag248
ag302
ag63
ag226
ag278
ag290
ag237
ag120
ag436
ag127
ag101
ag216
ag363
ag242
ag137
ag472
ag236
ag228
ag41
ag193
ag166
ag457
ag489
ag56
ag109
ag378
ag138
ag245
ag338
ag13
ag70
ag367
ag45
ag310
ag421
ag211
ag275
ag390
ag308
ag474
ag72
ag392
aS'http://xvideos.com'
p497
ag264
ag3
ag262
ag179
ag339
ag26
ag39
ag11
ag365
ag265
ag192
ag207
ag413
ag348
ag299
ag219
ag307
ag366
ag331
ag483
ag243
ag446
ag385
ag415
ag351
ag153
ag238
ag433
ag18
ag320
ag353
ag37
ag225
aS'http://bleacherreport.com'
p498
ag205
ag116
aS'http://cafemom.com'
p499
ag100
ag298
ag224
aS'http://surveymonkey.com'
p500
ag94
ag240
ag110
ag344
ag328
ag117
ag112
ag400
ag141
ag119
ag388
ag98
ag16
ag156
ag455
ag104
ag340
ag126
ag360
ag305
ag88
ag161
ag409
ag167
ag393
ag267
ag439
ag451
ag387
ag490
ag42
ag322
ag189
ag317
ag271
ag443
ag417
ag407
ag162
ag246
ag270
ag296
ag416
ag480
ag418
ag60
ag255
ag288
ag401
ag492
ag316
ag184
ag140
ag35
asI8
(lp501
g343
ag386
ag480
ag476
ag177
ag9
ag364
ag428
ag408
ag264
ag492
ag383
ag215
ag90
ag395
ag27
ag500
ag276
ag393
ag417
ag111
ag191
ag289
ag305
ag103
ag285
ag123
ag251
ag332
ag148
ag91
ag302
ag40
ag265
ag222
ag154
ag498
ag72
ag89
ag73
ag282
ag65
aS'http://4chan.org'
p502
ag288
ag12
ag275
ag54
ag404
ag470
ag39
ag178
ag412
ag377
ag284
ag273
ag224
ag85
ag94
ag313
ag165
ag399
ag243
ag416
ag267
ag57
ag462
ag52
aS'http://neobux.com'
p503
ag96
ag41
ag179
ag227
ag107
ag164
ag299
ag295
ag312
ag233
ag11
ag454
ag376
ag5
ag15
ag361
ag406
ag297
ag314
ag340
ag210
ag120
ag236
ag76
ag281
ag226
ag188
ag422
ag117
ag4
ag464
ag375
ag223
ag390
ag17
ag18
ag329
ag98
ag150
ag169
ag311
ag394
ag56
ag457
ag247
ag497
ag167
ag341
ag51
ag186
ag374
ag396
ag78
ag266
aS'http://istockphoto.com'
p504
ag129
ag426
ag493
ag472
ag485
ag197
ag180
ag212
ag310
ag79
ag499
ag449
ag491
ag69
ag441
ag466
ag145
ag53
ag317
ag283
ag240
ag59
ag193
ag77
ag430
ag29
ag335
ag242
ag490
ag433
ag201
ag257
ag387
ag250
ag325
ag407
ag141
ag16
ag208
ag217
ag303
ag13
ag415
ag455
ag246
ag198
ag170
ag358
ag124
ag388
ag391
ag385
ag262
ag128
ag434
ag322
ag218
ag418
ag248
ag357
ag294
ag168
ag158
ag26
ag49
ag173
ag381
ag50
ag60
ag67
ag237
ag63
ag30
ag438
ag468
ag286
ag47
asI9
(lp505
g87
ag365
ag309
ag446
ag95
ag176
ag323
ag477
ag120
ag293
ag168
ag270
ag261
ag191
ag101
ag229
ag77
ag351
ag140
ag344
ag126
ag138
ag78
ag239
ag469
ag81
ag433
ag373
ag47
ag117
ag159
ag161
ag57
ag301
ag106
ag274
ag339
ag170
ag346
ag218
ag121
ag254
ag380
ag345
aS'http://netteller.com'
p506
ag299
ag33
ag100
ag11
ag411
ag124
ag402
ag105
ag278
ag17
ag230
ag295
ag139
ag45
ag94
ag286
ag214
ag240
ag263
ag486
ag437
ag235
ag148
ag60
ag415
ag131
ag350
ag422
aS'http://steamcommunity.com'
p507
ag118
ag288
ag192
ag440
ag260
ag103
ag493
ag269
ag28
ag378
ag311
ag382
ag370
ag173
ag414
ag96
ag310
ag56
ag407
ag471
ag13
ag175
ag336
ag401
ag58
ag130
ag186
ag18
ag50
ag215
ag86
ag398
ag65
ag233
ag76
ag318
ag153
ag241
ag9
ag223
ag21
ag113
ag151
ag25
ag389
ag128
ag368
ag468
ag53
ag276
ag485
ag386
ag390
ag89
ag393
ag265
ag224
ag108
ag5
ag476
ag457
ag102
ag221
ag499
ag481
ag416
ag247
ag137
ag331
ag154
ag133
ag268
ag3
ag127
ag290
ag337
ag408
ag343
ag387
ag332
ag116
ag114
ag447
ag449
ag317
ag207
ag181
ag413
ag52
ag358
ag470
aS'http://lifehacker.com'
p508
ag69
ag456
ag143
ag166
ag494
ag201
ag458
ag210
ag187
ag259
ag208
ag273
ag326
ag20
ag479
ag367
ag334
ag220
ag297
ag125
ag194
ag487
ag451
ag35
ag405
ag271
ag237
ag461
ag212
ag356
ag338
ag32
ag79
ag362
asI10
(lp509
g429
ag186
ag125
ag372
ag300
ag508
ag114
ag251
ag424
ag466
ag51
ag159
ag326
ag228
ag381
ag291
ag196
ag56
ag42
ag122
ag33
ag36
ag22
ag412
ag440
ag265
ag373
ag308
ag289
ag486
ag29
ag468
ag354
ag234
ag83
ag101
ag275
ag423
ag135
ag362
ag502
ag445
ag386
ag34
ag355
ag133
ag50
ag420
ag436
ag405
ag128
ag474
ag5
ag100
ag233
ag323
ag345
ag504
ag67
ag306
ag472
ag496
ag224
ag346
ag89
ag418
ag197
ag322
ag151
ag376
ag165
ag200
ag341
ag99
ag28
ag439
ag371
ag138
ag470
ag463
ag270
ag282
ag162
ag257
ag201
ag153
ag9
ag499
ag84
ag426
ag146
ag16
ag394
ag204
ag375
ag164
ag70
ag462
ag141
ag220
ag127
ag214
ag479
ag388
ag30
ag3
ag198
ag456
ag252
ag340
ag469
ag112
ag360
ag237
ag366
ag493
ag23
aS'http://tvguide.com'
p510
ag37
ag104
ag286
ag334
ag219
ag328
ag207
ag59
ag109
ag364
ag452
ag402
ag315
ag489
ag309
ag487
ag284
ag53
ag419
ag230
ag140
ag351
ag12
ag86
ag183
ag304
ag311
ag330
ag477
ag131
ag329
ag363
ag157
ag64
ag149
ag353
ag63
ag32
ag281
ag303
ag172
ag217
ag7
ag93
ag235
ag411
ag231
ag176
ag77
ag49
ag488
ag338
ag263
ag105
ag78
ag20
ag226
ag441
ag43
ag178
ag392
ag414
ag113
ag222
ag118
ag17
ag401
ag271
ag325
ag66
ag448
ag195
ag167
ag276
ag229
ag365
ag177
ag110
ag349
ag130
ag192
ag218
asI11
(lp511
g317
ag217
ag342
ag193
ag31
ag453
ag340
ag328
ag171
ag296
ag150
ag478
ag246
ag351
ag95
ag390
ag292
ag257
ag252
ag498
ag66
ag487
ag448
ag375
ag472
ag269
ag187
ag485
ag465
ag404
ag256
ag222
ag88
ag180
ag178
ag337
ag107
ag497
ag366
ag330
ag108
ag395
ag270
ag80
ag238
ag143
ag356
ag280
ag253
ag382
ag503
ag16
ag371
ag331
ag152
ag405
ag341
ag163
ag464
ag244
ag262
ag8
ag225
ag422
ag249
ag352
ag115
ag64
ag68
ag106
ag277
ag42
ag47
ag449
ag74
ag480
ag276
ag247
ag29
ag474
ag410
ag199
ag396
ag124
ag21
ag145
ag419
ag109
ag308
ag234
ag173
ag188
ag243
ag181
ag205
ag38
ag462
ag138
ag182
ag92
ag63
ag164
ag362
ag496
ag392
ag493
ag17
ag455
ag248
ag184
ag354
ag319
ag196
ag357
ag294
ag452
ag373
ag427
ag508
ag71
ag72
ag224
ag216
ag325
ag119
ag83
ag159
ag459
ag494
ag439
ag53
ag297
ag502
ag9
ag28
ag413
ag48
ag19
ag381
ag402
ag214
ag347
ag44
ag78
ag176
ag56
ag377
ag36
ag271
ag460
ag116
ag386
ag416
ag285
ag227
ag283
ag117
ag295
ag387
ag407
ag165
ag14
ag263
ag228
ag468
ag348
ag275
ag168
ag284
ag302
ag418
ag278
ag207
ag70
ag414
ag479
ag298
ag229
ag232
ag320
ag457
ag470
ag40
ag488
ag420
ag335
ag33
ag18
ag99
ag22
ag15
ag200
ag343
ag240
ag160
ag391
ag288
ag326
ag156
ag35
asI12
(lp512
g59
ag82
ag145
ag98
ag338
ag453
ag43
ag488
ag321
ag328
ag72
ag161
ag172
ag451
ag242
ag442
ag368
ag369
ag297
ag10
ag271
ag61
ag84
ag370
ag238
ag355
ag358
ag445
ag70
ag364
ag349
ag60
ag490
aS'http://usbank.com'
p513
ag410
ag34
ag16
ag107
ag93
ag437
ag206
ag432
ag259
ag481
ag414
ag494
ag46
ag153
ag400
ag344
ag415
ag137
ag220
ag101
ag168
ag275
ag479
ag507
ag111
ag469
ag42
ag176
ag190
ag246
ag48
ag332
ag347
ag19
ag50
ag360
ag404
ag421
ag337
ag422
ag99
ag53
ag17
ag304
ag225
ag25
ag205
ag367
ag395
ag289
ag362
ag366
ag388
ag398
ag276
ag430
ag255
ag56
ag455
ag160
ag177
ag461
ag143
ag174
ag463
ag154
ag133
ag67
ag183
ag319
ag102
ag466
ag291
ag68
ag348
ag69
ag372
ag250
ag465
ag252
ag88
ag324
ag167
ag265
ag211
ag417
ag384
ag354
ag378
ag386
ag136
ag506
ag485
ag113
ag450
ag108
ag37
ag149
ag76
ag12
ag173
ag443
ag286
ag474
ag212
ag231
ag320
ag78
ag408
ag322
ag418
ag407
ag475
ag464
ag35
ag385
ag423
ag393
ag86
ag18
ag64
ag396
ag95
ag480
ag317
ag166
ag301
ag510
ag120
ag240
ag80
ag390
ag503
ag440
ag79
ag401
ag65
ag33
ag459
ag258
ag97
ag471
aS'http://gizmodo.com'
p514
ag157
ag323
ag302
ag435
ag134
ag406
ag229
ag138
ag496
ag424
ag352
ag140
ag267
ag350
ag251
ag409
ag13
ag245
ag363
ag492
ag379
ag146
ag357
asI13
(lp515
g360
ag352
ag508
ag132
ag110
ag97
ag285
ag90
ag434
ag219
ag92
ag407
ag298
ag368
ag126
ag103
ag198
ag173
ag265
ag384
ag161
ag301
ag361
ag326
ag414
ag101
ag28
ag187
ag206
ag23
ag480
ag435
ag279
ag351
ag215
ag168
ag155
ag437
ag118
ag450
ag472
ag259
ag305
ag278
ag493
ag408
ag374
ag61
ag113
ag339
ag262
ag52
ag51
ag152
ag254
ag241
ag70
ag309
ag149
ag154
ag133
ag56
ag193
ag141
ag186
ag255
ag381
ag229
ag250
ag304
ag482
ag85
ag422
ag6
ag123
ag513
ag289
ag382
ag46
ag273
ag117
ag483
ag160
ag492
ag122
ag459
ag447
ag417
ag277
ag311
ag200
ag36
ag27
ag458
ag137
ag336
ag251
ag106
ag18
ag438
ag329
ag307
ag334
ag316
ag489
ag216
ag29
ag13
ag138
ag403
ag245
ag59
ag30
ag274
ag104
ag82
ag31
ag418
ag164
ag430
ag281
ag502
ag102
ag263
ag73
ag358
ag43
ag461
ag220
ag348
ag169
ag442
ag67
ag420
ag338
ag474
ag48
ag167
ag395
ag146
ag460
ag238
ag429
ag79
ag468
ag412
ag343
ag393
ag105
ag312
ag266
ag180
ag151
ag280
ag163
ag367
ag93
ag293
ag211
ag256
ag481
ag63
ag17
ag268
ag445
ag35
ag15
ag74
ag242
ag345
ag4
ag378
ag485
ag269
ag365
ag322
ag40
ag427
ag88
ag120
ag127
ag8
ag182
ag66
ag500
ag116
ag83
ag159
ag189
ag314
ag341
ag71
ag356
ag158
ag470
ag299
ag153
ag108
ag147
ag45
asI14
(lp516
g267
ag170
ag445
ag329
ag232
ag435
ag283
ag382
ag8
ag204
ag120
ag244
ag409
ag130
ag356
ag305
ag393
ag17
ag431
ag412
ag480
ag404
ag469
ag12
ag124
ag121
ag246
ag73
ag76
ag192
ag280
ag479
ag117
ag98
ag419
ag351
ag138
ag126
ag143
ag470
ag253
ag388
ag186
ag137
ag206
ag169
ag402
ag461
ag357
ag366
ag69
ag212
ag182
ag504
ag216
ag122
ag183
ag144
ag266
ag281
ag116
ag395
ag450
ag260
ag181
ag59
ag15
ag242
ag87
ag372
ag323
ag42
ag446
ag223
ag320
ag474
ag72
ag383
ag490
ag277
ag213
ag463
ag325
ag3
ag449
ag321
ag471
ag269
ag28
ag24
ag55
ag472
ag365
ag136
ag68
ag346
ag476
ag35
ag276
ag312
ag423
ag160
ag394
ag289
ag360
ag128
ag287
ag375
ag273
ag198
ag345
ag301
ag391
ag171
ag452
ag100
ag208
ag25
ag82
ag11
ag340
ag350
ag23
ag488
ag322
ag115
ag498
ag30
ag489
ag147
ag494
ag14
ag210
ag40
ag97
ag139
ag508
ag219
ag102
ag330
ag234
ag189
ag70
ag324
ag304
ag85
ag252
ag200
ag261
ag271
ag413
ag184
ag50
ag433
ag5
ag256
ag487
ag145
ag343
ag158
ag455
ag235
ag466
ag315
ag428
ag294
ag338
ag370
ag21
ag199
ag347
ag292
ag257
ag296
ag202
ag125
ag318
ag113
ag140
ag416
ag133
ag99
ag438
ag349
ag109
ag514
ag37
ag164
ag152
ag486
ag259
ag134
ag353
ag155
ag503
ag176
ag34
ag367
ag258
ag341
asI15
(lp517
g412
ag38
ag400
ag424
ag37
ag500
ag254
ag183
ag465
ag66
ag213
ag377
ag167
ag220
ag126
ag231
ag355
ag10
ag22
ag333
ag273
ag475
ag125
ag50
ag18
ag212
ag234
ag12
ag95
ag379
ag172
ag110
ag350
ag109
ag253
ag176
ag157
ag381
ag497
ag450
ag173
ag409
ag252
ag422
ag16
ag362
ag376
ag197
ag189
ag244
ag182
ag389
ag45
ag427
ag112
ag134
ag48
ag493
ag328
ag430
ag162
ag256
ag148
ag262
ag310
ag27
ag129
ag483
ag294
ag62
ag270
ag221
ag401
ag135
ag250
ag89
ag278
ag433
ag473
ag367
ag299
ag391
ag370
ag426
ag297
ag20
ag410
ag340
ag439
ag267
ag4
ag229
ag15
ag86
ag394
ag210
ag507
ag508
ag191
ag312
ag429
ag357
ag315
ag24
ag286
ag82
ag488
ag138
ag293
ag54
ag366
ag280
ag471
ag306
ag184
ag57
ag330
ag425
ag207
ag448
ag187
ag290
ag438
ag36
ag11
ag55
ag369
ag479
ag247
ag163
ag331
ag378
ag345
ag100
ag472
ag119
ag314
ag201
ag255
ag153
ag249
ag127
ag292
ag398
ag317
ag155
ag396
ag436
ag178
ag39
ag363
ag295
ag240
ag434
ag405
ag339
ag84
ag108
ag52
ag402
ag440
ag476
ag309
ag13
ag128
ag216
ag78
ag158
ag68
ag40
ag224
ag274
ag70
ag453
ag302
ag338
ag235
ag103
ag246
ag46
ag214
ag283
ag87
ag42
ag69
ag159
ag152
ag329
ag269
ag321
ag489
ag316
ag131
ag51
ag418
ag198
ag56
ag287
ag242
ag437
asI16
(lp518
g122
ag270
ag106
ag427
ag215
ag36
ag354
ag243
ag359
ag454
ag34
ag29
ag469
ag67
ag68
ag402
ag236
ag411
ag86
ag231
ag227
ag10
ag62
ag82
ag161
ag496
ag408
ag176
ag139
ag330
ag281
ag449
ag419
ag326
ag390
ag22
ag366
ag27
ag312
ag347
ag253
ag365
ag197
ag249
ag412
ag78
ag111
ag221
ag266
ag372
ag486
ag269
ag441
ag165
ag493
ag168
ag313
ag154
ag503
ag143
ag422
ag81
ag417
ag147
ag167
ag333
ag92
ag460
ag60
ag71
ag332
ag271
ag317
ag476
ag298
ag120
ag217
ag464
ag96
ag348
ag118
ag112
ag510
ag429
ag70
ag406
ag259
ag213
ag453
ag283
ag424
ag470
ag239
ag371
ag174
ag318
ag514
ag494
ag502
ag207
ag104
ag244
ag48
ag186
ag295
ag124
ag361
ag196
ag194
ag59
ag403
ag392
ag46
ag241
ag385
ag164
ag151
ag443
ag492
ag7
ag383
ag346
ag3
ag206
ag445
ag131
ag58
ag434
ag301
ag355
ag507
ag357
ag125
ag130
ag311
ag248
ag178
ag171
ag187
ag314
ag212
ag205
ag127
ag439
ag309
ag480
ag350
ag144
ag135
ag287
ag257
ag499
ag275
ag475
ag19
ag57
ag84
ag336
ag109
ag4
ag209
ag180
ag488
ag53
ag395
ag458
ag398
ag431
ag105
ag302
ag310
ag150
ag304
ag242
ag88
ag384
ag157
ag26
ag149
ag20
ag224
ag114
ag234
ag360
ag195
ag362
ag375
ag273
ag93
ag169
ag255
ag42
ag339
ag202
ag240
ag256
ag513
ag66
ag299
ag373
asI17
(lp519
g323
ag167
ag450
ag194
ag452
ag340
ag257
ag429
ag67
ag300
ag438
ag389
ag360
ag123
ag331
ag54
ag76
ag68
ag21
ag471
ag410
ag406
ag281
ag408
ag83
ag443
ag273
ag350
ag348
ag34
ag506
ag210
ag214
ag303
ag285
ag492
ag256
ag491
ag60
ag59
ag130
ag432
ag494
ag365
ag133
ag425
ag115
ag145
ag213
ag72
ag87
ag390
ag162
ag39
ag258
ag209
ag338
ag422
ag78
ag292
ag71
ag367
ag89
ag355
ag165
ag439
ag134
ag223
ag280
ag168
ag106
ag231
ag120
ag504
ag419
ag121
ag382
ag33
ag233
ag22
ag474
ag217
ag200
ag306
ag500
ag118
ag55
ag294
ag129
ag361
ag313
ag111
ag132
ag178
ag181
ag479
ag175
ag27
ag135
ag510
ag35
ag334
ag353
ag239
ag420
ag468
ag173
ag437
ag202
ag122
ag393
ag345
ag415
ag177
ag409
ag77
ag414
ag405
ag402
ag211
ag362
ag218
ag19
ag152
ag29
ag359
ag263
ag13
ag377
ag366
ag251
ag23
ag30
ag270
ag119
ag459
ag230
ag470
ag95
ag10
ag56
ag363
ag502
ag116
ag458
ag237
ag94
ag91
ag265
ag158
ag333
ag197
ag6
ag284
ag163
ag282
ag447
ag376
ag176
ag424
ag117
ag477
ag185
ag161
ag344
ag277
ag341
ag204
ag475
ag196
ag7
ag183
ag391
ag5
ag96
ag146
ag38
ag141
ag266
ag384
ag364
ag411
ag417
ag486
ag314
ag244
ag373
ag449
ag25
ag399
ag63
ag93
ag155
ag371
ag65
ag508
ag357
ag126
ag32
ag216
asI18
(lp520
g62
ag290
ag217
ag316
ag373
ag504
ag274
ag140
ag325
ag170
ag380
ag216
ag508
ag245
ag460
ag268
ag159
ag198
ag156
ag141
ag507
ag11
ag404
ag490
ag499
ag458
ag471
ag412
ag101
ag492
ag416
ag257
ag161
ag191
ag253
ag138
ag186
ag103
ag317
ag25
ag498
ag29
ag382
ag230
ag322
ag60
ag104
ag465
ag398
ag96
ag399
ag225
ag74
ag481
ag174
ag207
ag200
ag415
ag459
ag301
ag284
ag19
ag396
ag470
ag418
ag31
ag358
ag183
ag34
ag310
ag258
ag91
ag282
ag433
ag442
ag210
ag224
ag226
ag342
ag430
ag58
ag299
ag27
ag190
ag306
ag177
ag503
ag243
ag285
ag114
ag3
ag246
ag323
ag240
ag368
ag154
ag67
ag36
ag64
ag340
ag401
ag265
ag139
ag199
ag370
ag134
ag362
ag372
ag483
ag280
ag197
ag456
ag286
ag281
ag345
ag443
ag473
ag22
ag264
ag146
ag296
ag252
ag425
ag292
ag178
ag76
ag227
ag89
ag278
ag452
ag87
ag273
ag432
ag354
ag220
ag30
ag431
ag297
ag333
ag363
ag262
ag239
ag85
ag95
ag254
ag427
ag369
ag8
ag105
ag98
ag450
ag312
ag65
ag413
ag367
ag59
ag53
ag394
ag455
ag9
ag184
ag175
ag163
ag142
ag346
ag135
ag102
ag84
ag393
ag347
ag311
ag204
ag111
ag256
ag176
ag213
ag33
ag479
ag100
ag108
ag120
ag47
ag436
ag81
ag39
ag277
ag249
ag149
ag214
ag124
ag422
ag110
ag440
ag389
ag173
ag49
ag233
ag77
ag270
ag153
asI19
(lp521
g155
ag141
ag366
ag96
ag252
ag171
ag137
ag129
ag410
ag261
ag124
ag279
ag86
ag49
ag396
ag226
ag296
ag193
ag310
ag406
ag290
ag381
ag84
ag254
ag61
ag247
ag421
ag430
ag497
ag440
ag468
ag275
ag44
ag217
ag115
ag452
ag474
ag432
ag451
ag299
ag306
ag153
ag370
ag50
ag43
ag250
ag378
ag314
ag230
ag394
ag391
ag292
ag201
ag154
ag164
ag488
ag89
ag412
ag379
ag348
ag456
ag419
ag168
ag415
ag90
ag15
ag36
ag17
ag194
ag195
ag507
ag422
ag352
ag356
ag350
ag458
ag114
ag514
ag27
ag55
ag249
ag59
ag265
ag132
ag358
ag463
ag418
ag414
ag204
ag259
ag459
ag362
ag251
ag172
ag150
ag237
ag9
ag187
ag373
ag335
ag245
ag5
ag300
ag244
ag284
ag264
ag64
ag405
ag322
ag134
ag149
ag47
ag121
ag267
ag354
ag128
ag57
ag197
ag311
ag24
ag500
ag167
ag38
ag178
ag152
ag273
ag21
ag295
ag494
ag104
ag423
ag297
ag169
ag337
ag385
ag382
ag442
ag66
ag258
ag402
ag302
ag18
ag260
ag30
ag207
ag363
ag212
ag218
ag266
ag498
ag326
ag487
ag186
ag420
ag80
ag364
ag384
ag166
ag441
ag41
ag469
ag238
ag399
ag229
ag277
ag465
ag54
ag135
ag347
ag22
ag113
ag328
ag185
ag403
ag283
ag67
ag40
ag351
ag53
ag175
ag433
ag97
ag425
ag291
ag365
ag7
ag427
ag334
ag223
ag211
ag287
ag510
ag301
ag92
ag69
ag461
ag372
ag446
ag411
ag29
asI20
(lp522
g367
ag90
ag47
ag142
ag329
ag379
ag503
ag46
ag94
ag269
ag70
ag485
ag84
ag135
ag412
ag483
ag73
ag255
ag208
ag384
ag26
ag124
ag507
ag433
ag177
ag247
ag273
ag126
ag214
ag228
ag250
ag210
ag151
ag422
ag428
ag44
ag334
ag227
ag155
ag200
ag383
ag74
ag404
ag320
ag235
ag401
ag456
ag172
ag164
ag347
ag291
ag89
ag421
ag441
ag6
ag369
ag306
ag491
ag251
ag171
ag277
ag62
ag350
ag297
ag106
ag207
ag137
ag244
ag318
ag284
ag109
ag129
ag282
ag385
ag190
ag339
ag500
ag285
ag436
ag98
ag451
ag4
ag287
ag59
ag488
ag435
ag249
ag342
ag105
ag425
ag490
ag438
ag267
ag504
ag392
ag352
ag175
ag33
ag64
ag182
ag430
ag41
ag307
ag262
ag419
ag416
ag148
ag406
ag260
ag499
ag496
ag91
ag313
ag40
ag36
ag198
ag133
ag17
ag195
ag371
ag513
ag69
ag78
ag120
ag238
ag174
ag110
ag475
ag7
ag180
ag217
ag197
ag219
ag290
ag216
ag24
ag316
ag199
ag281
ag466
ag357
ag434
ag31
ag314
ag374
ag288
ag37
ag257
ag333
ag411
ag410
ag370
ag154
ag393
ag95
ag225
ag50
ag332
ag77
ag205
ag220
ag286
ag122
ag12
ag454
ag163
ag402
ag71
ag295
ag239
ag377
ag459
ag398
ag160
ag381
ag258
ag34
ag67
ag237
ag185
ag21
ag19
ag461
ag213
ag11
ag259
ag204
ag271
ag223
ag388
ag473
ag58
ag346
ag340
ag202
ag132
ag414
ag140
ag222
ag27
asI21
(lp523
g338
ag67
ag426
ag393
ag115
ag269
ag65
ag243
ag326
ag275
ag272
ag436
ag372
ag104
ag510
ag452
ag353
ag97
ag180
ag308
ag225
ag200
ag305
ag63
ag503
ag499
ag442
ag280
ag246
ag457
ag92
ag139
ag194
ag147
ag277
ag255
ag263
ag476
ag51
ag447
ag265
ag154
ag489
ag276
ag89
ag355
ag381
ag100
ag172
ag244
ag256
ag398
ag161
ag427
ag345
ag185
ag428
ag223
ag274
ag7
ag498
ag94
ag290
ag182
ag209
ag404
ag347
ag79
ag59
ag205
ag357
ag215
ag54
ag114
ag193
ag108
ag43
ag279
ag354
ag39
ag99
ag456
ag254
ag145
ag133
ag196
ag11
ag21
ag101
ag151
ag491
ag80
ag239
ag156
ag260
ag281
ag163
ag26
ag186
ag284
ag221
ag331
ag242
ag240
ag502
ag342
ag16
ag406
ag407
ag278
ag287
ag303
ag49
ag189
ag126
ag248
ag124
ag168
ag190
ag81
ag17
ag448
ag374
ag211
ag504
ag334
ag60
ag164
ag458
ag316
ag41
ag93
ag351
ag237
ag235
ag343
ag12
ag58
ag471
ag88
ag443
ag302
ag217
ag481
ag224
ag138
ag245
ag324
ag241
ag365
ag321
ag392
ag179
ag158
ag82
ag208
ag449
ag412
ag424
ag411
ag216
ag40
ag105
ag264
ag250
ag27
ag123
ag419
ag106
ag352
ag207
ag166
ag47
ag266
ag33
ag188
ag346
ag478
ag296
ag320
ag78
ag319
ag514
ag262
ag468
ag482
ag195
ag184
ag384
ag317
ag422
ag304
ag337
ag69
ag364
ag368
ag142
ag3
ag402
ag494
asI22
(lp524
g404
ag278
ag269
ag472
ag90
ag377
ag316
ag14
ag213
ag169
ag255
ag67
ag466
ag318
ag414
ag147
ag98
ag36
ag82
ag115
ag8
ag12
ag426
ag288
ag246
ag411
ag430
ag313
ag119
ag443
ag41
ag151
ag252
ag83
ag369
ag138
ag191
ag167
ag43
ag232
ag355
ag143
ag442
ag136
ag457
ag55
ag381
ag172
ag348
ag407
ag273
ag479
ag5
ag420
ag211
ag221
ag226
ag331
ag145
ag364
ag493
ag453
ag132
ag102
ag231
ag296
ag60
ag148
ag263
ag297
ag228
ag196
ag215
ag482
ag105
ag339
ag335
ag387
ag74
ag152
ag325
ag320
ag163
ag295
ag328
ag415
ag389
ag18
ag198
ag304
ag112
ag427
ag345
ag347
ag429
ag99
ag175
ag503
ag109
ag279
ag494
ag272
ag350
ag123
ag193
ag375
ag300
ag166
ag451
ag305
ag454
ag72
ag116
ag177
ag243
ag225
ag222
ag497
ag371
ag253
ag35
ag260
ag298
ag65
ag204
ag44
ag28
ag26
ag59
ag220
ag195
ag95
ag113
ag199
ag408
ag77
ag262
ag386
ag440
ag485
ag382
ag373
ag144
ag168
ag257
ag111
ag391
ag341
ag261
ag384
ag383
ag179
ag435
ag159
ag372
ag118
ag173
ag338
ag462
ag45
ag432
ag108
ag446
ag403
ag48
ag13
ag258
ag146
ag39
ag17
ag78
ag107
ag64
ag362
ag23
ag449
ag4
ag16
ag187
ag125
ag266
ag481
ag85
ag242
ag390
ag235
ag379
ag197
ag53
ag323
ag508
ag506
ag356
ag489
ag439
ag343
ag352
ag161
ag38
ag294
asI23
(lp525
g441
ag144
ag291
ag125
ag452
ag315
ag438
ag308
ag136
ag342
ag306
ag439
ag270
ag47
ag282
ag159
ag23
ag226
ag139
ag449
ag201
ag224
ag461
ag110
ag412
ag415
ag475
ag154
ag477
ag265
ag494
ag149
ag492
ag170
ag186
ag69
ag258
ag337
ag379
ag419
ag131
ag252
ag284
ag181
ag352
ag102
ag31
ag88
ag89
ag429
ag465
ag51
ag346
ag322
ag146
ag208
ag237
ag479
ag148
ag213
ag440
ag312
ag239
ag413
ag326
ag405
ag451
ag91
ag357
ag184
ag275
ag78
ag260
ag85
ag256
ag167
ag376
ag56
ag217
ag354
ag456
ag14
ag19
ag74
ag259
ag84
ag489
ag243
ag175
ag153
ag268
ag80
ag64
ag513
ag366
ag207
ag101
ag442
ag279
ag13
ag48
ag263
ag223
ag97
ag135
ag106
ag309
ag502
ag430
ag229
ag498
ag156
ag171
ag254
ag331
ag54
ag22
ag241
ag53
ag118
ag417
ag404
ag253
ag323
ag127
ag396
ag423
ag416
ag349
ag185
ag41
ag103
ag250
ag466
ag510
ag285
ag119
ag161
ag503
ag316
ag138
ag165
ag333
ag383
ag393
ag202
ag363
ag311
ag344
ag276
ag187
ag448
ag324
ag469
ag218
ag162
ag483
ag77
ag264
ag491
ag173
ag332
ag310
ag20
ag71
ag209
ag145
ag481
ag133
ag401
ag115
ag58
ag299
ag79
ag61
ag382
ag373
ag93
ag274
ag292
ag168
ag286
ag220
ag420
ag29
ag356
ag295
ag49
ag434
ag445
ag459
ag424
ag319
ag172
ag105
ag42
ag487
ag123
ag219
ag468
asI24
(lp526
g366
ag192
ag392
ag35
ag151
ag498
ag48
ag170
ag413
ag261
ag466
ag211
ag47
ag294
ag336
ag409
ag384
ag468
ag446
ag370
ag346
ag339
ag311
ag69
ag204
ag244
ag176
ag34
ag175
ag7
ag18
ag189
ag19
ag344
ag450
ag297
ag83
ag385
ag270
ag452
ag174
ag21
ag101
ag217
ag411
ag404
ag260
ag470
ag40
ag77
ag406
ag152
ag166
ag59
ag439
ag499
ag361
ag42
ag358
ag230
ag178
ag228
ag172
ag492
ag25
ag17
ag147
ag235
ag345
ag155
ag92
ag120
ag465
ag241
ag374
ag84
ag106
ag201
ag328
ag427
ag55
ag132
ag391
ag3
ag127
ag237
ag510
ag212
ag451
ag133
ag50
ag108
ag142
ag27
ag485
ag284
ag128
ag331
ag480
ag191
ag234
ag93
ag477
ag448
ag200
ag377
ag86
ag268
ag139
ag449
ag73
ag32
ag153
ag248
ag116
ag403
ag179
ag263
ag376
ag143
ag422
ag318
ag76
ag274
ag355
ag482
ag275
ag494
ag286
ag100
ag123
ag296
ag454
ag332
ag242
ag316
ag388
ag334
ag6
ag373
ag375
ag134
ag445
ag107
ag29
ag223
ag351
ag440
ag281
ag247
ag202
ag71
ag428
ag90
ag425
ag272
ag79
ag306
ag335
ag140
ag221
ag338
ag462
ag401
ag447
ag96
ag340
ag220
ag319
ag15
ag379
ag162
ag53
ag20
ag367
ag310
ag382
ag356
ag353
ag115
ag38
ag103
ag173
ag326
ag303
ag301
ag441
ag122
ag22
ag513
ag206
ag320
ag68
ag300
ag402
ag26
ag453
ag157
ag322
ag64
as.