(dp1
I0
(lp2
S'http://go.com'
p3
aS'http://littlewoodsireland.ie'
p4
aS'http://ulsterbankanytimebanking.ie'
p5
aS'http://projekt95.net'
p6
aS'http://vistaprint.ie'
p7
aS'http://pinterest.com'
p8
aS'http://pornhub.com'
p9
aS'http://escort-ireland.com'
p10
aS'http://quora.com'
p11
aS'http://grabone.ie'
p12
aS'http://google.co.hu'
p13
aS'http://torrentday.com'
p14
aS'http://worldpay.com'
p15
aS'http://worlddaily.com'
p16
aS'http://diply.com'
p17
aS'http://swing4ireland.com'
p18
aS'http://independent.co.uk'
p19
aS'http://harveynorman.ie'
p20
aS'http://upc.ie'
p21
aS'http://aib.ie'
p22
aS'http://ladbrokes.com'
p23
aS'http://wikihow.com'
p24
aS'http://gazeta.ie'
p25
aS'http://yelp.ie'
p26
aS'http://bodybuilding.com'
p27
aS'http://iflscience.com'
p28
aS'http://travelrepublic.ie'
p29
aS'http://asos.com'
p30
aS'http://secureserver.net'
p31
aS'http://youporn.com'
p32
aS'http://mashable.com'
p33
aS'http://hubspot.com'
p34
aS'http://wix.com'
p35
aS'http://huffingtonpost.com'
p36
aS'http://xnxx.com'
p37
aS'http://kulfoto.com'
p38
aS'http://myfitnesspal.com'
p39
aS'http://binarypilot.co'
p40
aS'http://recruitireland.com'
p41
aS'http://wp.pl'
p42
aS'http://three.ie'
p43
aS'http://se.pl'
p44
aS'http://watchfreemovies.ch'
p45
aS'http://constantcontact.com'
p46
aS'http://w3schools.com'
p47
aS'http://wsj.com'
p48
aS'http://amway.ie'
p49
aS'http://torcache.net'
p50
aS'http://menupages.ie'
p51
aS'http://tube8.com'
p52
aS'http://wikipedia.org'
p53
aS'http://jobvite.com'
p54
aS'http://issuu.com'
p55
aS'http://irishrail.ie'
p56
aS'http://faithtap.com'
p57
aS'http://softonic.com'
p58
aS'http://givemesport.com'
p59
aS'http://o2online.ie'
p60
aS'http://woothemes.com'
p61
aS'http://donedeal.ie'
p62
aS'http://booking.com'
p63
aS'http://instagram.com'
p64
aS'http://tickld.com'
p65
aS'http://addthis.com'
p66
aS'http://betfred.com'
p67
aS'http://theladbible.com'
p68
aS'http://googleusercontent.com'
p69
aS'http://xe.com'
p70
aS'http://glamourdaze.com'
p71
aS'http://squidoo.com'
p72
aS'http://lidl.ie'
p73
aS'http://duckduckgo.com'
p74
aS'http://avvio.com'
p75
aS'http://motherless.com'
p76
aS'http://her.ie'
p77
aS'http://jvzoo.com'
p78
aS'http://videomega.tv'
p79
aS'http://akamaihd.net'
p80
aS'http://amazonaws.com'
p81
aS'http://classifiedsgiant.com'
p82
aS'http://ebay.co.uk'
p83
aS'http://dell.com'
p84
aS'http://zazzle.com'
p85
aS'http://putlocker.is'
p86
aS'http://reddit.com'
p87
aS'http://betoftheday.eu'
p88
aS'http://yts.re'
p89
aS'http://casino.com'
p90
aS'http://sitesell.com'
p91
aS'http://t.co'
p92
aS'http://ebay.com'
p93
aS'http://dublinairport.com'
p94
aS'http://theguardian.com'
p95
aS'http://ask.com'
p96
aS'http://ros.ie'
p97
aS'http://collegetimes.com'
p98
aS'http://yandex.ru'
p99
aS'http://clkmon.com'
p100
aS'http://google.it'
p101
aS'http://outlook.com'
p102
aS'http://ucc.ie'
p103
aS'http://fiverr.com'
p104
aS'http://rt.com'
p105
aS'http://bing.com'
p106
aS'http://ysear.ch'
p107
aS'http://speedtest.net'
p108
aS'http://theinstantprofitmethod.com'
p109
aS'http://techdata.com'
p110
aS'http://about.com'
p111
aS'http://thechive.com'
p112
aS'http://ralawise.com'
p113
aS'http://chess.com'
p114
aS'http://zendesk.com'
p115
aS'http://adcash.com'
p116
aS'http://craigslist.org'
p117
aS'http://realex.ie'
p118
aS'http://yahoo.com'
p119
aS'http://onefabday.com'
p120
aS'http://siasat.pk'
p121
aS'http://dailyindianherald.com'
p122
aS'http://academyft.com'
p123
aS'http://ikea.com'
p124
aS'http://rip.ie'
p125
aS'http://odnoklassniki.ru'
p126
aS'http://paddypower.com'
p127
aS'http://codecanyon.net'
p128
aS'http://thejournal.ie'
p129
aS'http://files.wordpress.com'
p130
aS'http://statcounter.com'
p131
aS'http://live.com'
p132
aS'http://airbnb.ie'
p133
aS'http://summitdublin.com'
p134
aS'http://pixnet.net'
p135
aS'http://fifa.com'
p136
aS'http://blogger.com'
p137
aS'http://directrev.com'
p138
aS'http://time.com'
p139
aS'http://goldenpages.ie'
p140
aS'http://tesco.ie'
p141
aS'http://mail.ru'
p142
aS'http://rte.ie'
p143
aS'http://slideshare.net'
p144
aS'http://logmein.com'
p145
aS'http://google.ru'
p146
aS'http://solimerick.com'
p147
aS'http://surveymonkey.com'
p148
aS'http://bitly.com'
p149
aS'http://trivago.ie'
p150
aS'http://alibaba.com'
p151
aS'http://marunadanmalayali.com'
p152
aS'http://irishcentral.com'
p153
aS'http://meetup.com'
p154
aS'http://ehow.com'
p155
aS'http://solocheck.ie'
p156
aS'http://php.net'
p157
aS'http://888casino.com'
p158
aS'http://lego.com'
p159
aS'http://movie4k.to'
p160
aS'http://istockphoto.com'
p161
aS'http://m2newmedia.com'
p162
aS'http://welfare.ie'
p163
aS'http://livingsocial.com'
p164
aS'http://lookbook.nu'
p165
aS'http://dailymail.co.uk'
p166
aS'http://lovindublin.com'
p167
aS'http://youtube.com'
p168
aS'http://mysql.com'
p169
aS'http://amazon.co.uk'
p170
aS'http://blacknight.com'
p171
aS'http://waterfordwhispersnews.com'
p172
aS'http://shawacademy.com'
p173
aS'http://jobs.ie'
p174
aS'http://badoo.com'
p175
aS'http://entertainment.ie'
p176
aS'http://soundcloud.com'
p177
aS'http://reuters.com'
p178
aS'http://dunnesstores.com'
p179
aS'http://politics.ie'
p180
aS'http://gorillavid.in'
p181
aS'http://b5m.com'
p182
aS'http://twitter.com'
p183
aS'http://siliconrepublic.com'
p184
aS'http://vodafone.ie'
p185
aS'http://tripadvisor.ie'
p186
aS'http://phonecases.ie'
p187
aS'http://football365.com'
p188
aS'http://neogaf.com'
p189
aS'http://mozzi.com'
p190
aS'http://gameforge.com'
p191
aS'http://blogspot.com'
p192
aS'http://flickr.com'
p193
aS'http://webmd.com'
p194
aS'http://argos.ie'
p195
aS'http://vk.com'
p196
aS'http://ulsterbank.ie'
p197
aS'http://iedepot.ie'
p198
aS'http://wiocha.pl'
p199
aS'http://metro.co.uk'
p200
aS'http://flyaerlingus.com'
p201
aS'http://tv3.ie'
p202
asI1
(lp203
S'http://dominos.ie'
p204
aS'http://draugiem.lv'
p205
ag11
aS'http://outbrain.com'
p206
aS'http://gfycat.com'
p207
aS'http://torrent.ai'
p208
aS'http://shopify.com'
p209
aS'http://interia.pl'
p210
ag14
ag200
ag94
aS'http://monster.ie'
p211
aS'http://apple.com'
p212
aS'http://globo.com'
p213
ag23
ag142
ag39
aS'http://letshostbilling.com'
p214
aS'http://aweber.com'
p215
aS'http://thesun.co.uk'
p216
aS'http://buseireann.ie'
p217
aS'http://avg.com'
p218
aS'http://bbc.com'
p219
ag30
aS'http://wykop.pl'
p220
aS'http://sdc.com'
p221
aS'http://dropbox.com'
p222
ag98
aS'http://warriorforum.com'
p223
aS'http://anpost.ie'
p224
ag179
aS'http://katproxy.com'
p225
ag190
aS'http://linkedin.com'
p226
aS'http://odesk.com'
p227
aS'http://shareasale.com'
p228
aS'http://chainreactioncycles.com'
p229
aS'http://hse.ie'
p230
aS'http://cj.com'
p231
aS'http://list-manage.com'
p232
ag189
aS'http://goodreads.com'
p233
aS'http://irishjobs.ie'
p234
ag6
ag103
aS'http://upworthy.com'
p235
ag85
ag122
aS'http://bbc.co.uk'
p236
aS'http://watch32.com'
p237
aS'http://google.ie'
p238
aS'http://cnet.com'
p239
aS'http://tumblr.com'
p240
aS'http://force.com'
p241
ag13
aS'http://goldenplec.com'
p242
ag99
aS'http://torrentz.eu'
p243
aS'http://adobe.com'
p244
aS'http://bet365.com'
p245
aS'http://letshost.ie'
p246
aS'http://xhamster.com'
p247
ag79
aS'http://vube.com'
p248
ag45
ag151
aS'http://cashbackforex.com'
p249
aS'http://marksandspencer.ie'
p250
ag70
aS'http://marca.com'
p251
aS'http://disqus.com'
p252
aS'http://glassdoor.com'
p253
aS'http://photobucket.com'
p254
aS'http://mailchimp.com'
p255
aS'http://skybet.com'
p256
ag59
aS'http://hootsuite.com'
p257
aS'http://onclickads.net'
p258
aS'http://taboola.com'
p259
aS'http://citizensinformation.ie'
p260
ag9
aS'http://mail.com'
p261
aS'http://freelotto.com'
p262
aS'http://pcworld.ie'
p263
aS'http://hespress.com'
p264
ag143
aS'http://inbox.lv'
p265
aS'http://espnfc.com'
p266
ag114
aS'http://backstraitbizops.com'
p267
ag66
ag86
aS'http://rtbpop.com'
p268
ag34
ag110
ag174
ag115
aS'http://hstpnetwork.com'
p269
aS'http://racingpost.com'
p270
aS'http://samsung.com'
p271
aS'http://kickass.to'
p272
aS'http://mozilla.org'
p273
aS'http://breakingnews.ie'
p274
aS'http://newstalk.ie'
p275
aS'http://askaboutmoney.com'
p276
aS'http://google.com'
p277
aS'http://bp.blogspot.com'
p278
ag40
aS'http://palma-sport.com'
p279
aS'http://businessinsider.com'
p280
aS'http://ucd.ie'
p281
aS'http://wordreference.com'
p282
ag67
aS'http://pof.com'
p283
aS'http://microsoft.com'
p284
ag154
ag148
ag121
aS'http://baidu.com'
p285
aS'http://paypal.com'
p286
aS'http://google.es'
p287
aS'http://cas.sk'
p288
aS'http://6park.com'
p289
aS'http://github.com'
p290
aS'http://googleplex.com'
p291
ag152
ag53
aS'http://canadaalltax.com'
p292
ag38
aS'http://tz4.com'
p293
aS'http://allsopspace.ie'
p294
aS'http://twitch.tv'
p295
ag51
aS'http://hotels.com'
p296
ag158
aS'http://moz.com'
p297
ag76
aS'http://petflow.com'
p298
aS'http://wikia.com'
p299
aS'http://aldi.ie'
p300
aS'http://forthefainthearted.com'
p301
aS'http://box.com'
p302
aS'http://getresponse.com'
p303
aS'http://foot.ie'
p304
aS'http://register365.com'
p305
aS'http://facebook.com'
p306
aS'http://olbg.com'
p307
ag196
ag172
ag102
ag48
ag156
ag25
ag186
aS'http://elance.com'
p308
ag29
aS'http://open24.ie'
p309
ag27
ag8
aS'http://conduit.com'
p310
ag126
aS'http://nytimes.com'
p311
ag112
aS'http://dublincity.ie'
p312
aS'http://google.co.uk'
p313
aS'http://o2.pl'
p314
ag140
aS'http://dnsireland.com'
p315
ag62
ag3
aS'http://domaintools.com'
p316
ag47
aS'http://accuweather.com'
p317
ag73
ag46
ag199
ag185
aS'http://themeforest.net'
p318
ag188
ag162
aS'http://carzone.ie'
p319
ag138
aS'http://ticketmaster.ie'
p320
aS'http://google.lt'
p321
ag10
aS'http://pirateproxy.in'
p322
aS'http://msn.com'
p323
aS'http://gaydar.net'
p324
aS'http://autotrader.co.uk'
p325
ag17
ag80
aS'http://binpilot.net'
p326
aS'http://soccerway.com'
p327
ag105
aS'http://godaddy.com'
p328
ag87
aS'http://weebly.com'
p329
aS'http://48months.ie'
p330
aS'http://europa.eu'
p331
aS'http://xdating.com'
p332
asI2
(lp333
g270
aS'http://sundayworld.com'
p334
ag122
ag80
ag117
ag88
ag146
ag221
aS'http://ft.com'
p335
ag222
ag6
ag50
aS'http://yr.no'
p336
ag93
ag281
ag236
aS'http://gazeta.pl'
p337
aS'http://sourceforge.net'
p338
ag91
ag174
aS'http://likes.com'
p339
ag90
aS'http://stumbleupon.com'
p340
aS'http://dit.ie'
p341
ag201
aS'http://gmail.com'
p342
ag115
ag19
aS'http://google.fr'
p343
aS'http://boards.ie'
p344
aS'http://batoto.net'
p345
ag143
aS'http://daft.ie'
p346
ag55
ag194
ag133
aS'http://popads.net'
p347
ag223
ag286
ag64
ag285
ag147
aS'http://polutionews.com'
p348
ag58
aS'http://gaa.ie'
p349
ag17
ag272
ag178
ag128
ag57
ag258
aS'http://skype.com'
p350
aS'http://techcrunch.com'
p351
ag213
ag242
ag302
ag7
ag54
aS'http://wordpress.com'
p352
ag322
ag298
ag159
ag152
aS'http://joe.ie'
p353
aS'http://skyscanner.ie'
p354
ag292
ag284
ag185
ag232
ag204
ag245
aS'http://proptp.net'
p355
aS'http://leadpages.net'
p356
ag78
ag282
aS'http://xvideos.com'
p357
aS'http://allegro.pl'
p358
aS'http://redtube.com'
p359
aS'http://feedly.com'
p360
ag297
ag241
aS'http://clickbank.com'
p361
aS'http://eircom.net'
p362
ag81
ag144
ag210
aS'http://airtricity.com'
p363
ag136
aS'http://neobux.com'
p364
ag124
ag11
ag263
ag186
ag260
ag142
aS'http://extratorrent.cc'
p365
ag290
ag29
ag326
ag104
aS'http://imdb.com'
p366
ag217
ag43
aS'http://gotomeeting.com'
p367
ag197
ag37
ag149
ag61
aS'http://redcafe.net'
p368
ag234
ag169
aS'http://irishtimes.com'
p369
aS'http://balls.ie'
p370
ag85
ag247
ag177
aS'http://365online.com'
p371
ag12
ag167
ag205
aS'http://manoramaonline.com'
p372
aS'http://arcot.com'
p373
aS'http://deviantart.com'
p374
ag215
aS'http://salesforce.com'
p375
ag45
ag53
aS'http://primewire.ag'
p376
ag25
ag193
ag182
ag180
ag271
ag42
aS'http://tescomobile.ie'
p377
ag40
ag48
ag183
ag310
aS'http://bestblackhatforum.com'
p378
ag316
ag13
aS'http://expedia.ie'
p379
ag123
aS'http://independent.ie'
p380
ag100
aS'http://cnn.com'
p381
ag253
ag35
aS'http://optiweb.ie'
p382
ag3
ag280
ag191
ag296
ag248
aS'http://livejasmin.com'
p383
ag9
aS'http://stackexchange.com'
p384
ag226
ag209
ag120
aS'http://tcd.ie'
p385
ag106
ag283
ag269
ag225
aS'http://liverpoolfc.com'
p386
aS'http://archive.org'
p387
aS'http://segnorasque.com'
p388
aS'http://rent.ie'
p389
ag72
ag267
ag150
ag156
ag87
aS'http://netflix.com'
p390
aS'http://adroll.com'
p391
ag192
ag279
ag288
aS'http://inbox.com'
p392
ag289
aS'http://dailymotion.com'
p393
aS'http://winfxstrategy.com'
p394
ag200
aS'http://watchseries.to'
p395
aS'http://solarmovie.tl'
p396
ag60
ag44
aS'http://mirror.co.uk'
p397
ag33
aS'http://indeed.com'
p398
aS'http://hp.com'
p399
aS'http://irishmalayali.com'
p400
ag98
ag111
aS'http://plarium.com'
p401
aS'http://watchcartoononline.com'
p402
ag125
aS'http://buzzfeed.com'
p403
asI3
(lp404
S'http://thefreedictionary.com'
p405
ag189
ag101
ag186
ag380
ag34
ag234
aS'http://stackoverflow.com'
p406
ag197
ag258
ag251
ag235
ag278
ag291
ag16
ag106
ag211
ag28
aS'http://gizmodo.com'
p407
aS'http://eventbrite.ie'
p408
ag22
ag363
ag200
ag259
ag371
ag127
aS'http://reference.com'
p409
ag91
aS'http://groupon.ie'
p410
ag15
aS'http://citrixonline.com'
p411
aS'http://ebay.ie'
p412
ag267
ag199
ag373
ag352
ag340
ag369
ag331
ag111
ag165
ag311
ag281
ag372
ag156
ag241
ag43
ag149
ag304
aS'http://siteground.com'
p413
ag335
ag57
ag131
ag314
ag270
ag6
ag134
ag395
ag37
ag79
aS'http://trovi.com'
p414
aS'http://rottentomatoes.com'
p415
ag385
ag330
ag10
aS'http://oddschecker.com'
p416
ag26
ag67
ag210
ag219
ag181
aS'http://amazon.com'
p417
ag135
ag61
ag317
aS'http://thefreecamsecret.com'
p418
ag248
ag110
ag137
ag198
ag4
aS'http://todayfm.com'
p419
ag399
ag12
ag321
aS'http://emeraz.com'
p420
ag86
ag115
ag72
aS'http://aliexpress.com'
p421
ag114
ag344
ag292
ag350
ag25
aS'http://forbes.com'
p422
ag343
aS'http://revenue.ie'
p423
ag376
ag374
ag63
ag194
aS'http://hotpress.com'
p424
ag202
ag126
aS'http://wordpress.org'
p425
ag357
aS'http://motortax.ie'
p426
ag116
ag133
ag228
ag188
aS'http://joemonster.org'
p427
ag33
ag124
ag20
ag21
aS'http://fabswingers.com'
p428
ag18
aS'http://google.pl'
p429
ag3
ag297
aS'http://shutterstock.com'
p430
aS'http://met.ie'
p431
ag285
ag332
ag68
aS'http://meteor.ie'
p432
ag5
ag31
aS'http://bankofireland.ie'
p433
ag145
ag213
ag87
ag256
ag250
ag231
ag180
ag161
ag98
ag24
ag268
ag130
aS'http://brsgolf.com'
p434
ag359
ag398
ag27
aS'http://property.ie'
p435
ag78
aS'http://cro.ie'
p436
aS'http://totelfootball.com'
p437
ag173
ag50
ag276
ag310
ag71
ag158
ag326
ag14
ag394
ag176
ag76
aS'http://peopleperhour.com'
p438
ag97
ag274
ag171
ag225
aS'http://gumtree.ie'
p439
ag353
ag279
ag138
aS'http://ancestry.co.uk'
p440
ag260
aS'http://imgur.com'
p441
ag136
ag403
ag105
aS'http://myhome.ie'
p442
ag226
ag324
ag307
ag315
ag265
ag96
ag153
aS'http://rightmove.co.uk'
p443
ag102
ag336
ag391
ag209
ag9
ag104
ag354
ag112
ag75
ag318
ag73
aS'http://weddingsonline.ie'
p444
ag269
ag282
asI4
(lp445
g119
ag169
aS'http://microsoftonline.com'
p446
ag378
aS'http://gumtree.com'
p447
ag42
ag163
ag209
ag91
ag252
ag303
ag18
ag96
ag129
ag339
ag343
ag290
ag237
ag347
aS'http://liveleak.com'
p448
ag165
ag416
ag264
ag231
ag327
ag385
ag38
ag132
ag162
ag58
ag143
ag291
ag417
ag151
ag405
ag81
ag28
ag12
ag159
ag37
aS'http://forexrazor.com'
p449
ag152
ag155
aS'http://telegraph.co.uk'
p450
ag90
ag62
ag10
ag54
ag382
ag130
ag234
ag325
ag45
ag3
ag338
ag293
aS'http://ryanair.com'
p451
ag280
ag9
ag53
ag35
aS'http://digitalspy.co.uk'
p452
ag145
ag135
aS'http://adverts.ie'
p453
ag277
ag30
ag401
ag421
ag346
ag20
ag358
ag40
ag131
ag395
ag412
ag110
aS'http://vimeo.com'
p454
ag222
aS'http://evernote.com'
p455
aS'http://skysports.com'
p456
ag127
ag393
ag183
aS'http://noobgamer.co.uk'
p457
ag273
ag66
ag73
aS'http://proxykat.eu'
p458
ag379
ag112
ag354
ag268
ag364
aS'http://cam4.ie'
p459
ag443
ag334
ag160
ag368
ag324
ag396
ag64
ag123
ag188
ag373
ag278
ag353
aS'http://newsnow.co.uk'
p460
ag318
ag253
ag392
ag86
aS'http://watchseries.lt'
p461
ag15
aS'http://sky.com'
p462
ag196
ag190
ag39
ag198
ag436
ag420
ag239
ag329
ag204
ag367
ag25
ag350
ag104
aS'http://zeobit.com'
p463
ag171
ag380
ag224
ag235
ag6
ag344
ag36
ag369
ag271
ag410
ag118
ag242
aS'http://tvn24.pl'
p464
ag218
ag26
ag254
aS'http://carsireland.ie'
p465
ag295
ag94
ag258
ag111
ag230
ag267
ag92
ag247
ag138
ag5
ag166
aS'http://ign.com'
p466
ag427
aS'http://toys.ie'
p467
ag437
ag194
ag186
ag174
ag365
ag370
ag256
ag309
aS'http://empireonline.com'
p468
ag387
ag212
ag397
ag265
ag371
ag100
ag321
ag361
ag149
ag220
ag219
ag428
aS'http://itv.com'
p469
aS'http://onet.pl'
p470
ag84
ag313
ag103
ag22
ag142
ag105
ag340
ag141
ag357
ag51
aS'http://bookryanair.com'
p471
ag227
ag107
ag161
ag61
aS'http://betfair.com'
p472
ag391
asI5
(lp473
g435
ag468
ag249
ag14
ag213
ag146
ag129
ag47
ag444
ag112
ag425
ag354
ag10
aS'http://steampowered.com'
p474
ag371
ag346
ag108
ag274
ag353
ag127
ag147
ag443
ag31
aS'http://fpd.ie'
p475
ag91
aS'http://fas.ie'
p476
ag379
aS'http://babylon.com'
p477
ag267
ag204
ag464
ag97
ag350
ag245
ag373
ag69
ag115
ag459
ag233
ag311
ag410
aS'http://irlgov.ie'
p478
ag455
ag327
ag261
ag383
ag227
ag191
ag221
ag223
ag462
ag314
ag286
ag182
ag134
ag291
ag397
ag7
ag15
ag266
ag251
ag3
ag453
ag151
ag423
ag117
ag57
ag161
ag340
ag231
ag119
ag206
ag167
ag336
ag170
ag331
ag330
aS'http://unfuddle.com'
p479
ag339
ag337
aS'http://lotto.ie'
p480
ag154
ag6
ag85
ag98
ag343
ag74
ag152
ag334
ag247
ag17
aS'http://broadsheet.ie'
p481
ag179
aS'http://megashare.info'
p482
ag270
ag185
ag36
ag465
ag49
ag101
ag382
ag401
ag372
ag351
ag315
ag461
ag45
ag149
ag209
ag176
ag148
ag53
ag450
ag259
ag302
ag420
ag472
ag361
ag13
ag324
ag56
aS'http://wikimedia.org'
p483
ag374
ag214
ag63
ag181
ag229
ag232
ag275
ag400
ag417
aS'http://privatehomeclips.com'
p484
ag30
ag168
ag138
ag32
ag193
ag60
ag35
ag194
ag171
ag192
ag358
ag239
ag345
ag5
ag58
ag90
ag335
ag140
ag20
ag183
ag440
ag338
ag93
ag77
ag228
ag29
ag34
ag257
ag92
ag24
ag133
ag155
ag348
ag174
ag110
aS'http://lockerdome.com'
p485
ag64
ag103
ag250
ag260
ag342
ag217
ag376
ag244
ag118
ag398
ag66
ag175
ag292
ag252
ag405
ag322
ag237
ag99
ag254
ag277
ag367
ag362
ag210
ag429
ag37
ag282
ag160
ag236
aS'http://kajabi.com'
p486
ag263
ag349
aS'http://answers.com'
p487
asI6
(lp488
g422
ag147
ag313
ag259
ag406
ag425
ag362
ag319
ag446
ag4
ag190
ag338
ag27
ag376
ag57
ag325
ag329
ag261
ag294
ag243
ag444
ag239
ag255
ag451
aS'http://engadget.com'
p489
ag229
ag215
ag245
ag266
ag377
ag67
ag420
ag279
ag274
ag236
ag149
ag263
ag271
ag30
ag225
ag367
ag116
ag75
ag13
ag97
ag410
ag342
ag32
ag176
ag330
ag43
ag407
ag136
ag110
ag132
ag195
ag230
ag456
aS'http://loading-delivery1.com'
p490
ag242
ag479
ag344
ag241
ag470
ag391
ag114
ag442
ag403
ag246
ag388
ag127
ag158
ag17
aS'http://electricireland.ie'
p491
ag202
ag437
ag408
ag138
ag8
ag286
ag45
ag393
ag71
ag484
ag92
aS'http://supportfx.net'
p492
ag105
ag418
ag385
ag423
ag454
ag88
ag368
ag189
ag104
ag469
ag205
ag175
ag452
ag275
ag336
ag204
ag461
ag373
ag467
ag171
ag290
ag38
ag113
ag107
ag428
aS'http://irishexaminer.com'
p493
ag166
ag356
ag400
ag258
ag235
ag459
ag386
ag79
ag133
ag37
ag200
ag458
ag429
ag396
ag288
ag447
ag296
ag148
ag285
ag394
aS'http://etsy.com'
p494
ag217
ag130
ag253
aS'http://timeanddate.com'
p495
ag137
ag334
ag302
ag140
ag379
ag35
ag169
ag55
ag20
ag337
ag80
ag156
ag89
ag371
ag86
ag413
ag122
ag378
ag40
ag58
ag327
ag357
ag145
ag364
ag462
ag129
ag77
ag125
ag299
aS'http://debenhams.ie'
p496
ag252
ag227
ag348
ag60
ag289
ag389
ag482
ag22
ag124
ag448
ag309
ag476
ag7
ag220
ag317
ag250
ag347
ag475
ag41
ag19
ag143
ag63
ag430
ag9
ag174
ag186
ag431
ag355
ag6
ag441
ag326
ag311
ag354
asI7
(lp497
g38
ag207
ag202
ag11
aS'http://google.de'
p498
ag407
ag178
ag150
ag195
ag167
ag418
ag262
ag220
ag459
ag140
ag118
ag63
ag7
ag293
ag206
ag224
ag50
ag388
ag283
ag302
ag454
ag415
ag433
ag108
ag448
ag260
ag244
ag343
ag177
ag98
ag82
ag380
ag184
ag475
ag375
ag452
ag86
ag218
ag477
ag303
ag231
ag290
ag315
ag237
ag159
ag281
ag364
ag111
ag166
ag382
ag455
ag25
ag258
ag18
ag417
ag189
ag101
ag337
ag408
ag143
ag421
ag273
ag4
ag121
ag263
ag104
ag276
ag327
ag16
ag133
ag12
ag366
ag369
ag383
ag208
ag484
ag289
ag257
ag259
ag214
ag68
ag470
ag345
ag330
ag252
ag357
ag193
ag249
ag226
ag85
ag320
ag275
ag219
ag324
ag148
ag278
ag322
ag96
ag153
ag79
ag174
ag472
ag9
ag105
aS'http://dublinbus.ie'
p499
ag398
ag67
ag469
ag430
ag59
ag424
ag365
ag155
ag323
ag144
ag496
ag493
ag429
ag339
ag180
ag373
ag90
ag372
ag368
ag261
ag130
ag439
ag30
ag212
ag23
ag479
ag235
ag267
ag8
ag308
ag58
ag70
ag400
ag78
aS'http://nextdirect.com'
p500
ag129
ag13
ag306
ag431
ag457
ag335
ag299
ag255
ag149
ag56
ag274
ag420
ag91
ag326
ag211
ag401
ag317
ag381
ag15
ag471
ag360
ag199
ag391
ag213
ag36
ag243
ag154
ag416
ag425
ag346
ag131
ag458
ag341
ag440
ag24
ag179
ag31
ag216
ag348
ag483
ag427
ag265
ag447
ag88
ag234
ag201
ag120
ag112
ag254
ag92
ag251
ag392
ag225
ag351
ag55
asI8
(lp501
g16
ag302
ag367
ag91
ag205
ag423
ag220
ag31
ag385
ag358
ag284
ag421
ag288
aS'http://aljazeera.com'
p502
ag369
ag309
ag197
ag12
ag124
ag111
ag232
ag236
ag29
ag412
ag407
ag278
ag165
aS'http://free-tv-video-online.me'
p503
ag78
ag142
ag444
ag115
ag443
ag41
ag442
ag221
ag162
ag400
ag246
ag327
ag95
ag454
ag270
ag186
ag38
ag245
ag104
ag132
ag383
ag189
aS'http://bleacherreport.com'
p504
ag158
ag347
ag230
ag68
ag157
ag75
ag97
ag326
ag320
ag406
ag260
ag39
ag414
ag76
ag345
ag271
ag14
ag136
ag272
ag27
ag265
ag141
ag137
ag462
ag398
ag416
ag69
ag437
ag172
ag147
ag87
ag491
ag403
ag313
ag285
ag50
ag289
ag356
ag70
ag235
ag364
ag363
ag3
ag279
ag479
ag317
ag47
ag359
ag243
ag287
ag282
ag378
ag247
ag392
ag481
ag112
ag148
ag318
ag90
ag45
ag336
ag206
ag428
ag262
ag52
ag237
ag281
ag98
ag354
ag65
ag21
ag391
ag467
aS'http://channeladvisor.com'
p505
ag178
ag117
ag453
ag85
ag183
ag431
ag314
ag250
ag143
ag349
ag215
ag8
ag180
ag351
ag370
ag153
ag425
ag486
ag335
ag350
ag315
ag263
ag311
ag489
ag67
ag301
ag253
ag368
ag105
ag463
ag48
ag167
ag164
ag424
ag133
ag275
ag190
ag477
ag64
ag426
ag238
ag6
ag201
ag389
ag81
ag130
ag79
ag297
ag405
ag23
ag9
ag96
ag331
ag292
ag107
ag82
ag286
ag86
ag131
ag171
ag458
ag397
ag439
ag346
ag492
ag166
ag435
ag231
ag169
ag213
ag159
ag193
ag109
ag419
ag199
asI9
(lp506
g87
ag83
ag176
ag434
ag82
ag100
ag59
ag232
ag214
ag334
ag439
ag229
ag127
ag24
ag62
aS'http://iedepot.me'
p507
ag40
ag107
ag145
ag470
ag191
ag388
ag114
ag26
ag419
ag351
ag171
ag316
ag438
ag182
ag390
ag67
ag402
ag430
ag237
ag503
ag102
aS'http://doublepimp.com'
p508
ag348
ag331
ag23
ag121
ag64
ag256
ag41
ag140
ag343
ag45
ag462
ag420
ag263
ag199
ag73
ag110
ag345
ag85
ag461
ag18
ag43
ag464
ag37
ag355
ag29
ag442
ag197
ag482
ag492
ag418
ag94
ag328
ag365
ag405
ag372
ag313
ag130
ag358
ag274
ag264
ag440
ag55
ag337
ag216
ag431
ag31
ag56
ag505
ag34
ag115
ag189
ag25
ag211
ag295
ag300
ag3
ag315
ag15
ag187
ag63
ag308
ag395
ag281
ag268
ag213
ag243
ag77
ag342
ag478
ag456
ag13
ag303
ag297
ag270
ag32
ag89
ag384
ag427
ag126
ag80
ag51
ag120
ag435
ag323
ag244
ag233
ag17
ag433
ag305
ag452
ag39
ag217
ag428
ag132
ag389
ag181
ag498
ag161
ag49
ag70
ag50
ag92
ag392
ag144
ag393
ag241
ag36
ag103
ag153
ag242
ag377
ag443
ag448
ag68
ag135
ag247
ag407
ag266
ag494
ag413
ag458
ag477
ag447
ag224
ag236
ag360
ag366
ag364
ag173
ag136
ag238
ag460
ag133
ag344
ag299
ag166
ag72
ag489
ag192
ag486
ag155
ag118
ag47
ag259
ag44
ag444
ag491
ag379
ag104
ag75
ag84
ag146
ag66
ag5
ag335
ag175
ag8
ag325
ag255
ag152
ag504
ag483
asI10
(lp509
g29
ag214
ag88
ag390
ag165
ag325
ag136
ag448
ag127
ag106
ag224
ag195
ag231
ag151
ag291
ag145
ag162
ag389
ag387
ag116
ag4
ag23
ag22
ag47
ag468
ag154
ag421
ag101
ag89
ag97
ag156
ag424
ag345
ag163
ag53
ag255
ag133
ag54
ag352
ag226
ag354
ag3
ag197
ag192
ag317
ag63
ag277
ag126
ag20
ag336
ag341
ag408
ag225
ag6
ag206
ag386
ag449
ag234
ag356
ag402
ag275
ag70
ag119
ag117
ag300
ag52
ag467
ag463
ag455
ag392
ag370
ag129
ag359
ag99
ag439
ag273
ag399
ag245
ag7
ag90
ag322
ag461
ag323
ag374
ag394
ag222
ag87
ag67
ag465
ag82
ag223
ag153
ag56
ag327
ag98
ag31
ag243
ag413
ag422
ag256
ag339
ag334
ag429
ag177
ag311
ag130
ag39
ag213
ag205
ag30
ag287
ag270
ag268
ag283
ag479
ag238
ag227
ag48
ag147
ag148
ag431
ag326
ag37
ag411
ag246
ag34
ag45
ag137
ag508
ag269
ag433
ag11
ag41
ag309
ag193
ag298
ag312
ag187
ag396
ag384
ag135
ag409
ag241
ag219
ag470
ag498
ag458
ag278
aS'http://emigrantas.tv'
p510
ag236
ag13
ag320
ag428
ag158
ag469
ag285
ag456
ag496
ag247
ag388
ag166
ag358
ag14
ag308
ag125
ag75
ag59
ag79
ag363
ag280
ag83
ag36
ag279
ag328
ag400
ag281
ag124
ag51
ag435
ag104
ag405
ag184
ag315
ag472
ag212
ag381
ag204
ag271
ag310
ag372
ag450
ag194
ag249
ag181
ag60
ag452
ag168
ag208
ag406
ag412
asI11
(lp511
g347
ag323
ag482
ag148
ag108
ag152
ag332
ag183
ag211
ag379
ag462
ag100
ag430
ag156
ag142
ag193
ag396
ag260
ag450
ag464
ag241
ag365
ag151
ag138
ag264
ag457
aS'http://just-eat.ie'
p512
ag321
ag44
ag113
ag443
ag61
ag19
ag229
ag77
ag254
ag201
ag353
ag320
ag175
ag487
ag472
ag57
ag277
ag89
ag463
ag480
ag45
ag179
ag126
ag207
ag110
ag64
ag170
ag181
ag452
ag31
ag428
ag413
ag60
ag125
ag442
ag114
ag224
ag235
ag374
ag123
ag455
ag197
ag75
ag346
ag496
ag130
ag418
ag137
ag274
ag140
ag173
ag313
ag48
ag271
ag65
ag311
ag370
ag74
ag28
ag307
ag253
ag118
ag380
ag403
ag190
ag395
ag507
ag86
ag188
ag408
ag236
ag132
ag429
ag157
ag116
ag150
ag441
ag330
ag432
ag215
ag266
ag249
ag17
ag63
ag411
ag322
ag410
ag11
ag258
ag402
ag40
ag39
ag23
ag294
ag182
ag337
ag344
ag382
ag295
ag267
ag421
ag306
ag222
ag213
ag227
ag399
ag481
ag325
ag135
ag82
ag88
ag27
ag4
ag73
ag391
ag461
ag62
ag381
ag504
ag466
ag419
ag59
ag178
ag129
ag361
ag255
ag42
ag85
ag165
ag476
ag174
ag221
ag30
ag24
ag93
ag318
ag83
ag15
ag460
ag319
ag10
ag280
ag139
ag478
ag141
ag510
ag233
ag425
ag92
ag412
ag208
ag383
ag426
ag184
ag503
ag180
ag342
ag343
ag354
ag239
ag12
ag454
ag282
ag66
ag9
ag228
ag363
ag289
ag204
ag115
ag245
ag8
ag368
asI12
(lp513
g213
ag241
ag148
ag88
ag311
ag368
ag316
ag29
ag253
ag179
ag123
ag372
ag466
ag150
ag105
ag40
ag7
ag133
ag494
ag421
ag93
ag383
ag468
ag381
ag388
ag300
ag272
ag450
ag72
ag407
ag416
ag382
ag464
ag154
ag430
ag486
ag73
ag139
ag227
ag284
ag134
ag155
ag371
ag76
ag136
ag251
ag271
ag438
ag26
ag376
ag356
ag290
ag221
ag358
ag113
ag110
ag70
ag207
ag141
ag39
ag65
ag485
ag175
ag21
ag11
ag301
ag499
ag282
ag435
ag149
ag341
ag380
ag392
ag205
ag168
ag75
ag390
ag475
ag459
ag362
ag454
ag449
ag114
ag369
ag400
ag23
ag397
ag146
ag329
ag354
ag104
ag399
ag97
ag436
ag367
ag216
ag53
ag495
ag327
ag257
ag418
ag49
ag398
ag348
ag297
ag228
ag483
ag437
ag410
ag448
ag56
ag422
ag384
ag47
ag417
ag143
ag491
ag71
ag107
ag86
ag314
ag442
ag22
ag350
ag106
ag428
ag145
ag202
ag100
ag118
ag152
ag208
ag283
ag190
ag183
ag278
ag137
ag370
ag281
ag343
ag15
ag96
ag162
ag58
ag61
ag344
ag147
ag273
ag173
ag458
ag292
ag276
ag209
ag338
ag469
ag215
ag274
ag120
ag234
ag299
ag360
ag456
ag94
ag291
ag259
ag83
ag248
ag116
ag87
ag440
ag443
ag315
ag433
ag6
ag30
ag359
ag308
ag77
ag67
ag332
ag238
ag109
ag470
ag165
ag98
ag447
ag218
ag126
ag33
ag377
ag366
ag130
ag54
ag378
ag232
ag401
ag45
ag254
ag288
aS'http://infusionsoft.com'
p514
asI13
(lp515
g94
ag77
ag281
ag397
ag407
ag40
ag298
ag71
ag325
ag309
ag131
ag83
ag158
ag103
ag282
ag502
ag156
ag477
ag370
ag383
ag474
ag462
ag92
ag485
ag448
ag200
ag346
ag465
ag69
ag218
ag216
ag514
ag261
ag126
ag273
ag344
ag341
ag11
ag306
ag202
ag423
ag412
ag297
ag192
ag328
ag50
ag354
ag510
ag57
ag508
ag390
ag152
ag96
ag505
ag3
ag76
ag201
ag123
ag23
ag12
ag136
ag246
ag480
ag315
ag165
ag15
ag241
ag360
ag263
ag153
ag32
ag170
ag472
ag380
ag431
ag385
ag205
ag127
ag91
ag391
ag228
ag213
ag118
ag364
ag5
ag435
ag429
ag225
ag22
ag97
ag130
ag337
ag512
ag99
ag18
ag496
ag495
ag267
ag51
ag34
ag271
ag24
ag172
ag447
ag60
ag347
ag490
ag114
ag74
ag319
ag113
ag280
ag393
ag154
ag348
ag72
ag236
ag64
ag190
ag151
ag409
ag219
ag171
ag265
ag167
ag61
ag277
ag437
ag116
ag86
ag264
ag257
ag311
ag95
ag41
ag44
ag276
ag388
ag384
ag207
ag193
ag79
ag198
ag458
ag449
ag259
ag214
ag175
ag363
ag182
ag58
ag250
ag109
ag432
ag362
ag274
ag357
ag450
ag342
ag318
ag238
ag262
ag394
ag339
ag301
ag401
ag442
ag351
ag220
ag476
ag111
ag487
ag440
ag399
ag382
ag222
ag291
ag180
ag142
ag221
ag349
ag314
ag451
ag179
ag424
ag237
ag101
ag322
ag38
ag483
ag183
ag227
ag208
ag178
ag195
ag329
ag188
ag160
ag161
ag503
asI14
(lp516
g58
ag337
ag198
ag115
ag327
ag54
ag331
ag454
ag289
ag74
ag256
ag369
ag373
ag446
ag472
ag20
ag70
ag66
ag455
ag470
ag44
ag467
ag408
ag170
ag372
ag320
ag15
ag354
ag261
ag494
ag177
ag185
ag332
ag387
ag250
ag60
ag140
ag35
ag169
ag208
ag308
ag347
ag116
ag379
ag108
ag254
ag128
ag314
ag125
ag464
ag176
ag10
ag336
ag90
ag269
ag334
ag95
ag297
ag305
ag124
ag174
ag267
ag168
ag62
ag57
ag268
ag302
ag40
ag312
ag205
ag505
ag145
ag217
ag245
ag313
ag150
ag72
ag37
ag463
ag238
ag476
ag426
ag507
ag341
ag438
ag265
ag348
ag53
ag100
ag222
ag384
ag79
ag485
ag385
ag391
ag241
ag226
ag75
ag357
ag93
ag210
ag279
ag492
ag344
ag440
ag285
ag192
ag119
ag359
ag146
ag322
ag468
ag41
ag162
ag346
ag291
ag132
ag253
ag61
ag370
ag190
ag219
ag123
ag345
ag199
ag117
ag397
ag257
ag207
ag504
ag24
ag461
ag479
ag259
ag264
ag109
ag287
ag281
ag393
ag188
ag200
ag450
ag447
ag16
ag197
ag406
ag209
ag282
ag283
ag388
ag220
ag424
ag365
ag147
ag105
ag233
ag173
ag194
ag309
ag121
ag172
ag155
ag328
ag43
ag433
ag38
ag280
ag462
ag405
ag85
ag120
ag67
ag339
ag377
ag110
ag484
ag286
ag167
ag211
ag343
ag236
ag130
ag330
ag83
ag122
ag298
ag183
ag49
ag430
ag163
ag184
ag225
ag400
ag423
ag202
ag471
ag263
ag136
ag262
ag491
asI15
(lp517
g82
ag189
ag431
ag464
ag286
ag34
ag436
ag364
ag86
ag243
ag320
ag31
ag205
ag486
ag9
ag401
ag216
ag353
ag378
ag78
ag347
ag421
ag292
ag150
ag77
ag475
ag53
ag498
ag38
ag108
ag430
ag300
ag252
ag340
ag239
ag496
ag288
ag263
ag208
ag16
ag412
ag374
ag321
ag383
ag267
ag120
ag462
ag470
ag291
ag113
ag271
ag40
ag109
ag48
ag357
ag158
ag167
ag36
ag319
ag304
ag209
ag305
ag264
ag403
ag14
ag176
ag459
ag106
ag458
ag365
ag402
ag169
ag221
ag487
ag44
ag55
ag337
ag276
ag12
ag129
ag136
ag180
ag81
ag489
ag19
ag395
ag121
ag66
ag331
ag80
ag174
ag484
ag310
ag182
ag313
ag499
ag394
ag385
ag266
ag259
ag114
ag250
ag386
ag119
ag392
ag51
ag65
ag13
ag255
ag4
ag135
ag100
ag144
ag495
ag64
ag510
ag294
ag324
ag159
ag396
ag224
ag380
ag137
ag472
ag369
ag157
ag147
ag93
ag175
ag192
ag287
ag63
ag410
ag101
ag25
ag417
ag145
ag268
ag442
ag346
ag248
ag92
ag435
ag87
ag217
ag503
ag351
ag116
ag370
ag236
ag482
ag138
ag429
ag274
ag447
ag335
ag314
ag210
ag456
ag52
ag126
ag443
ag96
ag439
ag181
ag332
ag110
ag471
ag382
ag334
ag168
ag143
ag328
ag73
ag389
ag172
ag191
ag162
ag352
ag454
ag260
ag467
ag18
ag140
ag493
ag153
ag453
ag115
ag257
ag281
ag195
ag323
ag68
ag72
ag308
ag28
ag139
ag303
ag152
ag165
asI16
(lp518
g415
ag264
ag346
ag323
ag200
ag155
ag194
ag451
ag460
ag262
ag231
ag474
ag47
ag17
ag336
ag201
ag376
ag156
ag26
ag137
ag246
ag25
ag255
ag28
ag329
ag167
ag163
ag424
ag129
ag478
ag334
ag62
ag452
ag61
ag260
ag24
ag353
ag101
ag489
ag151
ag43
ag495
ag499
ag173
ag174
ag166
ag249
ag277
ag41
ag159
ag330
ag142
ag210
ag82
ag225
ag440
ag273
ag189
ag373
ag153
ag181
ag58
ag141
ag81
ag120
ag46
ag391
ag410
ag411
ag107
ag504
ag296
ag493
ag325
ag395
ag68
ag204
ag183
ag70
ag311
ag234
ag49
ag154
ag48
ag235
ag186
ag349
ag91
ag362
ag126
ag401
ag352
ag287
ag65
ag385
ag433
ag369
ag53
ag88
ag143
ag300
ag459
ag314
ag400
ag431
ag402
ag340
ag398
ag124
ag3
ag358
ag10
ag76
ag198
ag381
ag23
ag14
ag39
ag51
ag254
ag360
ag442
ag237
ag436
ag36
ag427
ag223
ag502
ag416
ag78
ag90
ag364
ag266
ag289
ag170
ag171
ag98
ag339
ag343
ag165
ag162
ag220
ag60
ag422
ag468
ag332
ag290
ag131
ag327
ag31
ag115
ag15
ag271
ag378
ag169
ag218
ag303
ag471
ag500
ag87
ag348
ag93
ag241
ag367
ag108
ag394
ag275
ag238
ag294
ag309
ag104
ag263
ag127
ag276
ag160
ag50
ag178
ag95
ag278
ag351
ag229
ag11
ag248
ag20
ag345
ag466
ag34
ag57
ag52
ag63
ag116
ag272
ag253
ag288
ag439
ag245
ag302
ag304
ag321
ag185
asI17
(lp519
g297
ag79
ag386
ag102
ag261
ag197
ag262
ag190
ag441
ag470
ag512
ag377
ag213
ag31
ag378
ag302
ag174
ag432
ag20
ag421
ag193
ag349
ag210
ag151
ag60
ag9
ag326
ag157
ag425
ag15
ag36
ag496
ag490
ag458
ag415
ag336
ag375
ag206
ag443
ag342
ag129
ag187
ag382
ag406
ag42
ag344
ag306
ag177
ag345
ag62
ag368
ag393
ag438
ag68
ag431
ag200
ag112
ag37
ag75
ag455
ag269
ag352
ag142
ag164
ag140
ag299
ag419
ag330
ag486
ag401
ag371
ag319
ag503
ag360
ag71
ag279
ag392
ag308
ag125
ag41
ag21
ag270
ag258
ag11
ag408
ag49
ag354
ag220
ag507
ag364
ag413
ag508
ag234
ag219
ag259
ag396
ag372
ag267
ag243
ag447
ag491
ag449
ag222
ag446
ag426
ag4
ag80
ag456
ag109
ag22
ag3
ag416
ag397
ag40
ag152
ag465
ag225
ag226
ag136
ag63
ag132
ag394
ag246
ag90
ag387
ag148
ag81
ag348
ag240
ag351
ag448
ag141
ag367
ag126
ag176
ag462
ag410
ag58
ag357
ag172
ag163
ag268
ag181
ag285
ag186
ag253
ag334
ag138
ag424
ag182
ag215
ag207
ag337
ag480
ag10
ag194
ag338
ag339
ag12
ag238
ag8
ag492
ag51
ag199
ag150
ag474
ag435
ag55
ag244
ag428
ag282
ag288
ag363
ag347
ag221
ag461
ag227
ag38
ag46
ag411
ag14
ag454
ag99
ag322
ag403
ag350
ag479
ag237
ag195
ag122
ag104
ag260
ag391
ag167
ag111
ag286
ag325
ag154
ag224
ag204
asI18
(lp520
g446
ag355
ag261
ag262
ag322
ag107
ag10
ag496
ag198
ag241
ag384
ag61
ag201
ag386
ag282
ag146
ag11
ag448
ag278
ag86
ag208
ag270
ag299
ag338
ag328
ag306
ag108
ag457
ag396
ag135
ag372
ag263
ag364
ag268
ag286
ag5
ag295
ag102
ag89
ag217
ag422
ag432
ag310
ag326
ag96
ag441
ag379
ag14
ag45
ag271
ag420
ag257
ag442
ag296
ag311
ag276
ag121
ag195
ag507
ag504
ag182
ag126
ag460
ag403
ag32
ag347
ag377
ag47
ag115
ag449
ag254
ag24
ag482
ag23
ag223
ag493
ag72
ag134
ag44
ag55
ag209
ag304
ag475
ag170
ag87
ag79
ag491
ag456
ag360
ag8
ag224
ag323
ag394
ag438
ag429
ag143
ag362
ag22
ag166
ag85
ag49
ag479
ag428
ag150
ag466
ag130
ag233
ag381
ag109
ag514
ag54
ag498
ag169
ag81
ag474
ag37
ag39
ag302
ag398
ag75
ag215
ag395
ag486
ag280
ag240
ag148
ag62
ag57
ag281
ag348
ag242
ag15
ag137
ag300
ag69
ag408
ag159
ag387
ag405
ag141
ag105
ag406
ag341
ag367
ag56
ag309
ag508
ag392
ag337
ag77
ag288
ag266
ag454
ag160
ag71
ag21
ag90
ag435
ag131
ag380
ag358
ag149
ag245
ag298
ag349
ag140
ag97
ag25
ag142
ag439
ag111
ag152
ag368
ag125
ag313
ag183
ag248
ag185
ag33
ag67
ag19
ag487
ag68
ag390
ag483
ag225
ag389
ag74
ag30
ag216
ag345
ag462
ag246
ag383
ag78
ag502
ag388
ag177
ag287
ag94
asI19
(lp521
g137
ag227
ag403
ag78
ag147
ag263
ag304
ag70
ag258
ag295
ag230
ag90
ag310
ag131
ag415
ag285
ag216
ag406
ag410
ag232
ag348
ag401
ag134
ag8
ag93
ag32
ag35
ag110
ag336
ag459
ag487
ag44
ag322
ag3
ag292
ag133
ag181
ag337
ag24
ag132
ag498
ag249
ag309
ag138
ag286
ag212
ag231
ag136
ag293
ag210
ag490
ag291
ag202
ag427
ag321
ag460
ag353
ag222
ag372
ag199
ag59
ag6
ag400
ag182
ag496
ag300
ag417
ag50
ag81
ag426
ag156
ag76
ag193
ag482
ag229
ag307
ag374
ag243
ag85
ag299
ag430
ag278
ag324
ag314
ag365
ag345
ag4
ag471
ag313
ag510
ag329
ag396
ag186
ag378
ag461
ag41
ag302
ag171
ag315
ag408
ag379
ag120
ag56
ag455
ag37
ag206
ag495
ag351
ag7
ag67
ag11
ag464
ag474
ag74
ag361
ag107
ag223
ag54
ag248
ag344
ag79
ag359
ag149
ag251
ag82
ag15
ag9
ag47
ag118
ag144
ag508
ag270
ag237
ag88
ag62
ag91
ag480
ag240
ag475
ag466
ag183
ag274
ag439
ag283
ag14
ag362
ag200
ag306
ag380
ag63
ag272
ag174
ag55
ag158
ag392
ag425
ag33
ag190
ag49
ag25
ag438
ag16
ag493
ag71
ag209
ag342
ag213
ag150
ag30
ag12
ag467
ag468
ag159
ag87
ag431
ag260
ag17
ag166
ag491
ag483
ag241
ag19
ag224
ag191
ag409
ag112
ag423
ag479
ag126
ag450
ag117
ag405
ag233
ag100
ag80
ag420
ag376
ag101
ag167
ag271
asI20
(lp522
g60
ag484
ag169
ag490
ag492
ag118
ag205
ag405
ag213
ag107
ag288
ag223
ag232
ag137
ag502
ag64
ag225
ag505
ag59
ag418
ag441
ag264
ag34
ag268
ag241
ag466
ag258
ag344
ag212
ag361
ag313
ag309
ag290
ag327
ag429
ag130
ag371
ag324
ag155
ag13
ag347
ag403
ag176
ag15
ag150
ag448
ag467
ag367
ag120
ag475
ag374
ag37
ag489
ag359
ag407
ag126
ag174
ag144
ag469
ag160
ag25
ag508
ag425
ag154
ag435
ag416
ag8
ag463
ag340
ag400
ag255
ag349
ag454
ag373
ag427
ag206
ag54
ag41
ag483
ag316
ag57
ag486
ag86
ag514
ag230
ag314
ag67
ag281
ag449
ag76
ag9
ag415
ag97
ag251
ag319
ag446
ag294
ag269
ag409
ag379
ag500
ag100
ag27
ag482
ag261
ag436
ag297
ag325
ag428
ag88
ag273
ag216
ag246
ag432
ag456
ag51
ag201
ag411
ag444
ag70
ag372
ag383
ag142
ag291
ag96
ag129
ag277
ag224
ag124
ag364
ag11
ag406
ag328
ag219
ag461
ag276
ag338
ag363
ag455
ag31
ag417
ag459
ag285
ag82
ag19
ag310
ag238
ag426
ag395
ag353
ag99
ag79
ag337
ag271
ag301
ag87
ag339
ag336
ag222
ag6
ag135
ag71
ag247
ag197
ag159
ag330
ag369
ag17
ag167
ag315
ag375
ag295
ag450
ag457
ag28
ag304
ag443
ag270
ag491
ag90
ag356
ag119
ag199
ag221
ag507
ag357
ag5
ag66
ag308
ag180
ag366
ag104
ag355
ag412
ag287
ag299
ag332
ag81
ag62
ag208
asI21
(lp523
g182
ag269
ag397
ag496
ag194
ag58
ag34
ag282
ag453
ag270
ag22
ag97
ag389
ag499
ag195
ag322
ag5
ag141
ag44
ag68
ag253
ag466
ag398
ag272
ag387
ag118
ag275
ag419
ag491
ag512
ag257
ag94
ag367
ag335
ag39
ag232
ag41
ag150
ag27
ag487
ag88
ag123
ag138
ag140
ag361
ag214
ag263
ag485
ag492
ag73
ag503
ag366
ag326
ag374
ag347
ag28
ag158
ag188
ag231
ag251
ag288
ag320
ag237
ag463
ag312
ag297
ag342
ag26
ag71
ag514
ag507
ag184
ag349
ag36
ag14
ag434
ag84
ag490
ag325
ag427
ag23
ag319
ag70
ag189
ag175
ag476
ag411
ag117
ag324
ag225
ag198
ag192
ag456
ag436
ag170
ag112
ag50
ag155
ag133
ag446
ag230
ag413
ag363
ag264
ag313
ag386
ag106
ag221
ag343
ag395
ag33
ag448
ag298
ag31
ag157
ag152
ag266
ag190
ag286
ag250
ag201
ag481
ag229
ag137
ag382
ag54
ag181
ag226
ag125
ag480
ag364
ag9
ag412
ag80
ag240
ag294
ag109
ag510
ag323
ag95
ag504
ag87
ag489
ag420
ag101
ag353
ag302
ag379
ag56
ag238
ag380
ag267
ag449
ag19
ag373
ag303
ag469
ag121
ag483
ag424
ag47
ag283
ag96
ag42
ag82
ag378
ag400
ag315
ag415
ag202
ag57
ag206
ag360
ag310
ag210
ag344
ag384
ag249
ag477
ag359
ag277
ag120
ag110
ag247
ag48
ag433
ag495
ag358
ag407
ag293
ag451
ag454
ag425
ag402
ag246
ag452
ag289
ag306
ag11
ag362
asI22
(lp524
g326
ag464
ag379
ag428
ag369
ag212
ag48
ag16
ag469
ag108
ag56
ag275
ag355
ag419
ag466
ag27
ag337
ag225
ag194
ag354
ag37
ag411
ag363
ag167
ag19
ag364
ag68
ag382
ag422
ag128
ag257
ag367
ag156
ag472
ag440
ag349
ag489
ag85
ag273
ag309
ag174
ag150
ag30
ag173
ag154
ag177
ag287
ag431
ag232
ag23
ag357
ag228
ag261
ag442
ag105
ag244
ag456
ag289
ag33
ag306
ag484
ag462
ag5
ag191
ag247
ag39
ag78
ag494
ag117
ag50
ag114
ag254
ag155
ag418
ag248
ag47
ag221
ag208
ag295
ag280
ag249
ag141
ag350
ag97
ag103
ag348
ag193
ag87
ag161
ag375
ag187
ag183
ag216
ag125
ag29
ag432
ag451
ag102
ag88
ag77
ag512
ag63
ag89
ag133
ag176
ag234
ag80
ag277
ag252
ag356
ag393
ag304
ag384
ag94
ag227
ag308
ag241
ag353
ag200
ag219
ag476
ag217
ag455
ag316
ag336
ag265
ag406
ag505
ag34
ag314
ag335
ag467
ag430
ag317
ag59
ag421
ag302
ag491
ag40
ag407
ag235
ag399
ag83
ag274
ag207
ag311
ag28
ag163
ag271
ag92
ag485
ag298
ag51
ag233
ag179
ag26
ag152
ag223
ag439
ag413
ag196
ag262
ag9
ag394
ag281
ag110
ag90
ag148
ag320
ag95
ag447
ag343
ag239
ag124
ag153
ag84
ag82
ag448
ag131
ag390
ag443
ag45
ag190
ag204
ag41
ag14
ag238
ag66
ag54
ag36
ag416
ag246
ag8
ag118
ag186
ag137
ag504
ag130
ag324
ag253
asI23
(lp525
g447
ag329
ag210
ag392
ag10
ag442
ag263
ag128
ag218
ag230
ag410
ag362
ag11
ag338
ag52
ag363
ag22
ag224
ag191
ag325
ag420
ag219
ag239
ag116
ag455
ag491
ag476
ag228
ag117
ag361
ag274
ag248
ag60
ag311
ag162
ag514
ag32
ag287
ag330
ag78
ag119
ag269
ag409
ag107
ag30
ag24
ag12
ag172
ag469
ag358
ag385
ag34
ag161
ag58
ag168
ag69
ag204
ag193
ag378
ag43
ag421
ag42
ag169
ag303
ag154
ag201
ag307
ag27
ag68
ag415
ag23
ag171
ag167
ag122
ag70
ag379
ag466
ag159
ag453
ag286
ag149
ag387
ag510
ag85
ag120
ag181
ag266
ag88
ag460
ag357
ag13
ag77
ag166
ag471
ag250
ag15
ag295
ag233
ag260
ag67
ag139
ag475
ag19
ag344
ag507
ag223
ag7
ag413
ag81
ag444
ag183
ag207
ag282
ag359
ag214
ag84
ag173
ag322
ag9
ag136
ag46
ag140
ag366
ag273
ag185
ag383
ag103
ag462
ag229
ag71
ag360
ag163
ag504
ag351
ag299
ag200
ag51
ag296
ag465
ag459
ag368
ag65
ag21
ag321
ag49
ag458
ag422
ag454
ag267
ag318
ag216
ag419
ag212
ag297
ag48
ag495
ag314
ag268
ag417
ag177
ag142
ag371
ag430
ag147
ag394
ag146
ag365
ag293
ag259
ag135
ag14
ag61
ag355
ag464
ag450
ag395
ag470
ag196
ag492
ag170
ag40
ag28
ag315
ag478
ag493
ag350
ag195
ag345
ag281
ag25
ag198
ag486
ag93
ag508
ag144
ag276
ag317
ag247
ag373
ag451
asI24
(lp526
g507
ag13
ag244
ag183
ag502
ag223
ag230
ag207
ag358
ag352
ag334
ag86
ag290
ag197
ag253
ag234
ag73
ag329
ag505
ag75
ag274
ag237
ag303
ag8
ag68
ag200
ag416
ag475
ag164
ag257
ag236
ag210
ag225
ag266
ag355
ag100
ag302
ag235
ag305
ag364
ag344
ag470
ag409
ag228
ag173
ag81
ag417
ag317
ag466
ag321
ag36
ag202
ag389
ag124
ag21
ag397
ag64
ag222
ag247
ag367
ag211
ag336
ag84
ag221
ag103
ag153
ag438
ag297
ag468
ag261
ag34
ag487
ag212
ag464
ag265
ag20
ag504
ag432
ag135
ag240
ag152
ag412
ag156
ag209
ag65
ag219
ag88
ag300
ag450
ag71
ag402
ag214
ag147
ag139
ag70
ag277
ag424
ag232
ag218
ag456
ag33
ag239
ag299
ag441
ag17
ag224
ag477
ag4
ag304
ag140
ag357
ag138
ag25
ag481
ag63
ag196
ag446
ag353
ag388
ag177
ag307
ag74
ag503
ag162
ag208
ag433
ag249
ag165
ag108
ag167
ag312
ag465
ag129
ag328
ag282
ag394
ag38
ag24
ag484
ag5
ag113
ag448
ag195
ag15
ag148
ag9
ag7
ag368
ag485
ag326
ag467
ag16
ag215
ag499
ag425
ag360
ag199
ag273
ag439
ag146
ag385
ag339
ag455
ag366
ag101
ag295
ag216
ag268
ag79
ag370
ag421
ag343
ag61
ag437
ag435
ag11
ag23
ag381
ag415
ag142
ag495
ag120
ag286
ag283
ag463
ag43
ag434
ag85
ag50
ag158
ag472
ag160
ag256
ag320
ag40
ag490
ag57
ag345
ag179
ag410
as.